SF:/Users/victornl/repos/cedar-spec/cedar/cedar-policy-core/src/ast/annotation.rs
FN:132,_RNvMs6_NtNtCsfZPcC2TrjjJ_17cedar_policy_core3ast10annotationNtB5_10Annotation19with_optional_value
FN:48,_RNvMs_NtNtCsfZPcC2TrjjJ_17cedar_policy_core3ast10annotationNtB4_11Annotations3get
FN:43,_RNvMs_NtNtCsfZPcC2TrjjJ_17cedar_policy_core3ast10annotationNtB4_11Annotations3new
FN:53,_RNvMs_NtNtCsfZPcC2TrjjJ_17cedar_policy_core3ast10annotationNtB4_11Annotations4iter
FN:33,_RNvXNtNtCsfZPcC2TrjjJ_17cedar_policy_core3ast10annotationNtB2_11AnnotationsNtNtCsaNl6UpbT7bw_4core3fmt7Display3fmt
FN:70,_RNvXs0_NtNtCsfZPcC2TrjjJ_17cedar_policy_core3ast10annotationNtB5_8IntoIterNtNtNtNtCsaNl6UpbT7bw_4core4iter6traits8iterator8Iterator4next
FN:80,_RNvXs1_NtNtCsfZPcC2TrjjJ_17cedar_policy_core3ast10annotationNtB5_11AnnotationsNtNtNtNtCsaNl6UpbT7bw_4core4iter6traits7collect12IntoIterator9into_iter
FN:86,_RNvXs2_NtNtCsfZPcC2TrjjJ_17cedar_policy_core3ast10annotationNtB5_11AnnotationsNtNtCsaNl6UpbT7bw_4core7default7Default7default
FN:98,_RNvXs4_NtNtCsfZPcC2TrjjJ_17cedar_policy_core3ast10annotationNtB5_11AnnotationsINtNtCsaNl6UpbT7bw_4core7convert4FromINtNtNtNtCsiTraAjBDcu4_5alloc11collections5btree3map8BTreeMapNtNtB7_2id5AnyIdNtB5_10AnnotationEE4from
FN:122,_RNvXs5_NtNtCsfZPcC2TrjjJ_17cedar_policy_core3ast10annotationNtB5_10AnnotationNtNtCsaNl6UpbT7bw_4core3fmt7Display3fmt
FN:141,_RNvXs7_NtNtCsfZPcC2TrjjJ_17cedar_policy_core3ast10annotationNtB5_10AnnotationINtNtCsaNl6UpbT7bw_4core7convert5AsRefeE6as_ref
FN:58,_RNvMs_NtNtCsfZPcC2TrjjJ_17cedar_policy_core3ast10annotationNtB4_11Annotations8is_empty
FN:92,_RINvXs3_NtNtCsfZPcC2TrjjJ_17cedar_policy_core3ast10annotationNtB6_11AnnotationsINtNtNtNtCsaNl6UpbT7bw_4core4iter6traits7collect12FromIteratorTNtNtB8_2id5AnyIdNtB6_10AnnotationEE9from_iterINtNtNtB1m_8adapters3map3MapINtNtNtNtCsiTraAjBDcu4_5alloc11collections5btree3map4IterB2g_B2w_ENCNvNtNtB8_6policy4tests_26test_static_policy_rebuild0EEBa_
FN:92,_RINvXs3_NtNtCsfZPcC2TrjjJ_17cedar_policy_core3ast10annotationNtB6_11AnnotationsINtNtNtNtCsaNl6UpbT7bw_4core4iter6traits7collect12FromIteratorTNtNtB8_2id5AnyIdNtB6_10AnnotationEE9from_iterINtNtNtB1m_8adapters3map3MapINtNtNtNtCsiTraAjBDcu4_5alloc11collections5btree3map8IntoIterB2g_INtNtB1o_6option6OptionB2w_EENCNvMs2_NtBa_3estNtB55_6Policy31try_into_ast_policy_or_templates1_0EEBa_
FN:92,_RINvXs3_NtNtCsfZPcC2TrjjJ_17cedar_policy_core3ast10annotationNtB6_11AnnotationsINtNtNtNtCsaNl6UpbT7bw_4core4iter6traits7collect12FromIteratorTNtNtB8_2id5AnyIdNtB6_10AnnotationEE9from_iterINtNtNtB1m_8adapters3map3MapINtNtNtNtCsiTraAjBDcu4_5alloc11collections5btree3map8IntoIterINtNtNtBa_6parser4node4NodeB2g_EINtNtB1o_6option6OptionIB4r_NtCsbIodQZzabP8_8smol_str7SmolStrEEENCINvNtNtNtBa_9validator12cedar_schema3ast23deduplicate_annotationsIB4r_NtB63_11DeclarationEE0EEBa_
FN:92,_RINvXs3_NtNtCsfZPcC2TrjjJ_17cedar_policy_core3ast10annotationNtB6_11AnnotationsINtNtNtNtCsaNl6UpbT7bw_4core4iter6traits7collect12FromIteratorTNtNtB8_2id5AnyIdNtB6_10AnnotationEE9from_iterINtNtNtB1m_8adapters3map3MapINtNtNtNtCsiTraAjBDcu4_5alloc11collections5btree3map8IntoIterINtNtNtBa_6parser4node4NodeB2g_EINtNtB1o_6option6OptionIB4r_NtCsbIodQZzabP8_8smol_str7SmolStrEEENCINvNtNtNtBa_9validator12cedar_schema3ast23deduplicate_annotationsNtB63_8AttrDeclE0EEBa_
FN:92,_RINvXs3_NtNtCsfZPcC2TrjjJ_17cedar_policy_core3ast10annotationNtB6_11AnnotationsINtNtNtNtCsaNl6UpbT7bw_4core4iter6traits7collect12FromIteratorTNtNtB8_2id5AnyIdNtB6_10AnnotationEE9from_iterINtNtNtB1m_8adapters3map3MapINtNtNtNtCsiTraAjBDcu4_5alloc11collections5btree3map8IntoIterINtNtNtBa_6parser4node4NodeB2g_EINtNtB1o_6option6OptionIB4r_NtCsbIodQZzabP8_8smol_str7SmolStrEEENCINvNtNtNtBa_9validator12cedar_schema3ast23deduplicate_annotationsNtB63_9NamespaceE0EEBa_
FN:92,_RINvXs3_NtNtCsfZPcC2TrjjJ_17cedar_policy_core3ast10annotationNtB6_11AnnotationsINtNtNtNtCsaNl6UpbT7bw_4core4iter6traits7collect12FromIteratorTNtNtB8_2id5AnyIdNtB6_10AnnotationEE9from_iterINtNtNtB1m_8adapters3map3MapINtNtNtNtCsiTraAjBDcu4_5alloc11collections5btree3map8IntoIterNtNtB3A_6string6StringNtCsbIodQZzabP8_8smol_str7SmolStrENCNvXs_NtNtBa_3pst15ast_conversionsNtNtB8_6policy8TemplateINtNtB1o_7convert7TryFromNtNtB5t_6policy6PolicyE8try_froms0_0EEBa_
FNDA:159,_RNvMs6_NtNtCsfZPcC2TrjjJ_17cedar_policy_core3ast10annotationNtB5_10Annotation19with_optional_value
FNDA:20,_RNvMs_NtNtCsfZPcC2TrjjJ_17cedar_policy_core3ast10annotationNtB4_11Annotations3get
FNDA:2801,_RNvMs_NtNtCsfZPcC2TrjjJ_17cedar_policy_core3ast10annotationNtB4_11Annotations3new
FNDA:111,_RNvMs_NtNtCsfZPcC2TrjjJ_17cedar_policy_core3ast10annotationNtB4_11Annotations4iter
FNDA:283,_RNvXNtNtCsfZPcC2TrjjJ_17cedar_policy_core3ast10annotationNtB2_11AnnotationsNtNtCsaNl6UpbT7bw_4core3fmt7Display3fmt
FNDA:2450,_RNvXs0_NtNtCsfZPcC2TrjjJ_17cedar_policy_core3ast10annotationNtB5_8IntoIterNtNtNtNtCsaNl6UpbT7bw_4core4iter6traits8iterator8Iterator4next
FNDA:2386,_RNvXs1_NtNtCsfZPcC2TrjjJ_17cedar_policy_core3ast10annotationNtB5_11AnnotationsNtNtNtNtCsaNl6UpbT7bw_4core4iter6traits7collect12IntoIterator9into_iter
FNDA:14,_RNvXs2_NtNtCsfZPcC2TrjjJ_17cedar_policy_core3ast10annotationNtB5_11AnnotationsNtNtCsaNl6UpbT7bw_4core7default7Default7default
FNDA:654,_RNvXs4_NtNtCsfZPcC2TrjjJ_17cedar_policy_core3ast10annotationNtB5_11AnnotationsINtNtCsaNl6UpbT7bw_4core7convert4FromINtNtNtNtCsiTraAjBDcu4_5alloc11collections5btree3map8BTreeMapNtNtB7_2id5AnyIdNtB5_10AnnotationEE4from
FNDA:38,_RNvXs5_NtNtCsfZPcC2TrjjJ_17cedar_policy_core3ast10annotationNtB5_10AnnotationNtNtCsaNl6UpbT7bw_4core3fmt7Display3fmt
FNDA:18,_RNvXs7_NtNtCsfZPcC2TrjjJ_17cedar_policy_core3ast10annotationNtB5_10AnnotationINtNtCsaNl6UpbT7bw_4core7convert5AsRefeE6as_ref
FNDA:0,_RNvMs_NtNtCsfZPcC2TrjjJ_17cedar_policy_core3ast10annotationNtB4_11Annotations8is_empty
FNDA:72,_RINvXs3_NtNtCsfZPcC2TrjjJ_17cedar_policy_core3ast10annotationNtB6_11AnnotationsINtNtNtNtCsaNl6UpbT7bw_4core4iter6traits7collect12FromIteratorTNtNtB8_2id5AnyIdNtB6_10AnnotationEE9from_iterINtNtNtB1m_8adapters3map3MapINtNtNtNtCsiTraAjBDcu4_5alloc11collections5btree3map4IterB2g_B2w_ENCNvNtNtB8_6policy4tests_26test_static_policy_rebuild0EEBa_
FNDA:82,_RINvXs3_NtNtCsfZPcC2TrjjJ_17cedar_policy_core3ast10annotationNtB6_11AnnotationsINtNtNtNtCsaNl6UpbT7bw_4core4iter6traits7collect12FromIteratorTNtNtB8_2id5AnyIdNtB6_10AnnotationEE9from_iterINtNtNtB1m_8adapters3map3MapINtNtNtNtCsiTraAjBDcu4_5alloc11collections5btree3map8IntoIterB2g_INtNtB1o_6option6OptionB2w_EENCNvMs2_NtBa_3estNtB55_6Policy31try_into_ast_policy_or_templates1_0EEBa_
FNDA:1261,_RINvXs3_NtNtCsfZPcC2TrjjJ_17cedar_policy_core3ast10annotationNtB6_11AnnotationsINtNtNtNtCsaNl6UpbT7bw_4core4iter6traits7collect12FromIteratorTNtNtB8_2id5AnyIdNtB6_10AnnotationEE9from_iterINtNtNtB1m_8adapters3map3MapINtNtNtNtCsiTraAjBDcu4_5alloc11collections5btree3map8IntoIterINtNtNtBa_6parser4node4NodeB2g_EINtNtB1o_6option6OptionIB4r_NtCsbIodQZzabP8_8smol_str7SmolStrEEENCINvNtNtNtBa_9validator12cedar_schema3ast23deduplicate_annotationsIB4r_NtB63_11DeclarationEE0EEBa_
FNDA:672,_RINvXs3_NtNtCsfZPcC2TrjjJ_17cedar_policy_core3ast10annotationNtB6_11AnnotationsINtNtNtNtCsaNl6UpbT7bw_4core4iter6traits7collect12FromIteratorTNtNtB8_2id5AnyIdNtB6_10AnnotationEE9from_iterINtNtNtB1m_8adapters3map3MapINtNtNtNtCsiTraAjBDcu4_5alloc11collections5btree3map8IntoIterINtNtNtBa_6parser4node4NodeB2g_EINtNtB1o_6option6OptionIB4r_NtCsbIodQZzabP8_8smol_str7SmolStrEEENCINvNtNtNtBa_9validator12cedar_schema3ast23deduplicate_annotationsNtB63_8AttrDeclE0EEBa_
FNDA:207,_RINvXs3_NtNtCsfZPcC2TrjjJ_17cedar_policy_core3ast10annotationNtB6_11AnnotationsINtNtNtNtCsaNl6UpbT7bw_4core4iter6traits7collect12FromIteratorTNtNtB8_2id5AnyIdNtB6_10AnnotationEE9from_iterINtNtNtB1m_8adapters3map3MapINtNtNtNtCsiTraAjBDcu4_5alloc11collections5btree3map8IntoIterINtNtNtBa_6parser4node4NodeB2g_EINtNtB1o_6option6OptionIB4r_NtCsbIodQZzabP8_8smol_str7SmolStrEEENCINvNtNtNtBa_9validator12cedar_schema3ast23deduplicate_annotationsNtB63_9NamespaceE0EEBa_
FNDA:25,_RINvXs3_NtNtCsfZPcC2TrjjJ_17cedar_policy_core3ast10annotationNtB6_11AnnotationsINtNtNtNtCsaNl6UpbT7bw_4core4iter6traits7collect12FromIteratorTNtNtB8_2id5AnyIdNtB6_10AnnotationEE9from_iterINtNtNtB1m_8adapters3map3MapINtNtNtNtCsiTraAjBDcu4_5alloc11collections5btree3map8IntoIterNtNtB3A_6string6StringNtCsbIodQZzabP8_8smol_str7SmolStrENCNvXs_NtNtBa_3pst15ast_conversionsNtNtB8_6policy8TemplateINtNtB1o_7convert7TryFromNtNtB5t_6policy6PolicyE8try_froms0_0EEBa_
FNF:13
FNH:12
DA:33,283
DA:34,298
DA:35,15
DA:37,283
DA:38,283
DA:43,2801
DA:44,2801
DA:45,2801
DA:48,20
DA:49,20
DA:50,20
DA:53,111
DA:54,111
DA:55,111
DA:58,0
DA:59,0
DA:60,0
DA:70,2450
DA:71,2450
DA:72,2450
DA:80,2386
DA:81,2386
DA:82,2386
DA:86,14
DA:87,14
DA:88,14
DA:92,2319
DA:93,2319
DA:94,2319
DA:98,654
DA:99,654
DA:100,654
DA:122,38
DA:123,38
DA:124,38
DA:132,159
DA:133,159
DA:134,159
DA:135,159
DA:136,159
DA:137,159
DA:141,18
DA:142,18
DA:143,18
BRF:0
BRH:0
LF:44
LH:41
end_of_record
SF:/Users/victornl/repos/cedar-spec/cedar/cedar-policy-core/src/ast/entity.rs
FN:154,_RNvMs0_NtNtCsfZPcC2TrjjJ_17cedar_policy_core3ast6entityNtB5_10EntityType19from_normalized_str
FN:123,_RNvMs0_NtNtCsfZPcC2TrjjJ_17cedar_policy_core3ast6entityNtB5_10EntityType3loc
FN:104,_RNvMs0_NtNtCsfZPcC2TrjjJ_17cedar_policy_core3ast6entityNtB5_10EntityType4name
FN:132,_RNvMs0_NtNtCsfZPcC2TrjjJ_17cedar_policy_core3ast6entityNtB5_10EntityType8with_loc
FN:114,_RNvMs0_NtNtCsfZPcC2TrjjJ_17cedar_policy_core3ast6entityNtB5_10EntityType9into_name
FN:93,_RNvMs0_NtNtCsfZPcC2TrjjJ_17cedar_policy_core3ast6entityNtB5_10EntityType9is_action
FN:288,_RNvMsa_NtNtCsfZPcC2TrjjJ_17cedar_policy_core3ast6entityNtB5_9EntityUID16test_entity_type
FN:279,_RNvMsa_NtNtCsfZPcC2TrjjJ_17cedar_policy_core3ast6entityNtB5_9EntityUID8with_eid
FN:307,_RNvMsb_NtNtCsfZPcC2TrjjJ_17cedar_policy_core3ast6entityNtB5_9EntityUID10components
FN:330,_RNvMsb_NtNtCsfZPcC2TrjjJ_17cedar_policy_core3ast6entityNtB5_9EntityUID11entity_type
FN:325,_RNvMsb_NtNtCsfZPcC2TrjjJ_17cedar_policy_core3ast6entityNtB5_9EntityUID15from_components
FN:297,_RNvMsb_NtNtCsfZPcC2TrjjJ_17cedar_policy_core3ast6entityNtB5_9EntityUID17with_eid_and_type
FN:339,_RNvMsb_NtNtCsfZPcC2TrjjJ_17cedar_policy_core3ast6entityNtB5_9EntityUID3eid
FN:316,_RNvMsb_NtNtCsfZPcC2TrjjJ_17cedar_policy_core3ast6entityNtB5_9EntityUID3loc
FN:348,_RNvMsb_NtNtCsfZPcC2TrjjJ_17cedar_policy_core3ast6entityNtB5_9EntityUID9is_action
FN:442,_RNvMsh_NtNtCsfZPcC2TrjjJ_17cedar_policy_core3ast6entityNtB5_3Eid12into_smolstr
FN:433,_RNvMsh_NtNtCsfZPcC2TrjjJ_17cedar_policy_core3ast6entityNtB5_3Eid7escaped
FN:681,_RNvMsk_NtNtCsfZPcC2TrjjJ_17cedar_policy_core3ast6entityNtB5_6Entity10add_parent
FN:700,_RNvMsk_NtNtCsfZPcC2TrjjJ_17cedar_policy_core3ast6entityNtB5_6Entity13remove_parent
FN:581,_RNvMsk_NtNtCsfZPcC2TrjjJ_17cedar_policy_core3ast6entityNtB5_6Entity16is_descendant_of
FN:670,_RNvMsk_NtNtCsfZPcC2TrjjJ_17cedar_policy_core3ast6entityNtB5_6Entity21add_indirect_ancestor
FN:691,_RNvMsk_NtNtCsfZPcC2TrjjJ_17cedar_policy_core3ast6entityNtB5_6Entity24remove_indirect_ancestor
FN:708,_RNvMsk_NtNtCsfZPcC2TrjjJ_17cedar_policy_core3ast6entityNtB5_6Entity29remove_all_indirect_ancestors
FN:571,_RNvMsk_NtNtCsfZPcC2TrjjJ_17cedar_policy_core3ast6entityNtB5_6Entity3get
FN:566,_RNvMsk_NtNtCsfZPcC2TrjjJ_17cedar_policy_core3ast6entityNtB5_6Entity3uid
FN:621,_RNvMsk_NtNtCsfZPcC2TrjjJ_17cedar_policy_core3ast6entityNtB5_6Entity4keys
FN:636,_RNvMsk_NtNtCsfZPcC2TrjjJ_17cedar_policy_core3ast6entityNtB5_6Entity4tags
FN:631,_RNvMsk_NtNtCsfZPcC2TrjjJ_17cedar_policy_core3ast6entityNtB5_6Entity5attrs
FN:656,_RNvMsk_NtNtCsfZPcC2TrjjJ_17cedar_policy_core3ast6entityNtB5_6Entity7deep_eq
FN:576,_RNvMsk_NtNtCsfZPcC2TrjjJ_17cedar_policy_core3ast6entityNtB5_6Entity7get_tag
FN:606,_RNvMsk_NtNtCsfZPcC2TrjjJ_17cedar_policy_core3ast6entityNtB5_6Entity7parents
FN:626,_RNvMsk_NtNtCsfZPcC2TrjjJ_17cedar_policy_core3ast6entityNtB5_6Entity8tag_keys
FN:616,_RNvMsk_NtNtCsfZPcC2TrjjJ_17cedar_policy_core3ast6entityNtB5_6Entity8tags_len
FN:641,_RNvMsk_NtNtCsfZPcC2TrjjJ_17cedar_policy_core3ast6entityNtB5_6Entity8with_uid
FN:596,_RNvMsk_NtNtCsfZPcC2TrjjJ_17cedar_policy_core3ast6entityNtB5_6Entity9ancestors
FN:611,_RNvMsk_NtNtCsfZPcC2TrjjJ_17cedar_policy_core3ast6entityNtB5_6Entity9attrs_len
FN:160,_RNvXs1_NtNtCsfZPcC2TrjjJ_17cedar_policy_core3ast6entityNtB5_10EntityTypeINtNtCsaNl6UpbT7bw_4core7convert4FromNtNtB7_4name4NameE4from
FN:176,_RNvXs3_NtNtCsfZPcC2TrjjJ_17cedar_policy_core3ast6entityNtB5_10EntityTypeINtNtCsaNl6UpbT7bw_4core7convert5AsRefNtNtB7_4name4NameE6as_ref
FN:188,_RNvXs4_NtNtCsfZPcC2TrjjJ_17cedar_policy_core3ast6entityNtB5_10EntityTypeNtNtNtCsaNl6UpbT7bw_4core3str6traits7FromStr8from_str
FN:194,_RNvXs5_NtNtCsfZPcC2TrjjJ_17cedar_policy_core3ast6entityNtB5_10EntityTypeNtNtCsaNl6UpbT7bw_4core3fmt7Display3fmt
FN:262,_RNvXs9_NtNtCsfZPcC2TrjjJ_17cedar_policy_core3ast6entityNtB5_9EntityUIDNtNtB7_5types15StaticallyTyped7type_of
FN:354,_RNvXsc_NtNtCsfZPcC2TrjjJ_17cedar_policy_core3ast6entityNtB5_9EntityUIDNtNtCsaNl6UpbT7bw_4core3fmt7Display3fmt
FN:363,_RNvXsd_NtNtCsfZPcC2TrjjJ_17cedar_policy_core3ast6entityNtB5_9EntityUIDNtNtNtCsaNl6UpbT7bw_4core3str6traits7FromStr8from_str
FN:452,_RNvXsi_NtNtCsfZPcC2TrjjJ_17cedar_policy_core3ast6entityNtB5_3EidINtNtCsaNl6UpbT7bw_4core7convert5AsRefeE6as_ref
FN:759,_RNvXsl_NtNtCsfZPcC2TrjjJ_17cedar_policy_core3ast6entityNtB5_6EntityNtNtCsaNl6UpbT7bw_4core3cmp9PartialEq2eq
FN:777,_RNvXso_NtNtCsfZPcC2TrjjJ_17cedar_policy_core3ast6entityNtB5_6EntityINtNtB9_18transitive_closure6TCNodeNtB5_9EntityUIDE11add_edge_to
FN:785,_RNvXso_NtNtCsfZPcC2TrjjJ_17cedar_policy_core3ast6entityNtB5_6EntityINtNtB9_18transitive_closure6TCNodeNtB5_9EntityUIDE11has_edge_to
FN:789,_RNvXso_NtNtCsfZPcC2TrjjJ_17cedar_policy_core3ast6entityNtB5_6EntityINtNtB9_18transitive_closure6TCNodeNtB5_9EntityUIDE11reset_edges
FN:793,_RNvXso_NtNtCsfZPcC2TrjjJ_17cedar_policy_core3ast6entityNtB5_6EntityINtNtB9_18transitive_closure6TCNodeNtB5_9EntityUIDE12direct_edges
FN:773,_RNvXso_NtNtCsfZPcC2TrjjJ_17cedar_policy_core3ast6entityNtB5_6EntityINtNtB9_18transitive_closure6TCNodeNtB5_9EntityUIDE7get_key
FN:781,_RNvXso_NtNtCsfZPcC2TrjjJ_17cedar_policy_core3ast6entityNtB5_6EntityINtNtB9_18transitive_closure6TCNodeNtB5_9EntityUIDE9out_edges
FN:803,_RNvXsp_NtNtCsfZPcC2TrjjJ_17cedar_policy_core3ast6entityINtNtCsiTraAjBDcu4_5alloc4sync3ArcNtB5_6EntityEINtNtB9_18transitive_closure6TCNodeNtB5_9EntityUIDE11add_edge_to
FN:812,_RNvXsp_NtNtCsfZPcC2TrjjJ_17cedar_policy_core3ast6entityINtNtCsiTraAjBDcu4_5alloc4sync3ArcNtB5_6EntityEINtNtB9_18transitive_closure6TCNodeNtB5_9EntityUIDE11has_edge_to
FN:816,_RNvXsp_NtNtCsfZPcC2TrjjJ_17cedar_policy_core3ast6entityINtNtCsiTraAjBDcu4_5alloc4sync3ArcNtB5_6EntityEINtNtB9_18transitive_closure6TCNodeNtB5_9EntityUIDE11reset_edges
FN:821,_RNvXsp_NtNtCsfZPcC2TrjjJ_17cedar_policy_core3ast6entityINtNtCsiTraAjBDcu4_5alloc4sync3ArcNtB5_6EntityEINtNtB9_18transitive_closure6TCNodeNtB5_9EntityUIDE12direct_edges
FN:799,_RNvXsp_NtNtCsfZPcC2TrjjJ_17cedar_policy_core3ast6entityINtNtCsiTraAjBDcu4_5alloc4sync3ArcNtB5_6EntityEINtNtB9_18transitive_closure6TCNodeNtB5_9EntityUIDE7get_key
FN:808,_RNvXsp_NtNtCsfZPcC2TrjjJ_17cedar_policy_core3ast6entityINtNtCsiTraAjBDcu4_5alloc4sync3ArcNtB5_6EntityEINtNtB9_18transitive_closure6TCNodeNtB5_9EntityUIDE9out_edges
FN:736,_RINvMsk_NtNtCsfZPcC2TrjjJ_17cedar_policy_core3ast6entityNtB6_6Entity13write_to_jsonpEBa_
FN:239,_RINvXs7_NtNtCsfZPcC2TrjjJ_17cedar_policy_core3ast6entityNtB6_9EntityUIDNtNtCsl7c8xoeGAga_10serde_core2de11Deserialize11deserializepEBa_
FN:249,_RINvXs8_NtNtCsfZPcC2TrjjJ_17cedar_policy_core3ast6entityNtB6_9EntityUIDNtNtCsl7c8xoeGAga_10serde_core3ser9Serialize9serializepEBa_
FN:404,_RINvXsf_NtNtCsfZPcC2TrjjJ_17cedar_policy_core3ast6entityNtB6_3EidNtNtCsl7c8xoeGAga_10serde_core2de11Deserialize11deserializepEBa_
FN:414,_RINvXsg_NtNtCsfZPcC2TrjjJ_17cedar_policy_core3ast6entityNtB6_3EidNtNtCsl7c8xoeGAga_10serde_core3ser9Serialize9serializepEBa_
FN:498,_RINvXsj_NtNtCsfZPcC2TrjjJ_17cedar_policy_core3ast6entityNtB6_6EntityNtNtCsaNl6UpbT7bw_4core4hash4Hash4hashpEBa_
FN:834,_RNCNvXsq_NtNtCsfZPcC2TrjjJ_17cedar_policy_core3ast6entityNtB7_6EntityNtNtCsaNl6UpbT7bw_4core3fmt7Display3fmt0Bb_
FN:145,_RNvMs0_NtNtCsfZPcC2TrjjJ_17cedar_policy_core3ast6entityNtB5_10EntityType12qualify_with
FN:222,_RNvMs6_NtNtCsfZPcC2TrjjJ_17cedar_policy_core3ast6entityNtB5_13EntityUIDImpl3loc
FN:717,_RNvMsk_NtNtCsfZPcC2TrjjJ_17cedar_policy_core3ast6entityNtB5_6Entity10into_inner
FN:591,_RNvMsk_NtNtCsfZPcC2TrjjJ_17cedar_policy_core3ast6entityNtB5_6Entity11is_child_of
FN:743,_RNvMsk_NtNtCsfZPcC2TrjjJ_17cedar_policy_core3ast6entityNtB5_6Entity13to_json_value
FN:750,_RNvMsk_NtNtCsfZPcC2TrjjJ_17cedar_policy_core3ast6entityNtB5_6Entity14to_json_string
FN:601,_RNvMsk_NtNtCsfZPcC2TrjjJ_17cedar_policy_core3ast6entityNtB5_6Entity18indirect_ancestors
FN:586,_RNvMsk_NtNtCsfZPcC2TrjjJ_17cedar_policy_core3ast6entityNtB5_6Entity25is_indirect_descendant_of
FN:166,_RNvXs2_NtNtCsfZPcC2TrjjJ_17cedar_policy_core3ast6entityNtNtB7_4name4NameINtNtCsaNl6UpbT7bw_4core7convert4FromNtB5_10EntityTypeE4from
FN:369,_RNvXse_NtNtCsfZPcC2TrjjJ_17cedar_policy_core3ast6entityNtB5_9EntityUIDNtNtB9_19from_normalized_str17FromNormalizedStr13describe_self
FN:767,_RNvXsn_NtNtCsfZPcC2TrjjJ_17cedar_policy_core3ast6entityNtB5_6EntityNtNtB7_5types15StaticallyTyped7type_of
FN:827,_RNvXsq_NtNtCsfZPcC2TrjjJ_17cedar_policy_core3ast6entityNtB5_6EntityNtNtCsaNl6UpbT7bw_4core3fmt7Display3fmt
FN:902,_RNvNtNtNtCsfZPcC2TrjjJ_17cedar_policy_core3ast6entity4tests_14action_checker
FN:873,_RNvNtNtNtCsfZPcC2TrjjJ_17cedar_policy_core3ast6entity4tests_18test_euid_equality
FN:914,_RNvNtNtNtCsfZPcC2TrjjJ_17cedar_policy_core3ast6entity4tests_23action_type_is_valid_id
FN:962,_RNvNtNtNtCsfZPcC2TrjjJ_17cedar_policy_core3ast6entity4tests_25entity_type_serialization
FN:952,_RNvNtNtNtCsfZPcC2TrjjJ_17cedar_policy_core3ast6entity4tests_27entity_type_deserialization
FN:867,_RNvNtNtNtCsfZPcC2TrjjJ_17cedar_policy_core3ast6entity4tests_7display
FN:428,_RINvMsh_NtNtCsfZPcC2TrjjJ_17cedar_policy_core3ast6entityNtB6_3Eid3newNtCsbIodQZzabP8_8smol_str7SmolStrEBa_
FN:428,_RINvMsh_NtNtCsfZPcC2TrjjJ_17cedar_policy_core3ast6entityNtB6_3Eid3newReEBa_
FN:549,_RINvMsk_NtNtCsfZPcC2TrjjJ_17cedar_policy_core3ast6entityNtB6_6Entity27new_with_attr_partial_valueATNtCsbIodQZzabP8_8smol_str7SmolStrNtNtB8_13partial_value12PartialValueEj0_B1x_EBa_
FN:549,_RINvMsk_NtNtCsfZPcC2TrjjJ_17cedar_policy_core3ast6entityNtB6_6Entity27new_with_attr_partial_valueATNtCsbIodQZzabP8_8smol_str7SmolStrNtNtB8_13partial_value12PartialValueEj1_AB1y_j0_EBa_
FN:508,_RINvMsk_NtNtCsfZPcC2TrjjJ_17cedar_policy_core3ast6entityNtB6_6Entity3newATNtCsbIodQZzabP8_8smol_str7SmolStrNtNtB8_15restricted_expr14RestrictedExprEj1_AB19_j0_EBa_
FN:508,_RINvMsk_NtNtCsfZPcC2TrjjJ_17cedar_policy_core3ast6entityNtB6_6Entity3newATNtCsbIodQZzabP8_8smol_str7SmolStrNtNtB8_15restricted_expr14RestrictedExprEj7_AB19_j3_EBa_
FN:508,_RINvMsk_NtNtCsfZPcC2TrjjJ_17cedar_policy_core3ast6entityNtB6_6Entity3newINtNtNtNtCsht3nMU9UgFu_3std11collections4hash3map7HashMapNtCsbIodQZzabP8_8smol_str7SmolStrNtNtB8_15restricted_expr14RestrictedExprEATB23_B2A_Ej0_EBa_
FN:508,_RINvMsk_NtNtCsfZPcC2TrjjJ_17cedar_policy_core3ast6entityNtB6_6Entity3newINtNtNtNtCsht3nMU9UgFu_3std11collections4hash3map7HashMapNtCsbIodQZzabP8_8smol_str7SmolStrNtNtB8_15restricted_expr14RestrictedExprEB18_EBa_
FN:66,_RINvXNtNtCsfZPcC2TrjjJ_17cedar_policy_core3ast6entityNtB3_10EntityTypeNtNtCsl7c8xoeGAga_10serde_core2de11Deserialize11deserializeQINtNtCseVfDaXV4ykk_10serde_json2de12DeserializerNtNtB29_4read7StrReadEEB7_
FN:76,_RINvXs_NtNtCsfZPcC2TrjjJ_17cedar_policy_core3ast6entityNtB5_10EntityTypeNtNtCsl7c8xoeGAga_10serde_core3ser9Serialize9serializeQINtNtCseVfDaXV4ykk_10serde_json3ser10SerializerQINtNtCsiTraAjBDcu4_5alloc3vec3VechEEEB9_
FN:517,_RNCINvMsk_NtNtCsfZPcC2TrjjJ_17cedar_policy_core3ast6entityNtB8_6Entity3newATNtCsbIodQZzabP8_8smol_str7SmolStrNtNtBa_15restricted_expr14RestrictedExprEj1_AB1b_j0_E0Bc_
FN:534,_RNCINvMsk_NtNtCsfZPcC2TrjjJ_17cedar_policy_core3ast6entityNtB8_6Entity3newATNtCsbIodQZzabP8_8smol_str7SmolStrNtNtBa_15restricted_expr14RestrictedExprEj1_AB1b_j0_Es0_0Bc_
FN:530,_RNCINvMsk_NtNtCsfZPcC2TrjjJ_17cedar_policy_core3ast6entityNtB8_6Entity3newATNtCsbIodQZzabP8_8smol_str7SmolStrNtNtBa_15restricted_expr14RestrictedExprEj1_AB1b_j0_Es_0Bc_
FN:517,_RNCINvMsk_NtNtCsfZPcC2TrjjJ_17cedar_policy_core3ast6entityNtB8_6Entity3newATNtCsbIodQZzabP8_8smol_str7SmolStrNtNtBa_15restricted_expr14RestrictedExprEj7_AB1b_j3_E0Bc_
FN:534,_RNCINvMsk_NtNtCsfZPcC2TrjjJ_17cedar_policy_core3ast6entityNtB8_6Entity3newATNtCsbIodQZzabP8_8smol_str7SmolStrNtNtBa_15restricted_expr14RestrictedExprEj7_AB1b_j3_Es0_0Bc_
FN:530,_RNCINvMsk_NtNtCsfZPcC2TrjjJ_17cedar_policy_core3ast6entityNtB8_6Entity3newATNtCsbIodQZzabP8_8smol_str7SmolStrNtNtBa_15restricted_expr14RestrictedExprEj7_AB1b_j3_Es_0Bc_
FN:517,_RNCINvMsk_NtNtCsfZPcC2TrjjJ_17cedar_policy_core3ast6entityNtB8_6Entity3newINtNtNtNtCsht3nMU9UgFu_3std11collections4hash3map7HashMapNtCsbIodQZzabP8_8smol_str7SmolStrNtNtBa_15restricted_expr14RestrictedExprEATB25_B2C_Ej0_E0Bc_
FN:534,_RNCINvMsk_NtNtCsfZPcC2TrjjJ_17cedar_policy_core3ast6entityNtB8_6Entity3newINtNtNtNtCsht3nMU9UgFu_3std11collections4hash3map7HashMapNtCsbIodQZzabP8_8smol_str7SmolStrNtNtBa_15restricted_expr14RestrictedExprEATB25_B2C_Ej0_Es0_0Bc_
FN:530,_RNCINvMsk_NtNtCsfZPcC2TrjjJ_17cedar_policy_core3ast6entityNtB8_6Entity3newINtNtNtNtCsht3nMU9UgFu_3std11collections4hash3map7HashMapNtCsbIodQZzabP8_8smol_str7SmolStrNtNtBa_15restricted_expr14RestrictedExprEATB25_B2C_Ej0_Es_0Bc_
FN:517,_RNCINvMsk_NtNtCsfZPcC2TrjjJ_17cedar_policy_core3ast6entityNtB8_6Entity3newINtNtNtNtCsht3nMU9UgFu_3std11collections4hash3map7HashMapNtCsbIodQZzabP8_8smol_str7SmolStrNtNtBa_15restricted_expr14RestrictedExprEB1a_E0Bc_
FN:534,_RNCINvMsk_NtNtCsfZPcC2TrjjJ_17cedar_policy_core3ast6entityNtB8_6Entity3newINtNtNtNtCsht3nMU9UgFu_3std11collections4hash3map7HashMapNtCsbIodQZzabP8_8smol_str7SmolStrNtNtBa_15restricted_expr14RestrictedExprEB1a_Es0_0Bc_
FN:530,_RNCINvMsk_NtNtCsfZPcC2TrjjJ_17cedar_policy_core3ast6entityNtB8_6Entity3newINtNtNtNtCsht3nMU9UgFu_3std11collections4hash3map7HashMapNtCsbIodQZzabP8_8smol_str7SmolStrNtNtBa_15restricted_expr14RestrictedExprEB1a_Es_0Bc_
FN:521,_RNCNCINvMsk_NtNtCsfZPcC2TrjjJ_17cedar_policy_core3ast6entityNtBa_6Entity3newATNtCsbIodQZzabP8_8smol_str7SmolStrNtNtBc_15restricted_expr14RestrictedExprEj1_AB1d_j0_E00Be_
FN:521,_RNCNCINvMsk_NtNtCsfZPcC2TrjjJ_17cedar_policy_core3ast6entityNtBa_6Entity3newATNtCsbIodQZzabP8_8smol_str7SmolStrNtNtBc_15restricted_expr14RestrictedExprEj7_AB1d_j3_E00Be_
FN:521,_RNCNCINvMsk_NtNtCsfZPcC2TrjjJ_17cedar_policy_core3ast6entityNtBa_6Entity3newINtNtNtNtCsht3nMU9UgFu_3std11collections4hash3map7HashMapNtCsbIodQZzabP8_8smol_str7SmolStrNtNtBc_15restricted_expr14RestrictedExprEATB27_B2E_Ej0_E00Be_
FN:521,_RNCNCINvMsk_NtNtCsfZPcC2TrjjJ_17cedar_policy_core3ast6entityNtBa_6Entity3newINtNtNtNtCsht3nMU9UgFu_3std11collections4hash3map7HashMapNtCsbIodQZzabP8_8smol_str7SmolStrNtNtBc_15restricted_expr14RestrictedExprEB1c_E00Be_
FNDA:31,_RNvMs0_NtNtCsfZPcC2TrjjJ_17cedar_policy_core3ast6entityNtB5_10EntityType19from_normalized_str
FNDA:3191,_RNvMs0_NtNtCsfZPcC2TrjjJ_17cedar_policy_core3ast6entityNtB5_10EntityType3loc
FNDA:19,_RNvMs0_NtNtCsfZPcC2TrjjJ_17cedar_policy_core3ast6entityNtB5_10EntityType4name
FNDA:1584,_RNvMs0_NtNtCsfZPcC2TrjjJ_17cedar_policy_core3ast6entityNtB5_10EntityType8with_loc
FNDA:69,_RNvMs0_NtNtCsfZPcC2TrjjJ_17cedar_policy_core3ast6entityNtB5_10EntityType9into_name
FNDA:2574,_RNvMs0_NtNtCsfZPcC2TrjjJ_17cedar_policy_core3ast6entityNtB5_10EntityType9is_action
FNDA:1202,_RNvMsa_NtNtCsfZPcC2TrjjJ_17cedar_policy_core3ast6entityNtB5_9EntityUID16test_entity_type
FNDA:1197,_RNvMsa_NtNtCsfZPcC2TrjjJ_17cedar_policy_core3ast6entityNtB5_9EntityUID8with_eid
FNDA:290,_RNvMsb_NtNtCsfZPcC2TrjjJ_17cedar_policy_core3ast6entityNtB5_9EntityUID10components
FNDA:10547,_RNvMsb_NtNtCsfZPcC2TrjjJ_17cedar_policy_core3ast6entityNtB5_9EntityUID11entity_type
FNDA:3961,_RNvMsb_NtNtCsfZPcC2TrjjJ_17cedar_policy_core3ast6entityNtB5_9EntityUID15from_components
FNDA:443,_RNvMsb_NtNtCsfZPcC2TrjjJ_17cedar_policy_core3ast6entityNtB5_9EntityUID17with_eid_and_type
FNDA:1016,_RNvMsb_NtNtCsfZPcC2TrjjJ_17cedar_policy_core3ast6entityNtB5_9EntityUID3eid
FNDA:18,_RNvMsb_NtNtCsfZPcC2TrjjJ_17cedar_policy_core3ast6entityNtB5_9EntityUID3loc
FNDA:619,_RNvMsb_NtNtCsfZPcC2TrjjJ_17cedar_policy_core3ast6entityNtB5_9EntityUID9is_action
FNDA:50,_RNvMsh_NtNtCsfZPcC2TrjjJ_17cedar_policy_core3ast6entityNtB5_3Eid12into_smolstr
FNDA:566,_RNvMsh_NtNtCsfZPcC2TrjjJ_17cedar_policy_core3ast6entityNtB5_3Eid7escaped
FNDA:110,_RNvMsk_NtNtCsfZPcC2TrjjJ_17cedar_policy_core3ast6entityNtB5_6Entity10add_parent
FNDA:1,_RNvMsk_NtNtCsfZPcC2TrjjJ_17cedar_policy_core3ast6entityNtB5_6Entity13remove_parent
FNDA:497,_RNvMsk_NtNtCsfZPcC2TrjjJ_17cedar_policy_core3ast6entityNtB5_6Entity16is_descendant_of
FNDA:285,_RNvMsk_NtNtCsfZPcC2TrjjJ_17cedar_policy_core3ast6entityNtB5_6Entity21add_indirect_ancestor
FNDA:4,_RNvMsk_NtNtCsfZPcC2TrjjJ_17cedar_policy_core3ast6entityNtB5_6Entity24remove_indirect_ancestor
FNDA:439,_RNvMsk_NtNtCsfZPcC2TrjjJ_17cedar_policy_core3ast6entityNtB5_6Entity29remove_all_indirect_ancestors
FNDA:51,_RNvMsk_NtNtCsfZPcC2TrjjJ_17cedar_policy_core3ast6entityNtB5_6Entity3get
FNDA:3101,_RNvMsk_NtNtCsfZPcC2TrjjJ_17cedar_policy_core3ast6entityNtB5_6Entity3uid
FNDA:3,_RNvMsk_NtNtCsfZPcC2TrjjJ_17cedar_policy_core3ast6entityNtB5_6Entity4keys
FNDA:23,_RNvMsk_NtNtCsfZPcC2TrjjJ_17cedar_policy_core3ast6entityNtB5_6Entity4tags
FNDA:37,_RNvMsk_NtNtCsfZPcC2TrjjJ_17cedar_policy_core3ast6entityNtB5_6Entity5attrs
FNDA:20,_RNvMsk_NtNtCsfZPcC2TrjjJ_17cedar_policy_core3ast6entityNtB5_6Entity7deep_eq
FNDA:15,_RNvMsk_NtNtCsfZPcC2TrjjJ_17cedar_policy_core3ast6entityNtB5_6Entity7get_tag
FNDA:693,_RNvMsk_NtNtCsfZPcC2TrjjJ_17cedar_policy_core3ast6entityNtB5_6Entity7parents
FNDA:4,_RNvMsk_NtNtCsfZPcC2TrjjJ_17cedar_policy_core3ast6entityNtB5_6Entity8tag_keys
FNDA:4,_RNvMsk_NtNtCsfZPcC2TrjjJ_17cedar_policy_core3ast6entityNtB5_6Entity8tags_len
FNDA:299,_RNvMsk_NtNtCsfZPcC2TrjjJ_17cedar_policy_core3ast6entityNtB5_6Entity8with_uid
FNDA:779,_RNvMsk_NtNtCsfZPcC2TrjjJ_17cedar_policy_core3ast6entityNtB5_6Entity9ancestors
FNDA:3,_RNvMsk_NtNtCsfZPcC2TrjjJ_17cedar_policy_core3ast6entityNtB5_6Entity9attrs_len
FNDA:9915,_RNvXs1_NtNtCsfZPcC2TrjjJ_17cedar_policy_core3ast6entityNtB5_10EntityTypeINtNtCsaNl6UpbT7bw_4core7convert4FromNtNtB7_4name4NameE4from
FNDA:8521,_RNvXs3_NtNtCsfZPcC2TrjjJ_17cedar_policy_core3ast6entityNtB5_10EntityTypeINtNtCsaNl6UpbT7bw_4core7convert5AsRefNtNtB7_4name4NameE6as_ref
FNDA:901,_RNvXs4_NtNtCsfZPcC2TrjjJ_17cedar_policy_core3ast6entityNtB5_10EntityTypeNtNtNtCsaNl6UpbT7bw_4core3str6traits7FromStr8from_str
FNDA:1128,_RNvXs5_NtNtCsfZPcC2TrjjJ_17cedar_policy_core3ast6entityNtB5_10EntityTypeNtNtCsaNl6UpbT7bw_4core3fmt7Display3fmt
FNDA:13,_RNvXs9_NtNtCsfZPcC2TrjjJ_17cedar_policy_core3ast6entityNtB5_9EntityUIDNtNtB7_5types15StaticallyTyped7type_of
FNDA:554,_RNvXsc_NtNtCsfZPcC2TrjjJ_17cedar_policy_core3ast6entityNtB5_9EntityUIDNtNtCsaNl6UpbT7bw_4core3fmt7Display3fmt
FNDA:380,_RNvXsd_NtNtCsfZPcC2TrjjJ_17cedar_policy_core3ast6entityNtB5_9EntityUIDNtNtNtCsaNl6UpbT7bw_4core3str6traits7FromStr8from_str
FNDA:352,_RNvXsi_NtNtCsfZPcC2TrjjJ_17cedar_policy_core3ast6entityNtB5_3EidINtNtCsaNl6UpbT7bw_4core7convert5AsRefeE6as_ref
FNDA:13,_RNvXsl_NtNtCsfZPcC2TrjjJ_17cedar_policy_core3ast6entityNtB5_6EntityNtNtCsaNl6UpbT7bw_4core3cmp9PartialEq2eq
FNDA:141,_RNvXso_NtNtCsfZPcC2TrjjJ_17cedar_policy_core3ast6entityNtB5_6EntityINtNtB9_18transitive_closure6TCNodeNtB5_9EntityUIDE11add_edge_to
FNDA:369,_RNvXso_NtNtCsfZPcC2TrjjJ_17cedar_policy_core3ast6entityNtB5_6EntityINtNtB9_18transitive_closure6TCNodeNtB5_9EntityUIDE11has_edge_to
FNDA:70,_RNvXso_NtNtCsfZPcC2TrjjJ_17cedar_policy_core3ast6entityNtB5_6EntityINtNtB9_18transitive_closure6TCNodeNtB5_9EntityUIDE11reset_edges
FNDA:211,_RNvXso_NtNtCsfZPcC2TrjjJ_17cedar_policy_core3ast6entityNtB5_6EntityINtNtB9_18transitive_closure6TCNodeNtB5_9EntityUIDE12direct_edges
FNDA:210,_RNvXso_NtNtCsfZPcC2TrjjJ_17cedar_policy_core3ast6entityNtB5_6EntityINtNtB9_18transitive_closure6TCNodeNtB5_9EntityUIDE7get_key
FNDA:307,_RNvXso_NtNtCsfZPcC2TrjjJ_17cedar_policy_core3ast6entityNtB5_6EntityINtNtB9_18transitive_closure6TCNodeNtB5_9EntityUIDE9out_edges
FNDA:136,_RNvXsp_NtNtCsfZPcC2TrjjJ_17cedar_policy_core3ast6entityINtNtCsiTraAjBDcu4_5alloc4sync3ArcNtB5_6EntityEINtNtB9_18transitive_closure6TCNodeNtB5_9EntityUIDE11add_edge_to
FNDA:10,_RNvXsp_NtNtCsfZPcC2TrjjJ_17cedar_policy_core3ast6entityINtNtCsiTraAjBDcu4_5alloc4sync3ArcNtB5_6EntityEINtNtB9_18transitive_closure6TCNodeNtB5_9EntityUIDE11has_edge_to
FNDA:369,_RNvXsp_NtNtCsfZPcC2TrjjJ_17cedar_policy_core3ast6entityINtNtCsiTraAjBDcu4_5alloc4sync3ArcNtB5_6EntityEINtNtB9_18transitive_closure6TCNodeNtB5_9EntityUIDE11reset_edges
FNDA:482,_RNvXsp_NtNtCsfZPcC2TrjjJ_17cedar_policy_core3ast6entityINtNtCsiTraAjBDcu4_5alloc4sync3ArcNtB5_6EntityEINtNtB9_18transitive_closure6TCNodeNtB5_9EntityUIDE12direct_edges
FNDA:1119,_RNvXsp_NtNtCsfZPcC2TrjjJ_17cedar_policy_core3ast6entityINtNtCsiTraAjBDcu4_5alloc4sync3ArcNtB5_6EntityEINtNtB9_18transitive_closure6TCNodeNtB5_9EntityUIDE7get_key
FNDA:413,_RNvXsp_NtNtCsfZPcC2TrjjJ_17cedar_policy_core3ast6entityINtNtCsiTraAjBDcu4_5alloc4sync3ArcNtB5_6EntityEINtNtB9_18transitive_closure6TCNodeNtB5_9EntityUIDE9out_edges
FNDA:0,_RINvMsk_NtNtCsfZPcC2TrjjJ_17cedar_policy_core3ast6entityNtB6_6Entity13write_to_jsonpEBa_
FNDA:0,_RINvXs7_NtNtCsfZPcC2TrjjJ_17cedar_policy_core3ast6entityNtB6_9EntityUIDNtNtCsl7c8xoeGAga_10serde_core2de11Deserialize11deserializepEBa_
FNDA:0,_RINvXs8_NtNtCsfZPcC2TrjjJ_17cedar_policy_core3ast6entityNtB6_9EntityUIDNtNtCsl7c8xoeGAga_10serde_core3ser9Serialize9serializepEBa_
FNDA:0,_RINvXsf_NtNtCsfZPcC2TrjjJ_17cedar_policy_core3ast6entityNtB6_3EidNtNtCsl7c8xoeGAga_10serde_core2de11Deserialize11deserializepEBa_
FNDA:0,_RINvXsg_NtNtCsfZPcC2TrjjJ_17cedar_policy_core3ast6entityNtB6_3EidNtNtCsl7c8xoeGAga_10serde_core3ser9Serialize9serializepEBa_
FNDA:0,_RINvXsj_NtNtCsfZPcC2TrjjJ_17cedar_policy_core3ast6entityNtB6_6EntityNtNtCsaNl6UpbT7bw_4core4hash4Hash4hashpEBa_
FNDA:0,_RNCNvXsq_NtNtCsfZPcC2TrjjJ_17cedar_policy_core3ast6entityNtB7_6EntityNtNtCsaNl6UpbT7bw_4core3fmt7Display3fmt0Bb_
FNDA:0,_RNvMs0_NtNtCsfZPcC2TrjjJ_17cedar_policy_core3ast6entityNtB5_10EntityType12qualify_with
FNDA:0,_RNvMs6_NtNtCsfZPcC2TrjjJ_17cedar_policy_core3ast6entityNtB5_13EntityUIDImpl3loc
FNDA:0,_RNvMsk_NtNtCsfZPcC2TrjjJ_17cedar_policy_core3ast6entityNtB5_6Entity10into_inner
FNDA:0,_RNvMsk_NtNtCsfZPcC2TrjjJ_17cedar_policy_core3ast6entityNtB5_6Entity11is_child_of
FNDA:0,_RNvMsk_NtNtCsfZPcC2TrjjJ_17cedar_policy_core3ast6entityNtB5_6Entity13to_json_value
FNDA:0,_RNvMsk_NtNtCsfZPcC2TrjjJ_17cedar_policy_core3ast6entityNtB5_6Entity14to_json_string
FNDA:0,_RNvMsk_NtNtCsfZPcC2TrjjJ_17cedar_policy_core3ast6entityNtB5_6Entity18indirect_ancestors
FNDA:0,_RNvMsk_NtNtCsfZPcC2TrjjJ_17cedar_policy_core3ast6entityNtB5_6Entity25is_indirect_descendant_of
FNDA:0,_RNvXs2_NtNtCsfZPcC2TrjjJ_17cedar_policy_core3ast6entityNtNtB7_4name4NameINtNtCsaNl6UpbT7bw_4core7convert4FromNtB5_10EntityTypeE4from
FNDA:0,_RNvXse_NtNtCsfZPcC2TrjjJ_17cedar_policy_core3ast6entityNtB5_9EntityUIDNtNtB9_19from_normalized_str17FromNormalizedStr13describe_self
FNDA:0,_RNvXsn_NtNtCsfZPcC2TrjjJ_17cedar_policy_core3ast6entityNtB5_6EntityNtNtB7_5types15StaticallyTyped7type_of
FNDA:0,_RNvXsq_NtNtCsfZPcC2TrjjJ_17cedar_policy_core3ast6entityNtB5_6EntityNtNtCsaNl6UpbT7bw_4core3fmt7Display3fmt
FNDA:1,_RNvNtNtNtCsfZPcC2TrjjJ_17cedar_policy_core3ast6entity4tests_14action_checker
FNDA:1,_RNvNtNtNtCsfZPcC2TrjjJ_17cedar_policy_core3ast6entity4tests_18test_euid_equality
FNDA:1,_RNvNtNtNtCsfZPcC2TrjjJ_17cedar_policy_core3ast6entity4tests_23action_type_is_valid_id
FNDA:1,_RNvNtNtNtCsfZPcC2TrjjJ_17cedar_policy_core3ast6entity4tests_25entity_type_serialization
FNDA:1,_RNvNtNtNtCsfZPcC2TrjjJ_17cedar_policy_core3ast6entity4tests_27entity_type_deserialization
FNDA:1,_RNvNtNtNtCsfZPcC2TrjjJ_17cedar_policy_core3ast6entity4tests_7display
FNDA:3945,_RINvMsh_NtNtCsfZPcC2TrjjJ_17cedar_policy_core3ast6entityNtB6_3Eid3newNtCsbIodQZzabP8_8smol_str7SmolStrEBa_
FNDA:44,_RINvMsh_NtNtCsfZPcC2TrjjJ_17cedar_policy_core3ast6entityNtB6_3Eid3newReEBa_
FNDA:1133,_RINvMsk_NtNtCsfZPcC2TrjjJ_17cedar_policy_core3ast6entityNtB6_6Entity27new_with_attr_partial_valueATNtCsbIodQZzabP8_8smol_str7SmolStrNtNtB8_13partial_value12PartialValueEj0_B1x_EBa_
FNDA:7,_RINvMsk_NtNtCsfZPcC2TrjjJ_17cedar_policy_core3ast6entityNtB6_6Entity27new_with_attr_partial_valueATNtCsbIodQZzabP8_8smol_str7SmolStrNtNtB8_13partial_value12PartialValueEj1_AB1y_j0_EBa_
FNDA:1,_RINvMsk_NtNtCsfZPcC2TrjjJ_17cedar_policy_core3ast6entityNtB6_6Entity3newATNtCsbIodQZzabP8_8smol_str7SmolStrNtNtB8_15restricted_expr14RestrictedExprEj1_AB19_j0_EBa_
FNDA:1,_RINvMsk_NtNtCsfZPcC2TrjjJ_17cedar_policy_core3ast6entityNtB6_6Entity3newATNtCsbIodQZzabP8_8smol_str7SmolStrNtNtB8_15restricted_expr14RestrictedExprEj7_AB19_j3_EBa_
FNDA:1,_RINvMsk_NtNtCsfZPcC2TrjjJ_17cedar_policy_core3ast6entityNtB6_6Entity3newINtNtNtNtCsht3nMU9UgFu_3std11collections4hash3map7HashMapNtCsbIodQZzabP8_8smol_str7SmolStrNtNtB8_15restricted_expr14RestrictedExprEATB23_B2A_Ej0_EBa_
FNDA:147,_RINvMsk_NtNtCsfZPcC2TrjjJ_17cedar_policy_core3ast6entityNtB6_6Entity3newINtNtNtNtCsht3nMU9UgFu_3std11collections4hash3map7HashMapNtCsbIodQZzabP8_8smol_str7SmolStrNtNtB8_15restricted_expr14RestrictedExprEB18_EBa_
FNDA:1,_RINvXNtNtCsfZPcC2TrjjJ_17cedar_policy_core3ast6entityNtB3_10EntityTypeNtNtCsl7c8xoeGAga_10serde_core2de11Deserialize11deserializeQINtNtCseVfDaXV4ykk_10serde_json2de12DeserializerNtNtB29_4read7StrReadEEB7_
FNDA:1,_RINvXs_NtNtCsfZPcC2TrjjJ_17cedar_policy_core3ast6entityNtB5_10EntityTypeNtNtCsl7c8xoeGAga_10serde_core3ser9Serialize9serializeQINtNtCseVfDaXV4ykk_10serde_json3ser10SerializerQINtNtCsiTraAjBDcu4_5alloc3vec3VechEEEB9_
FNDA:1,_RNCINvMsk_NtNtCsfZPcC2TrjjJ_17cedar_policy_core3ast6entityNtB8_6Entity3newATNtCsbIodQZzabP8_8smol_str7SmolStrNtNtBa_15restricted_expr14RestrictedExprEj1_AB1b_j0_E0Bc_
FNDA:0,_RNCINvMsk_NtNtCsfZPcC2TrjjJ_17cedar_policy_core3ast6entityNtB8_6Entity3newATNtCsbIodQZzabP8_8smol_str7SmolStrNtNtBa_15restricted_expr14RestrictedExprEj1_AB1b_j0_Es0_0Bc_
FNDA:1,_RNCINvMsk_NtNtCsfZPcC2TrjjJ_17cedar_policy_core3ast6entityNtB8_6Entity3newATNtCsbIodQZzabP8_8smol_str7SmolStrNtNtBa_15restricted_expr14RestrictedExprEj1_AB1b_j0_Es_0Bc_
FNDA:10,_RNCINvMsk_NtNtCsfZPcC2TrjjJ_17cedar_policy_core3ast6entityNtB8_6Entity3newATNtCsbIodQZzabP8_8smol_str7SmolStrNtNtBa_15restricted_expr14RestrictedExprEj7_AB1b_j3_E0Bc_
FNDA:3,_RNCINvMsk_NtNtCsfZPcC2TrjjJ_17cedar_policy_core3ast6entityNtB8_6Entity3newATNtCsbIodQZzabP8_8smol_str7SmolStrNtNtBa_15restricted_expr14RestrictedExprEj7_AB1b_j3_Es0_0Bc_
FNDA:7,_RNCINvMsk_NtNtCsfZPcC2TrjjJ_17cedar_policy_core3ast6entityNtB8_6Entity3newATNtCsbIodQZzabP8_8smol_str7SmolStrNtNtBa_15restricted_expr14RestrictedExprEj7_AB1b_j3_Es_0Bc_
FNDA:7,_RNCINvMsk_NtNtCsfZPcC2TrjjJ_17cedar_policy_core3ast6entityNtB8_6Entity3newINtNtNtNtCsht3nMU9UgFu_3std11collections4hash3map7HashMapNtCsbIodQZzabP8_8smol_str7SmolStrNtNtBa_15restricted_expr14RestrictedExprEATB25_B2C_Ej0_E0Bc_
FNDA:0,_RNCINvMsk_NtNtCsfZPcC2TrjjJ_17cedar_policy_core3ast6entityNtB8_6Entity3newINtNtNtNtCsht3nMU9UgFu_3std11collections4hash3map7HashMapNtCsbIodQZzabP8_8smol_str7SmolStrNtNtBa_15restricted_expr14RestrictedExprEATB25_B2C_Ej0_Es0_0Bc_
FNDA:7,_RNCINvMsk_NtNtCsfZPcC2TrjjJ_17cedar_policy_core3ast6entityNtB8_6Entity3newINtNtNtNtCsht3nMU9UgFu_3std11collections4hash3map7HashMapNtCsbIodQZzabP8_8smol_str7SmolStrNtNtBa_15restricted_expr14RestrictedExprEATB25_B2C_Ej0_Es_0Bc_
FNDA:254,_RNCINvMsk_NtNtCsfZPcC2TrjjJ_17cedar_policy_core3ast6entityNtB8_6Entity3newINtNtNtNtCsht3nMU9UgFu_3std11collections4hash3map7HashMapNtCsbIodQZzabP8_8smol_str7SmolStrNtNtBa_15restricted_expr14RestrictedExprEB1a_E0Bc_
FNDA:23,_RNCINvMsk_NtNtCsfZPcC2TrjjJ_17cedar_policy_core3ast6entityNtB8_6Entity3newINtNtNtNtCsht3nMU9UgFu_3std11collections4hash3map7HashMapNtCsbIodQZzabP8_8smol_str7SmolStrNtNtBa_15restricted_expr14RestrictedExprEB1a_Es0_0Bc_
FNDA:231,_RNCINvMsk_NtNtCsfZPcC2TrjjJ_17cedar_policy_core3ast6entityNtB8_6Entity3newINtNtNtNtCsht3nMU9UgFu_3std11collections4hash3map7HashMapNtCsbIodQZzabP8_8smol_str7SmolStrNtNtBa_15restricted_expr14RestrictedExprEB1a_Es_0Bc_
FNDA:0,_RNCNCINvMsk_NtNtCsfZPcC2TrjjJ_17cedar_policy_core3ast6entityNtBa_6Entity3newATNtCsbIodQZzabP8_8smol_str7SmolStrNtNtBc_15restricted_expr14RestrictedExprEj1_AB1d_j0_E00Be_
FNDA:0,_RNCNCINvMsk_NtNtCsfZPcC2TrjjJ_17cedar_policy_core3ast6entityNtBa_6Entity3newATNtCsbIodQZzabP8_8smol_str7SmolStrNtNtBc_15restricted_expr14RestrictedExprEj7_AB1d_j3_E00Be_
FNDA:0,_RNCNCINvMsk_NtNtCsfZPcC2TrjjJ_17cedar_policy_core3ast6entityNtBa_6Entity3newINtNtNtNtCsht3nMU9UgFu_3std11collections4hash3map7HashMapNtCsbIodQZzabP8_8smol_str7SmolStrNtNtBc_15restricted_expr14RestrictedExprEATB27_B2E_Ej0_E00Be_
FNDA:0,_RNCNCINvMsk_NtNtCsfZPcC2TrjjJ_17cedar_policy_core3ast6entityNtBa_6Entity3newINtNtNtNtCsht3nMU9UgFu_3std11collections4hash3map7HashMapNtCsbIodQZzabP8_8smol_str7SmolStrNtNtBc_15restricted_expr14RestrictedExprEB1c_E00Be_
FNF:91
FNH:71
DA:66,1
DA:67,1
DA:68,1
DA:70,1
DA:71,1
DA:72,1
DA:76,1
DA:77,1
DA:78,1
DA:80,1
DA:81,1
DA:85,1
DA:93,2574
DA:94,2574
DA:95,2574
DA:96,2574
DA:101,2574
DA:104,19
DA:105,19
DA:106,19
DA:110,19
DA:114,69
DA:115,69
DA:116,69
DA:120,69
DA:123,3191
DA:124,3191
DA:125,3191
DA:129,3191
DA:132,1584
DA:133,1584
DA:134,1584
DA:135,1584
DA:136,1584
DA:137,1584
DA:138,1584
DA:142,1584
DA:145,0
DA:146,0
DA:147,0
DA:151,0
DA:154,31
DA:155,31
DA:156,31
DA:160,9915
DA:161,9915
DA:162,9915
DA:166,0
DA:167,0
DA:168,0
DA:172,0
DA:176,8521
DA:177,8521
DA:178,8521
DA:182,8521
DA:188,901
DA:189,901
DA:190,901
DA:194,1128
DA:195,1128
DA:196,1128
DA:200,1128
DA:222,0
DA:223,0
DA:224,0
DA:239,0
DA:240,0
DA:241,0
DA:243,0
DA:244,0
DA:245,0
DA:249,0
DA:250,0
DA:251,0
DA:253,0
DA:254,0
DA:258,0
DA:262,13
DA:263,13
DA:264,13
DA:265,13
DA:266,13
DA:272,13
DA:279,1197
DA:280,1197
DA:281,1197
DA:282,1197
DA:283,1197
DA:284,1197
DA:285,1197
DA:288,1202
DA:289,1202
DA:290,1202
DA:291,1202
DA:292,1202
DA:297,443
DA:299,443
DA:300,443
DA:301,443
DA:303,443
DA:307,290
DA:308,290
DA:309,290
DA:313,290
DA:316,18
DA:317,18
DA:318,18
DA:322,18
DA:325,3961
DA:326,3961
DA:327,3961
DA:330,10547
DA:331,10547
DA:332,10547
DA:336,10547
DA:339,1016
DA:340,1016
DA:341,1016
DA:345,1016
DA:348,619
DA:349,619
DA:350,619
DA:354,554
DA:355,554
DA:356,554
DA:363,380
DA:364,380
DA:365,380
DA:369,0
DA:370,0
DA:371,0
DA:404,0
DA:405,0
DA:406,0
DA:408,0
DA:409,0
DA:410,0
DA:414,0
DA:415,0
DA:416,0
DA:418,0
DA:419,0
DA:423,0
DA:428,3989
DA:429,3989
DA:430,3989
DA:433,566
DA:434,566
DA:435,566
DA:439,566
DA:442,50
DA:443,50
DA:444,50
DA:448,50
DA:452,352
DA:453,352
DA:454,352
DA:458,352
DA:498,0
DA:499,0
DA:500,0
DA:508,150
DA:509,150
DA:510,150
DA:511,150
DA:512,150
DA:513,150
DA:514,150
DA:515,150
DA:516,150
DA:517,272
DA:518,272
DA:519,272
DA:520,272
DA:521,0
DA:522,0
DA:523,0
DA:524,0
DA:525,0
DA:526,272
DA:527,272
DA:528,150
DA:529,150
DA:530,246
DA:531,150
DA:532,150
DA:533,150
DA:534,150
DA:535,150
DA:536,150
DA:537,150
DA:538,150
DA:539,150
DA:540,150
DA:541,150
DA:542,150
DA:543,150
DA:549,1140
DA:550,1140
DA:551,1140
DA:552,1140
DA:553,1140
DA:554,1140
DA:555,1140
DA:556,1140
DA:557,1140
DA:558,1140
DA:559,1140
DA:560,1140
DA:561,1140
DA:562,1140
DA:563,1140
DA:566,3101
DA:567,3101
DA:568,3101
DA:571,51
DA:572,51
DA:573,51
DA:576,15
DA:577,15
DA:578,15
DA:581,497
DA:582,497
DA:583,497
DA:586,0
DA:587,0
DA:588,0
DA:591,0
DA:592,0
DA:593,0
DA:596,779
DA:597,779
DA:598,779
DA:601,0
DA:602,0
DA:603,0
DA:606,693
DA:607,693
DA:608,693
DA:611,3
DA:612,3
DA:613,3
DA:616,4
DA:617,4
DA:618,4
DA:621,3
DA:622,3
DA:623,3
DA:626,4
DA:627,4
DA:628,4
DA:631,37
DA:632,37
DA:633,37
DA:636,23
DA:637,23
DA:638,23
DA:641,299
DA:642,299
DA:643,299
DA:644,299
DA:645,299
DA:646,299
DA:647,299
DA:648,299
DA:649,299
DA:656,20
DA:657,20
DA:658,20
DA:659,13
DA:660,12
DA:661,12
DA:662,20
DA:670,285
DA:671,285
DA:672,118
DA:673,167
DA:674,285
DA:681,110
DA:682,110
DA:683,110
DA:684,110
DA:691,4
DA:692,4
DA:693,4
DA:700,1
DA:701,1
DA:702,1
DA:708,439
DA:709,439
DA:710,439
DA:717,0
DA:718,0
DA:719,0
DA:720,0
DA:721,0
DA:722,0
DA:723,0
DA:724,0
DA:725,0
DA:726,0
DA:727,0
DA:728,0
DA:729,0
DA:730,0
DA:731,0
DA:732,0
DA:733,0
DA:736,0
DA:737,0
DA:738,0
DA:739,0
DA:740,0
DA:743,0
DA:744,0
DA:745,0
DA:746,0
DA:747,0
DA:750,0
DA:751,0
DA:752,0
DA:753,0
DA:754,0
DA:759,13
DA:760,13
DA:761,13
DA:767,0
DA:768,0
DA:769,0
DA:773,210
DA:774,210
DA:775,210
DA:777,141
DA:778,141
DA:779,141
DA:781,307
DA:782,307
DA:783,307
DA:785,369
DA:786,369
DA:787,369
DA:789,70
DA:790,70
DA:791,70
DA:793,211
DA:794,211
DA:795,211
DA:799,1119
DA:800,1119
DA:801,1119
DA:803,136
DA:805,136
DA:806,136
DA:808,413
DA:809,413
DA:810,413
DA:812,10
DA:813,10
DA:814,10
DA:816,369
DA:818,369
DA:819,369
DA:821,482
DA:822,482
DA:823,482
DA:827,0
DA:828,0
DA:829,0
DA:830,0
DA:832,0
DA:833,0
DA:834,0
DA:835,0
DA:836,0
DA:838,0
DA:867,1
DA:868,1
DA:869,1
DA:870,1
DA:873,1
DA:874,1
DA:875,1
DA:876,1
DA:877,1
DA:878,1
DA:879,1
DA:880,1
DA:882,1
DA:883,1
DA:884,1
DA:885,1
DA:886,1
DA:887,1
DA:891,1
DA:892,1
DA:895,1
DA:898,1
DA:899,1
DA:902,1
DA:903,1
DA:904,1
DA:905,1
DA:906,1
DA:907,1
DA:908,1
DA:909,1
DA:910,1
DA:911,1
DA:914,1
DA:915,1
DA:916,1
DA:952,1
DA:953,1
DA:954,1
DA:955,1
DA:956,1
DA:957,1
DA:959,1
DA:962,1
DA:963,1
DA:964,1
DA:965,1
DA:966,1
DA:968,1
DA:969,1
BRF:0
BRH:0
LF:430
LH:328
end_of_record
SF:/Users/victornl/repos/cedar-spec/cedar/cedar-policy-core/src/ast/expr.rs
FN:1432,_RINvXININtNtCsfZPcC2TrjjJ_17cedar_policy_core3ast4exprsh_0pEINtB6_13ExprShapeOnlypENtNtCsaNl6UpbT7bw_4core4hash4Hash4hashpEBa_
FN:309,_RNCNvMs2_NtNtCsfZPcC2TrjjJ_17cedar_policy_core3ast4exprINtB7_4ExprpE10is_ref_set0Bb_
FN:1390,_RNvMNtNtNtCsfZPcC2TrjjJ_17cedar_policy_core3ast4expr30expression_construction_errorsNtB2_17DuplicateKeyError3key
FN:267,_RNvMs2_NtNtCsfZPcC2TrjjJ_17cedar_policy_core3ast4exprINtB5_4ExprpE10into_partsB9_
FN:307,_RNvMs2_NtNtCsfZPcC2TrjjJ_17cedar_policy_core3ast4exprINtB5_4ExprpE10is_ref_setB9_
FN:291,_RNvMs2_NtNtCsfZPcC2TrjjJ_17cedar_policy_core3ast4exprINtB5_4ExprpE6is_refB9_
FN:299,_RNvMs2_NtNtCsfZPcC2TrjjJ_17cedar_policy_core3ast4exprINtB5_4ExprpE7is_slotB9_
FN:759,_RNvMs3_NtNtCsfZPcC2TrjjJ_17cedar_policy_core3ast4exprNtB5_4Expr10substitute
FN:1017,_RNvXININtNtCsfZPcC2TrjjJ_17cedar_policy_core3ast4exprsb_0pEINtB5_11ExprBuilderpENtNtB9_12expr_builder11ExprBuilder4dataB9_
FN:984,_RNvXsa_NtNtCsfZPcC2TrjjJ_17cedar_policy_core3ast4exprNtB5_7UnknownNtNtCsaNl6UpbT7bw_4core3fmt7Display3fmt
FN:687,_RNvMs3_NtNtCsfZPcC2TrjjJ_17cedar_policy_core3ast4exprNtB5_4Expr10record_arc
FN:642,_RNvMs3_NtNtCsfZPcC2TrjjJ_17cedar_policy_core3ast4exprNtB5_4Expr12contains_all
FN:647,_RNvMs3_NtNtCsfZPcC2TrjjJ_17cedar_policy_core3ast4exprNtB5_4Expr12contains_any
FN:732,_RNvMs3_NtNtCsfZPcC2TrjjJ_17cedar_policy_core3ast4exprNtB5_4Expr14is_entity_type
FN:737,_RNvMs3_NtNtCsfZPcC2TrjjJ_17cedar_policy_core3ast4exprNtB5_4Expr16contains_unknown
FN:774,_RNvMs3_NtNtCsfZPcC2TrjjJ_17cedar_policy_core3ast4exprNtB5_4Expr16substitute_typed
FN:693,_RNvMs3_NtNtCsfZPcC2TrjjJ_17cedar_policy_core3ast4exprNtB5_4Expr17call_extension_fn
FN:584,_RNvMs3_NtNtCsfZPcC2TrjjJ_17cedar_policy_core3ast4exprNtB5_4Expr2or
FN:609,_RNvMs3_NtNtCsfZPcC2TrjjJ_17cedar_policy_core3ast4exprNtB5_4Expr3add
FN:579,_RNvMs3_NtNtCsfZPcC2TrjjJ_17cedar_policy_core3ast4exprNtB5_4Expr3and
FN:552,_RNvMs3_NtNtCsfZPcC2TrjjJ_17cedar_policy_core3ast4exprNtB5_4Expr3ite
FN:619,_RNvMs3_NtNtCsfZPcC2TrjjJ_17cedar_policy_core3ast4exprNtB5_4Expr3mul
FN:624,_RNvMs3_NtNtCsfZPcC2TrjjJ_17cedar_policy_core3ast4exprNtB5_4Expr3neg
FN:564,_RNvMs3_NtNtCsfZPcC2TrjjJ_17cedar_policy_core3ast4exprNtB5_4Expr3not
FN:614,_RNvMs3_NtNtCsfZPcC2TrjjJ_17cedar_policy_core3ast4exprNtB5_4Expr3sub
FN:540,_RNvMs3_NtNtCsfZPcC2TrjjJ_17cedar_policy_core3ast4exprNtB5_4Expr3var
FN:589,_RNvMs3_NtNtCsfZPcC2TrjjJ_17cedar_policy_core3ast4exprNtB5_4Expr4less
FN:727,_RNvMs3_NtNtCsfZPcC2TrjjJ_17cedar_policy_core3ast4exprNtB5_4Expr4like
FN:545,_RNvMs3_NtNtCsfZPcC2TrjjJ_17cedar_policy_core3ast4exprNtB5_4Expr4slot
FN:569,_RNvMs3_NtNtCsfZPcC2TrjjJ_17cedar_policy_core3ast4exprNtB5_4Expr5is_eq
FN:631,_RNvMs3_NtNtCsfZPcC2TrjjJ_17cedar_policy_core3ast4exprNtB5_4Expr5is_in
FN:574,_RNvMs3_NtNtCsfZPcC2TrjjJ_17cedar_policy_core3ast4exprNtB5_4Expr5noteq
FN:594,_RNvMs3_NtNtCsfZPcC2TrjjJ_17cedar_policy_core3ast4exprNtB5_4Expr6lesseq
FN:658,_RNvMs3_NtNtCsfZPcC2TrjjJ_17cedar_policy_core3ast4exprNtB5_4Expr7get_tag
FN:599,_RNvMs3_NtNtCsfZPcC2TrjjJ_17cedar_policy_core3ast4exprNtB5_4Expr7greater
FN:664,_RNvMs3_NtNtCsfZPcC2TrjjJ_17cedar_policy_core3ast4exprNtB5_4Expr7has_tag
FN:559,_RNvMs3_NtNtCsfZPcC2TrjjJ_17cedar_policy_core3ast4exprNtB5_4Expr7ite_arc
FN:535,_RNvMs3_NtNtCsfZPcC2TrjjJ_17cedar_policy_core3ast4exprNtB5_4Expr7unknown
FN:637,_RNvMs3_NtNtCsfZPcC2TrjjJ_17cedar_policy_core3ast4exprNtB5_4Expr8contains
FN:712,_RNvMs3_NtNtCsfZPcC2TrjjJ_17cedar_policy_core3ast4exprNtB5_4Expr8get_attr
FN:720,_RNvMs3_NtNtCsfZPcC2TrjjJ_17cedar_policy_core3ast4exprNtB5_4Expr8has_attr
FN:652,_RNvMs3_NtNtCsfZPcC2TrjjJ_17cedar_policy_core3ast4exprNtB5_4Expr8is_empty
FN:743,_RNvMs3_NtNtCsfZPcC2TrjjJ_17cedar_policy_core3ast4exprNtB5_4Expr8unknowns
FN:604,_RNvMs3_NtNtCsfZPcC2TrjjJ_17cedar_policy_core3ast4exprNtB5_4Expr9greatereq
FN:205,_RNvXs0_NtNtCsfZPcC2TrjjJ_17cedar_policy_core3ast4exprNtB5_4ExprINtNtCsaNl6UpbT7bw_4core7convert4FromNtNtB7_5value9ValueKindE4from
FN:225,_RNvXs1_NtNtCsfZPcC2TrjjJ_17cedar_policy_core3ast4exprNtB5_4ExprINtNtCsaNl6UpbT7bw_4core7convert4FromNtNtB7_13partial_value12PartialValueE4from
FN:885,_RNvXs4_NtNtCsfZPcC2TrjjJ_17cedar_policy_core3ast4exprNtB5_17TypedSubstitutionNtB5_20SubstitutionFunction10substitute
FN:908,_RNvXs5_NtNtCsfZPcC2TrjjJ_17cedar_policy_core3ast4exprNtB5_19UntypedSubstitutionNtB5_20SubstitutionFunction10substitute
FN:935,_RNvXs8_NtNtCsfZPcC2TrjjJ_17cedar_policy_core3ast4exprNtB5_4ExprNtNtNtCsaNl6UpbT7bw_4core3str6traits7FromStr8from_str
FN:199,_RNvXs_NtNtCsfZPcC2TrjjJ_17cedar_policy_core3ast4exprNtB4_4ExprINtNtCsaNl6UpbT7bw_4core7convert4FromNtNtB6_5value5ValueE4from
FN:1821,_RNvXsl_NtNtCsfZPcC2TrjjJ_17cedar_policy_core3ast4exprNtB5_3VarINtNtCsaNl6UpbT7bw_4core7convert4FromNtNtB7_6policy19PrincipalOrResourceE4from
FN:1858,_RNvXso_NtNtCsfZPcC2TrjjJ_17cedar_policy_core3ast4exprNtB5_3VarNtNtCsaNl6UpbT7bw_4core3fmt7Display3fmt
FN:1834,_RNvXsm_NtNtCsfZPcC2TrjjJ_17cedar_policy_core3ast4exprNtNtB7_2id2IdINtNtCsaNl6UpbT7bw_4core7convert4FromNtB5_3VarE4from
FN:1848,_RNvXsn_NtNtCsfZPcC2TrjjJ_17cedar_policy_core3ast4exprNtNtB7_2id12UnreservedIdINtNtCsaNl6UpbT7bw_4core7convert4FromNtB5_3VarE4from
FN:437,_RINvMs2_NtNtCsfZPcC2TrjjJ_17cedar_policy_core3ast4exprINtB6_4ExprINtNtCsaNl6UpbT7bw_4core6option6OptionNtNtNtBa_9validator5types4TypeEE9into_exprINtB6_11ExprBuilderuEEBa_
FN:437,_RINvMs2_NtNtCsfZPcC2TrjjJ_17cedar_policy_core3ast4exprINtB6_4ExprINtNtCsaNl6UpbT7bw_4core6option6OptionNtNtNtBa_9validator5types4TypeEE9into_exprNtNtNtBa_3est4expr7BuilderEBa_
FN:437,_RINvMs2_NtNtCsfZPcC2TrjjJ_17cedar_policy_core3ast4exprNtB6_4Expr9into_exprNtNtNtBa_3est4expr7BuilderEBa_
FN:437,_RINvMs2_NtNtCsfZPcC2TrjjJ_17cedar_policy_core3ast4exprNtB6_4Expr9into_exprNtNtNtBa_3pst4expr10PstBuilderEBa_
FN:705,_RINvMs3_NtNtCsfZPcC2TrjjJ_17cedar_policy_core3ast4exprNtB6_4Expr10binary_appNtNtB8_3ops8BinaryOpEBa_
FN:784,_RINvMs3_NtNtCsfZPcC2TrjjJ_17cedar_policy_core3ast4exprNtB6_4Expr18substitute_generalNtB6_17TypedSubstitutionEBa_
FN:669,_RINvMs3_NtNtCsfZPcC2TrjjJ_17cedar_policy_core3ast4exprNtB6_4Expr3setABQ_j0_EBa_
FN:669,_RINvMs3_NtNtCsfZPcC2TrjjJ_17cedar_policy_core3ast4exprNtB6_4Expr3setABQ_j1_EBa_
FN:669,_RINvMs3_NtNtCsfZPcC2TrjjJ_17cedar_policy_core3ast4exprNtB6_4Expr3setABQ_j2_EBa_
FN:669,_RINvMs3_NtNtCsfZPcC2TrjjJ_17cedar_policy_core3ast4exprNtB6_4Expr3setABQ_j3_EBa_
FN:669,_RINvMs3_NtNtCsfZPcC2TrjjJ_17cedar_policy_core3ast4exprNtB6_4Expr3setINtNtCsiTraAjBDcu4_5alloc3vec3VecBQ_EEBa_
FN:669,_RINvMs3_NtNtCsfZPcC2TrjjJ_17cedar_policy_core3ast4exprNtB6_4Expr3setINtNtNtCsiTraAjBDcu4_5alloc3vec9into_iter8IntoIterBQ_EEBa_
FN:669,_RINvMs3_NtNtCsfZPcC2TrjjJ_17cedar_policy_core3ast4exprNtB6_4Expr3setINtNtNtNtCsaNl6UpbT7bw_4core4iter8adapters3map3MapIB15_INtNtNtNtCsiTraAjBDcu4_5alloc11collections5btree3set4IterNtNtB8_5value5ValueENCNvXs0_NtB8_15restricted_exprNtB3k_14RestrictedExprINtNtB1d_7convert4FromNtB2U_9ValueKindE4from0ENvYB3G_INtB45_4IntoBQ_E4intoEEBa_
FN:669,_RINvMs3_NtNtCsfZPcC2TrjjJ_17cedar_policy_core3ast4exprNtB6_4Expr3setINtNtNtNtCsaNl6UpbT7bw_4core4iter8adapters3map3MapINtNtB19_6cloned6ClonedINtNtNtB1d_5slice4iter4IterINtNtCsiTraAjBDcu4_5alloc4sync3ArcNtNtB8_6entity9EntityUIDEEEINvB2_3valB2G_EEEBa_
FN:669,_RINvMs3_NtNtCsfZPcC2TrjjJ_17cedar_policy_core3ast4exprNtB6_4Expr3setINtNtNtNtCsaNl6UpbT7bw_4core4iter8adapters3map3MapINtNtNtB1d_5array4iter8IntoIterNtNtB8_15restricted_expr14RestrictedExprKj0_ENvYB2n_INtNtB1d_7convert4IntoBQ_E4intoEEBa_
FN:669,_RINvMs3_NtNtCsfZPcC2TrjjJ_17cedar_policy_core3ast4exprNtB6_4Expr3setINtNtNtNtCsaNl6UpbT7bw_4core4iter8adapters3map3MapINtNtNtB1d_5array4iter8IntoIterNtNtB8_15restricted_expr14RestrictedExprKj1_ENvYB2n_INtNtB1d_7convert4IntoBQ_E4intoEEBa_
FN:669,_RINvMs3_NtNtCsfZPcC2TrjjJ_17cedar_policy_core3ast4exprNtB6_4Expr3setINtNtNtNtCsaNl6UpbT7bw_4core4iter8adapters3map3MapINtNtNtB1d_5array4iter8IntoIterNtNtB8_15restricted_expr14RestrictedExprKj2_ENvYB2n_INtNtB1d_7convert4IntoBQ_E4intoEEBa_
FN:669,_RINvMs3_NtNtCsfZPcC2TrjjJ_17cedar_policy_core3ast4exprNtB6_4Expr3setINtNtNtNtCsaNl6UpbT7bw_4core4iter8adapters3map3MapINtNtNtB1d_5array4iter8IntoIterNtNtB8_15restricted_expr14RestrictedExprKj3_ENvYB2n_INtNtB1d_7convert4IntoBQ_E4intoEEBa_
FN:669,_RINvMs3_NtNtCsfZPcC2TrjjJ_17cedar_policy_core3ast4exprNtB6_4Expr3setINtNtNtNtCsaNl6UpbT7bw_4core4iter8adapters3map3MapINtNtNtCsiTraAjBDcu4_5alloc3vec9into_iter8IntoIterNtNtB8_15restricted_expr14RestrictedExprENvYB2G_INtNtB1d_7convert4IntoBQ_E4intoEEBa_
FN:669,_RINvMs3_NtNtCsfZPcC2TrjjJ_17cedar_policy_core3ast4exprNtB6_4Expr3setINtNtNtNtCsaNl6UpbT7bw_4core4iter8adapters3map3MapINtNtNtNtCsiTraAjBDcu4_5alloc11collections5btree3set4IterNtNtB8_5value5ValueENCNvXs0_B6_BQ_INtNtB1d_7convert4FromNtB2P_9ValueKindE4from0EEBa_
FN:530,_RINvMs3_NtNtCsfZPcC2TrjjJ_17cedar_policy_core3ast4exprNtB6_4Expr3valINtNtCsiTraAjBDcu4_5alloc4sync3ArcNtNtB8_6entity9EntityUIDEEBa_
FN:530,_RINvMs3_NtNtCsfZPcC2TrjjJ_17cedar_policy_core3ast4exprNtB6_4Expr3valNtCsbIodQZzabP8_8smol_str7SmolStrEBa_
FN:530,_RINvMs3_NtNtCsfZPcC2TrjjJ_17cedar_policy_core3ast4exprNtB6_4Expr3valNtNtB8_6entity9EntityUIDEBa_
FN:530,_RINvMs3_NtNtCsfZPcC2TrjjJ_17cedar_policy_core3ast4exprNtB6_4Expr3valNtNtB8_7literal7LiteralEBa_
FN:530,_RINvMs3_NtNtCsfZPcC2TrjjJ_17cedar_policy_core3ast4exprNtB6_4Expr3valReEBa_
FN:530,_RINvMs3_NtNtCsfZPcC2TrjjJ_17cedar_policy_core3ast4exprNtB6_4Expr3valbEBa_
FN:530,_RINvMs3_NtNtCsfZPcC2TrjjJ_17cedar_policy_core3ast4exprNtB6_4Expr3valxEBa_
FN:674,_RINvMs3_NtNtCsfZPcC2TrjjJ_17cedar_policy_core3ast4exprNtB6_4Expr6recordATNtCsbIodQZzabP8_8smol_str7SmolStrBQ_Ej0_EBa_
FN:674,_RINvMs3_NtNtCsfZPcC2TrjjJ_17cedar_policy_core3ast4exprNtB6_4Expr6recordATNtCsbIodQZzabP8_8smol_str7SmolStrBQ_Ej1_EBa_
FN:674,_RINvMs3_NtNtCsfZPcC2TrjjJ_17cedar_policy_core3ast4exprNtB6_4Expr6recordATNtCsbIodQZzabP8_8smol_str7SmolStrBQ_Ej2_EBa_
FN:674,_RINvMs3_NtNtCsfZPcC2TrjjJ_17cedar_policy_core3ast4exprNtB6_4Expr6recordATNtCsbIodQZzabP8_8smol_str7SmolStrBQ_Ej3_EBa_
FN:674,_RINvMs3_NtNtCsfZPcC2TrjjJ_17cedar_policy_core3ast4exprNtB6_4Expr6recordINtNtCsiTraAjBDcu4_5alloc3vec3VecTNtCsbIodQZzabP8_8smol_str7SmolStrBQ_EEEBa_
FN:674,_RINvMs3_NtNtCsfZPcC2TrjjJ_17cedar_policy_core3ast4exprNtB6_4Expr6recordINtNtNtNtCsaNl6UpbT7bw_4core4iter8adapters3map3MapIB18_INtNtNtNtCsiTraAjBDcu4_5alloc11collections5btree3map8IntoIterNtCsbIodQZzabP8_8smol_str7SmolStrNtNtB8_5value5ValueENCNvXs0_NtB8_15restricted_exprNtB3Y_14RestrictedExprINtNtB1g_7convert4FromNtB3y_9ValueKindE4froms_0ENCINvMB3Y_B4k_6recordB1V_E0EEBa_
FN:674,_RINvMs3_NtNtCsfZPcC2TrjjJ_17cedar_policy_core3ast4exprNtB6_4Expr6recordINtNtNtNtCsaNl6UpbT7bw_4core4iter8adapters3map3MapINtNtNtB1g_3ops5range14RangeInclusivelENCNvNtNtBa_9evaluator4tests_16large_record_err0EEBa_
FN:674,_RINvMs3_NtNtCsfZPcC2TrjjJ_17cedar_policy_core3ast4exprNtB6_4Expr6recordINtNtNtNtCsaNl6UpbT7bw_4core4iter8adapters3map3MapINtNtNtB1g_5array4iter8IntoIterTNtCsbIodQZzabP8_8smol_str7SmolStrNtNtB8_15restricted_expr14RestrictedExprEKj1_ENCINvMB30_B2Y_6recordAB2q_B3E_E0EEBa_
FN:674,_RINvMs3_NtNtCsfZPcC2TrjjJ_17cedar_policy_core3ast4exprNtB6_4Expr6recordINtNtNtNtCsaNl6UpbT7bw_4core4iter8adapters3map3MapINtNtNtB1g_5array4iter8IntoIterTNtCsbIodQZzabP8_8smol_str7SmolStrNtNtB8_15restricted_expr14RestrictedExprEKj2_ENCINvMB30_B2Y_6recordAB2q_B3E_E0EEBa_
FN:674,_RINvMs3_NtNtCsfZPcC2TrjjJ_17cedar_policy_core3ast4exprNtB6_4Expr6recordINtNtNtNtCsaNl6UpbT7bw_4core4iter8adapters3map3MapINtNtNtB1g_5array4iter8IntoIterTNtCsbIodQZzabP8_8smol_str7SmolStrNtNtB8_15restricted_expr14RestrictedExprEKj3_ENCINvMB30_B2Y_6recordAB2q_B3E_E0EEBa_
FN:674,_RINvMs3_NtNtCsfZPcC2TrjjJ_17cedar_policy_core3ast4exprNtB6_4Expr6recordINtNtNtNtCsaNl6UpbT7bw_4core4iter8adapters3map3MapINtNtNtB1g_5array4iter8IntoIterTNtCsbIodQZzabP8_8smol_str7SmolStrNtNtB8_15restricted_expr14RestrictedExprEKj5_ENCINvMB30_B2Y_6recordAB2q_B3E_E0EEBa_
FN:674,_RINvMs3_NtNtCsfZPcC2TrjjJ_17cedar_policy_core3ast4exprNtB6_4Expr6recordINtNtNtNtCsaNl6UpbT7bw_4core4iter8adapters3map3MapINtNtNtB1g_5array4iter8IntoIterTNtCsbIodQZzabP8_8smol_str7SmolStrNtNtB8_15restricted_expr14RestrictedExprEKj6_ENCINvMB30_B2Y_6recordAB2q_B3E_E0EEBa_
FN:674,_RINvMs3_NtNtCsfZPcC2TrjjJ_17cedar_policy_core3ast4exprNtB6_4Expr6recordINtNtNtNtCsaNl6UpbT7bw_4core4iter8adapters3map3MapINtNtNtB1g_5array4iter8IntoIterTNtCsbIodQZzabP8_8smol_str7SmolStrNtNtB8_15restricted_expr14RestrictedExprEKj9_ENCINvMB30_B2Y_6recordAB2q_B3E_E0EEBa_
FN:674,_RINvMs3_NtNtCsfZPcC2TrjjJ_17cedar_policy_core3ast4exprNtB6_4Expr6recordINtNtNtNtCsaNl6UpbT7bw_4core4iter8adapters3map3MapINtNtNtCsiTraAjBDcu4_5alloc3vec9into_iter8IntoIterTNtCsbIodQZzabP8_8smol_str7SmolStrNtNtB8_15restricted_expr14RestrictedExprEENCINvMB3j_B3h_6recordINtB20_3VecB2J_EE0EEBa_
FN:674,_RINvMs3_NtNtCsfZPcC2TrjjJ_17cedar_policy_core3ast4exprNtB6_4Expr6recordINtNtNtNtCsaNl6UpbT7bw_4core4iter8adapters3map3MapINtNtNtNtCsiTraAjBDcu4_5alloc11collections5btree3map8IntoIterNtCsbIodQZzabP8_8smol_str7SmolStrNtNtB8_5value5ValueENCNvXs0_B6_BQ_INtNtB1g_7convert4FromNtB3t_9ValueKindE4froms_0EEBa_
FN:674,_RINvMs3_NtNtCsfZPcC2TrjjJ_17cedar_policy_core3ast4exprNtB6_4Expr6recordINtNtNtNtCsaNl6UpbT7bw_4core4iter8adapters3zip3ZipINtNtNtCsiTraAjBDcu4_5alloc3vec9into_iter8IntoIterNtCsbIodQZzabP8_8smol_str7SmolStrEIB1W_BQ_EEEBa_
FN:674,_RINvMs3_NtNtCsfZPcC2TrjjJ_17cedar_policy_core3ast4exprNtB6_4Expr6recordINtNtNtNtCsht3nMU9UgFu_3std11collections4hash3map7HashMapNtCsbIodQZzabP8_8smol_str7SmolStrBQ_EEBa_
FN:674,_RINvMs3_NtNtCsfZPcC2TrjjJ_17cedar_policy_core3ast4exprNtB6_4Expr6recordINtNtNtNtCsiTraAjBDcu4_5alloc11collections5btree3map8BTreeMapNtCsbIodQZzabP8_8smol_str7SmolStrBQ_EEBa_
FN:699,_RINvMs3_NtNtCsfZPcC2TrjjJ_17cedar_policy_core3ast4exprNtB6_4Expr9unary_appNtNtB8_3ops7UnaryOpEBa_
FN:966,_RINvMs9_NtNtCsfZPcC2TrjjJ_17cedar_policy_core3ast4exprNtB6_7Unknown11new_untypedNtCsbIodQZzabP8_8smol_str7SmolStrEBa_
FN:966,_RINvMs9_NtNtCsfZPcC2TrjjJ_17cedar_policy_core3ast4exprNtB6_7Unknown11new_untypedReEBa_
FN:975,_RINvMs9_NtNtCsfZPcC2TrjjJ_17cedar_policy_core3ast4exprNtB6_7Unknown13new_with_typeNtCsbIodQZzabP8_8smol_str7SmolStrEBa_
FN:1350,_RINvMsd_NtNtCsfZPcC2TrjjJ_17cedar_policy_core3ast4exprINtB6_11ExprBuilderINtNtCsaNl6UpbT7bw_4core6option6OptionNtNtNtBa_9validator5types4TypeEE20with_same_source_locuEBa_
FN:1573,_RINvMsk_NtNtCsfZPcC2TrjjJ_17cedar_policy_core3ast4exprINtB6_4ExprlE10hash_shapeNtNtNtCsht3nMU9UgFu_3std4hash6random13DefaultHasherEBa_
FN:1456,_RINvMsk_NtNtCsfZPcC2TrjjJ_17cedar_policy_core3ast4exprINtB6_4ExprlE8eq_shapelEBa_
FN:1456,_RINvMsk_NtNtCsfZPcC2TrjjJ_17cedar_policy_core3ast4exprINtB6_4ExprlE8eq_shapeuEBa_
FN:1573,_RINvMsk_NtNtCsfZPcC2TrjjJ_17cedar_policy_core3ast4exprNtB6_4Expr10hash_shapeNtNtNtCsht3nMU9UgFu_3std4hash6random13DefaultHasherEBa_
FN:1456,_RINvMsk_NtNtCsfZPcC2TrjjJ_17cedar_policy_core3ast4exprNtB6_4Expr8eq_shapelEBa_
FN:1456,_RINvMsk_NtNtCsfZPcC2TrjjJ_17cedar_policy_core3ast4exprNtB6_4Expr8eq_shapeuEBa_
FN:925,_RINvXs7_NtNtCsfZPcC2TrjjJ_17cedar_policy_core3ast4exprNtB6_4ExprNtNtB8_5value14BoundedDisplay3fmtNtNtCsiTraAjBDcu4_5alloc6string6StringEBa_
FN:1283,_RINvXsb_NtNtCsfZPcC2TrjjJ_17cedar_policy_core3ast4exprINtB6_11ExprBuilderINtNtCsaNl6UpbT7bw_4core6option6OptionNtNtNtBa_9validator5types4TypeEENtNtBa_12expr_builder11ExprBuilder10binary_appNtNtB8_3ops8BinaryOpEBa_
FN:1265,_RINvXsb_NtNtCsfZPcC2TrjjJ_17cedar_policy_core3ast4exprINtB6_11ExprBuilderINtNtCsaNl6UpbT7bw_4core6option6OptionNtNtNtBa_9validator5types4TypeEENtNtBa_12expr_builder11ExprBuilder17call_extension_fnINtNtCsiTraAjBDcu4_5alloc3vec3VecINtB6_4ExprB19_EEEBa_
FN:1236,_RINvXsb_NtNtCsfZPcC2TrjjJ_17cedar_policy_core3ast4exprINtB6_11ExprBuilderINtNtCsaNl6UpbT7bw_4core6option6OptionNtNtNtBa_9validator5types4TypeEENtNtBa_12expr_builder11ExprBuilder3setAINtB6_4ExprB19_Ej3_EBa_
FN:1236,_RINvXsb_NtNtCsfZPcC2TrjjJ_17cedar_policy_core3ast4exprINtB6_11ExprBuilderINtNtCsaNl6UpbT7bw_4core6option6OptionNtNtNtBa_9validator5types4TypeEENtNtBa_12expr_builder11ExprBuilder3setINtNtCsiTraAjBDcu4_5alloc3vec3VecINtB6_4ExprB19_EEEBa_
FN:1036,_RINvXsb_NtNtCsfZPcC2TrjjJ_17cedar_policy_core3ast4exprINtB6_11ExprBuilderINtNtCsaNl6UpbT7bw_4core6option6OptionNtNtNtBa_9validator5types4TypeEENtNtBa_12expr_builder11ExprBuilder3valINtNtCsiTraAjBDcu4_5alloc4sync3ArcNtNtB8_6entity9EntityUIDEEBa_
FN:1036,_RINvXsb_NtNtCsfZPcC2TrjjJ_17cedar_policy_core3ast4exprINtB6_11ExprBuilderINtNtCsaNl6UpbT7bw_4core6option6OptionNtNtNtBa_9validator5types4TypeEENtNtBa_12expr_builder11ExprBuilder3valNtCsbIodQZzabP8_8smol_str7SmolStrEBa_
FN:1036,_RINvXsb_NtNtCsfZPcC2TrjjJ_17cedar_policy_core3ast4exprINtB6_11ExprBuilderINtNtCsaNl6UpbT7bw_4core6option6OptionNtNtNtBa_9validator5types4TypeEENtNtBa_12expr_builder11ExprBuilder3valNtNtB8_6entity9EntityUIDEBa_
FN:1036,_RINvXsb_NtNtCsfZPcC2TrjjJ_17cedar_policy_core3ast4exprINtB6_11ExprBuilderINtNtCsaNl6UpbT7bw_4core6option6OptionNtNtNtBa_9validator5types4TypeEENtNtBa_12expr_builder11ExprBuilder3valReEBa_
FN:1036,_RINvXsb_NtNtCsfZPcC2TrjjJ_17cedar_policy_core3ast4exprINtB6_11ExprBuilderINtNtCsaNl6UpbT7bw_4core6option6OptionNtNtNtBa_9validator5types4TypeEENtNtBa_12expr_builder11ExprBuilder3valbEBa_
FN:1036,_RINvXsb_NtNtCsfZPcC2TrjjJ_17cedar_policy_core3ast4exprINtB6_11ExprBuilderINtNtCsaNl6UpbT7bw_4core6option6OptionNtNtNtBa_9validator5types4TypeEENtNtBa_12expr_builder11ExprBuilder3valxEBa_
FN:1241,_RINvXsb_NtNtCsfZPcC2TrjjJ_17cedar_policy_core3ast4exprINtB6_11ExprBuilderINtNtCsaNl6UpbT7bw_4core6option6OptionNtNtNtBa_9validator5types4TypeEENtNtBa_12expr_builder11ExprBuilder6recordATNtCsbIodQZzabP8_8smol_str7SmolStrINtB6_4ExprB19_EEj0_EBa_
FN:1241,_RINvXsb_NtNtCsfZPcC2TrjjJ_17cedar_policy_core3ast4exprINtB6_11ExprBuilderINtNtCsaNl6UpbT7bw_4core6option6OptionNtNtNtBa_9validator5types4TypeEENtNtBa_12expr_builder11ExprBuilder6recordATNtCsbIodQZzabP8_8smol_str7SmolStrINtB6_4ExprB19_EEj2_EBa_
FN:1241,_RINvXsb_NtNtCsfZPcC2TrjjJ_17cedar_policy_core3ast4exprINtB6_11ExprBuilderINtNtCsaNl6UpbT7bw_4core6option6OptionNtNtNtBa_9validator5types4TypeEENtNtBa_12expr_builder11ExprBuilder6recordINtNtNtNtB1e_4iter8adapters3zip3ZipINtNtB31_6cloned6ClonedINtNtNtNtCsiTraAjBDcu4_5alloc11collections5btree3map4KeysNtCsbIodQZzabP8_8smol_str7SmolStrNtB6_4ExprEEINtNtNtB41_3vec9into_iter8IntoIterIB5k_B19_EEEEBa_
FN:1036,_RINvXsb_NtNtCsfZPcC2TrjjJ_17cedar_policy_core3ast4exprINtB6_11ExprBuilderReENtNtBa_12expr_builder11ExprBuilder3valxEBa_
FN:1265,_RINvXsb_NtNtCsfZPcC2TrjjJ_17cedar_policy_core3ast4exprINtB6_11ExprBuilderlENtNtBa_12expr_builder11ExprBuilder17call_extension_fnINtNtCsiTraAjBDcu4_5alloc3vec3VecINtB6_4ExprlEEEBa_
FN:1236,_RINvXsb_NtNtCsfZPcC2TrjjJ_17cedar_policy_core3ast4exprINtB6_11ExprBuilderlENtNtBa_12expr_builder11ExprBuilder3setAINtB6_4ExprlEj1_EBa_
FN:1036,_RINvXsb_NtNtCsfZPcC2TrjjJ_17cedar_policy_core3ast4exprINtB6_11ExprBuilderlENtNtBa_12expr_builder11ExprBuilder3valbEBa_
FN:1036,_RINvXsb_NtNtCsfZPcC2TrjjJ_17cedar_policy_core3ast4exprINtB6_11ExprBuilderlENtNtBa_12expr_builder11ExprBuilder3valxEBa_
FN:1241,_RINvXsb_NtNtCsfZPcC2TrjjJ_17cedar_policy_core3ast4exprINtB6_11ExprBuilderlENtNtBa_12expr_builder11ExprBuilder6recordATNtCsbIodQZzabP8_8smol_str7SmolStrINtB6_4ExprlEEj1_EBa_
FN:1283,_RINvXsb_NtNtCsfZPcC2TrjjJ_17cedar_policy_core3ast4exprINtB6_11ExprBuilderuENtNtBa_12expr_builder11ExprBuilder10binary_appNtNtB8_3ops8BinaryOpEBa_
FN:1265,_RINvXsb_NtNtCsfZPcC2TrjjJ_17cedar_policy_core3ast4exprINtB6_11ExprBuilderuENtNtBa_12expr_builder11ExprBuilder17call_extension_fnINtCsiH91q1aZ7vn_8nonempty8NonEmptyNtB6_4ExprEEBa_
FN:1265,_RINvXsb_NtNtCsfZPcC2TrjjJ_17cedar_policy_core3ast4exprINtB6_11ExprBuilderuENtNtBa_12expr_builder11ExprBuilder17call_extension_fnINtNtCsiTraAjBDcu4_5alloc3vec3VecNtB6_4ExprEEBa_
FN:1265,_RINvXsb_NtNtCsfZPcC2TrjjJ_17cedar_policy_core3ast4exprINtB6_11ExprBuilderuENtNtBa_12expr_builder11ExprBuilder17call_extension_fnINtNtNtNtCsaNl6UpbT7bw_4core4iter8adapters3map3MapINtNtNtCsiTraAjBDcu4_5alloc3vec9into_iter8IntoIterINtB6_4ExprINtNtB2b_6option6OptionNtNtNtBa_9validator5types4TypeEEENCINvMs2_B6_B3E_9into_exprBQ_E0EEBa_
FN:1236,_RINvXsb_NtNtCsfZPcC2TrjjJ_17cedar_policy_core3ast4exprINtB6_11ExprBuilderuENtNtBa_12expr_builder11ExprBuilder3setANtB6_4Exprj0_EBa_
FN:1236,_RINvXsb_NtNtCsfZPcC2TrjjJ_17cedar_policy_core3ast4exprINtB6_11ExprBuilderuENtNtBa_12expr_builder11ExprBuilder3setANtB6_4Exprj1_EBa_
FN:1236,_RINvXsb_NtNtCsfZPcC2TrjjJ_17cedar_policy_core3ast4exprINtB6_11ExprBuilderuENtNtBa_12expr_builder11ExprBuilder3setANtB6_4Exprj2_EBa_
FN:1236,_RINvXsb_NtNtCsfZPcC2TrjjJ_17cedar_policy_core3ast4exprINtB6_11ExprBuilderuENtNtBa_12expr_builder11ExprBuilder3setANtB6_4Exprj3_EBa_
FN:1236,_RINvXsb_NtNtCsfZPcC2TrjjJ_17cedar_policy_core3ast4exprINtB6_11ExprBuilderuENtNtBa_12expr_builder11ExprBuilder3setINtNtCsiTraAjBDcu4_5alloc3vec3VecNtB6_4ExprEEBa_
FN:1236,_RINvXsb_NtNtCsfZPcC2TrjjJ_17cedar_policy_core3ast4exprINtB6_11ExprBuilderuENtNtBa_12expr_builder11ExprBuilder3setINtNtNtCsiTraAjBDcu4_5alloc3vec9into_iter8IntoIterNtB6_4ExprEEBa_
FN:1236,_RINvXsb_NtNtCsfZPcC2TrjjJ_17cedar_policy_core3ast4exprINtB6_11ExprBuilderuENtNtBa_12expr_builder11ExprBuilder3setINtNtNtNtCsaNl6UpbT7bw_4core4iter8adapters3map3MapIB1O_INtNtNtNtCsiTraAjBDcu4_5alloc11collections5btree3set4IterNtNtB8_5value5ValueENCNvXs0_NtB8_15restricted_exprNtB43_14RestrictedExprINtNtB1W_7convert4FromNtB3D_9ValueKindE4from0ENvYB4p_INtB4O_4IntoNtB6_4ExprE4intoEEBa_
FN:1236,_RINvXsb_NtNtCsfZPcC2TrjjJ_17cedar_policy_core3ast4exprINtB6_11ExprBuilderuENtNtBa_12expr_builder11ExprBuilder3setINtNtNtNtCsaNl6UpbT7bw_4core4iter8adapters3map3MapINtNtB1S_6cloned6ClonedINtNtNtB1W_5slice4iter4IterINtNtCsiTraAjBDcu4_5alloc4sync3ArcNtNtB8_6entity9EntityUIDEEEINvMs3_B6_NtB6_4Expr3valB3p_EEEBa_
FN:1236,_RINvXsb_NtNtCsfZPcC2TrjjJ_17cedar_policy_core3ast4exprINtB6_11ExprBuilderuENtNtBa_12expr_builder11ExprBuilder3setINtNtNtNtCsaNl6UpbT7bw_4core4iter8adapters3map3MapINtNtNtB1W_5array4iter8IntoIterNtNtB8_15restricted_expr14RestrictedExprKj0_ENvYB36_INtNtB1W_7convert4IntoNtB6_4ExprE4intoEEBa_
FN:1236,_RINvXsb_NtNtCsfZPcC2TrjjJ_17cedar_policy_core3ast4exprINtB6_11ExprBuilderuENtNtBa_12expr_builder11ExprBuilder3setINtNtNtNtCsaNl6UpbT7bw_4core4iter8adapters3map3MapINtNtNtB1W_5array4iter8IntoIterNtNtB8_15restricted_expr14RestrictedExprKj1_ENvYB36_INtNtB1W_7convert4IntoNtB6_4ExprE4intoEEBa_
FN:1236,_RINvXsb_NtNtCsfZPcC2TrjjJ_17cedar_policy_core3ast4exprINtB6_11ExprBuilderuENtNtBa_12expr_builder11ExprBuilder3setINtNtNtNtCsaNl6UpbT7bw_4core4iter8adapters3map3MapINtNtNtB1W_5array4iter8IntoIterNtNtB8_15restricted_expr14RestrictedExprKj2_ENvYB36_INtNtB1W_7convert4IntoNtB6_4ExprE4intoEEBa_
FN:1236,_RINvXsb_NtNtCsfZPcC2TrjjJ_17cedar_policy_core3ast4exprINtB6_11ExprBuilderuENtNtBa_12expr_builder11ExprBuilder3setINtNtNtNtCsaNl6UpbT7bw_4core4iter8adapters3map3MapINtNtNtB1W_5array4iter8IntoIterNtNtB8_15restricted_expr14RestrictedExprKj3_ENvYB36_INtNtB1W_7convert4IntoNtB6_4ExprE4intoEEBa_
FN:1236,_RINvXsb_NtNtCsfZPcC2TrjjJ_17cedar_policy_core3ast4exprINtB6_11ExprBuilderuENtNtBa_12expr_builder11ExprBuilder3setINtNtNtNtCsaNl6UpbT7bw_4core4iter8adapters3map3MapINtNtNtCsiTraAjBDcu4_5alloc3vec9into_iter8IntoIterINtB6_4ExprINtNtB1W_6option6OptionNtNtNtBa_9validator5types4TypeEEENCINvMs2_B6_B3p_9into_exprBQ_Es_0EEBa_
FN:1236,_RINvXsb_NtNtCsfZPcC2TrjjJ_17cedar_policy_core3ast4exprINtB6_11ExprBuilderuENtNtBa_12expr_builder11ExprBuilder3setINtNtNtNtCsaNl6UpbT7bw_4core4iter8adapters3map3MapINtNtNtCsiTraAjBDcu4_5alloc3vec9into_iter8IntoIterNtNtB8_15restricted_expr14RestrictedExprENvYB3p_INtNtB1W_7convert4IntoNtB6_4ExprE4intoEEBa_
FN:1236,_RINvXsb_NtNtCsfZPcC2TrjjJ_17cedar_policy_core3ast4exprINtB6_11ExprBuilderuENtNtBa_12expr_builder11ExprBuilder3setINtNtNtNtCsaNl6UpbT7bw_4core4iter8adapters3map3MapINtNtNtNtCsiTraAjBDcu4_5alloc11collections5btree3set4IterNtNtB8_5value5ValueENCNvXs0_B6_NtB6_4ExprINtNtB1W_7convert4FromNtB3y_9ValueKindE4from0EEBa_
FN:1036,_RINvXsb_NtNtCsfZPcC2TrjjJ_17cedar_policy_core3ast4exprINtB6_11ExprBuilderuENtNtBa_12expr_builder11ExprBuilder3valINtNtCsiTraAjBDcu4_5alloc4sync3ArcNtNtB8_6entity9EntityUIDEEBa_
FN:1036,_RINvXsb_NtNtCsfZPcC2TrjjJ_17cedar_policy_core3ast4exprINtB6_11ExprBuilderuENtNtBa_12expr_builder11ExprBuilder3valNtCsbIodQZzabP8_8smol_str7SmolStrEBa_
FN:1036,_RINvXsb_NtNtCsfZPcC2TrjjJ_17cedar_policy_core3ast4exprINtB6_11ExprBuilderuENtNtBa_12expr_builder11ExprBuilder3valNtNtB8_6entity9EntityUIDEBa_
FN:1036,_RINvXsb_NtNtCsfZPcC2TrjjJ_17cedar_policy_core3ast4exprINtB6_11ExprBuilderuENtNtBa_12expr_builder11ExprBuilder3valNtNtB8_7literal7LiteralEBa_
FN:1036,_RINvXsb_NtNtCsfZPcC2TrjjJ_17cedar_policy_core3ast4exprINtB6_11ExprBuilderuENtNtBa_12expr_builder11ExprBuilder3valReEBa_
FN:1036,_RINvXsb_NtNtCsfZPcC2TrjjJ_17cedar_policy_core3ast4exprINtB6_11ExprBuilderuENtNtBa_12expr_builder11ExprBuilder3valbEBa_
FN:1036,_RINvXsb_NtNtCsfZPcC2TrjjJ_17cedar_policy_core3ast4exprINtB6_11ExprBuilderuENtNtBa_12expr_builder11ExprBuilder3valxEBa_
FN:1241,_RINvXsb_NtNtCsfZPcC2TrjjJ_17cedar_policy_core3ast4exprINtB6_11ExprBuilderuENtNtBa_12expr_builder11ExprBuilder6recordATNtCsbIodQZzabP8_8smol_str7SmolStrNtB6_4ExprEj0_EBa_
FN:1241,_RINvXsb_NtNtCsfZPcC2TrjjJ_17cedar_policy_core3ast4exprINtB6_11ExprBuilderuENtNtBa_12expr_builder11ExprBuilder6recordATNtCsbIodQZzabP8_8smol_str7SmolStrNtB6_4ExprEj1_EBa_
FN:1241,_RINvXsb_NtNtCsfZPcC2TrjjJ_17cedar_policy_core3ast4exprINtB6_11ExprBuilderuENtNtBa_12expr_builder11ExprBuilder6recordATNtCsbIodQZzabP8_8smol_str7SmolStrNtB6_4ExprEj2_EBa_
FN:1241,_RINvXsb_NtNtCsfZPcC2TrjjJ_17cedar_policy_core3ast4exprINtB6_11ExprBuilderuENtNtBa_12expr_builder11ExprBuilder6recordATNtCsbIodQZzabP8_8smol_str7SmolStrNtB6_4ExprEj3_EBa_
FN:1241,_RINvXsb_NtNtCsfZPcC2TrjjJ_17cedar_policy_core3ast4exprINtB6_11ExprBuilderuENtNtBa_12expr_builder11ExprBuilder6recordINtNtCsiTraAjBDcu4_5alloc3vec3VecTNtCsbIodQZzabP8_8smol_str7SmolStrNtB6_4ExprEEEBa_
FN:1241,_RINvXsb_NtNtCsfZPcC2TrjjJ_17cedar_policy_core3ast4exprINtB6_11ExprBuilderuENtNtBa_12expr_builder11ExprBuilder6recordINtNtNtNtCsaNl6UpbT7bw_4core4iter8adapters3map3MapIB1R_INtNtNtNtCsiTraAjBDcu4_5alloc11collections5btree3map8IntoIterNtCsbIodQZzabP8_8smol_str7SmolStrNtNtB8_5value5ValueENCNvXs0_NtB8_15restricted_exprNtB4H_14RestrictedExprINtNtB1Z_7convert4FromNtB4h_9ValueKindE4froms_0ENCINvMB4H_B53_6recordB2E_E0EEBa_
FN:1241,_RINvXsb_NtNtCsfZPcC2TrjjJ_17cedar_policy_core3ast4exprINtB6_11ExprBuilderuENtNtBa_12expr_builder11ExprBuilder6recordINtNtNtNtCsaNl6UpbT7bw_4core4iter8adapters3map3MapINtNtNtB1Z_3ops5range14RangeInclusivelENCNvNtNtBa_9evaluator4tests_16large_record_err0EEBa_
FN:1241,_RINvXsb_NtNtCsfZPcC2TrjjJ_17cedar_policy_core3ast4exprINtB6_11ExprBuilderuENtNtBa_12expr_builder11ExprBuilder6recordINtNtNtNtCsaNl6UpbT7bw_4core4iter8adapters3map3MapINtNtNtB1Z_5array4iter8IntoIterTNtCsbIodQZzabP8_8smol_str7SmolStrNtNtB8_15restricted_expr14RestrictedExprEKj1_ENCINvMB3J_B3H_6recordAB39_B4n_E0EEBa_
FN:1241,_RINvXsb_NtNtCsfZPcC2TrjjJ_17cedar_policy_core3ast4exprINtB6_11ExprBuilderuENtNtBa_12expr_builder11ExprBuilder6recordINtNtNtNtCsaNl6UpbT7bw_4core4iter8adapters3map3MapINtNtNtB1Z_5array4iter8IntoIterTNtCsbIodQZzabP8_8smol_str7SmolStrNtNtB8_15restricted_expr14RestrictedExprEKj2_ENCINvMB3J_B3H_6recordAB39_B4n_E0EEBa_
FN:1241,_RINvXsb_NtNtCsfZPcC2TrjjJ_17cedar_policy_core3ast4exprINtB6_11ExprBuilderuENtNtBa_12expr_builder11ExprBuilder6recordINtNtNtNtCsaNl6UpbT7bw_4core4iter8adapters3map3MapINtNtNtB1Z_5array4iter8IntoIterTNtCsbIodQZzabP8_8smol_str7SmolStrNtNtB8_15restricted_expr14RestrictedExprEKj3_ENCINvMB3J_B3H_6recordAB39_B4n_E0EEBa_
FN:1241,_RINvXsb_NtNtCsfZPcC2TrjjJ_17cedar_policy_core3ast4exprINtB6_11ExprBuilderuENtNtBa_12expr_builder11ExprBuilder6recordINtNtNtNtCsaNl6UpbT7bw_4core4iter8adapters3map3MapINtNtNtB1Z_5array4iter8IntoIterTNtCsbIodQZzabP8_8smol_str7SmolStrNtNtB8_15restricted_expr14RestrictedExprEKj5_ENCINvMB3J_B3H_6recordAB39_B4n_E0EEBa_
FN:1241,_RINvXsb_NtNtCsfZPcC2TrjjJ_17cedar_policy_core3ast4exprINtB6_11ExprBuilderuENtNtBa_12expr_builder11ExprBuilder6recordINtNtNtNtCsaNl6UpbT7bw_4core4iter8adapters3map3MapINtNtNtB1Z_5array4iter8IntoIterTNtCsbIodQZzabP8_8smol_str7SmolStrNtNtB8_15restricted_expr14RestrictedExprEKj6_ENCINvMB3J_B3H_6recordAB39_B4n_E0EEBa_
FN:1241,_RINvXsb_NtNtCsfZPcC2TrjjJ_17cedar_policy_core3ast4exprINtB6_11ExprBuilderuENtNtBa_12expr_builder11ExprBuilder6recordINtNtNtNtCsaNl6UpbT7bw_4core4iter8adapters3map3MapINtNtNtB1Z_5array4iter8IntoIterTNtCsbIodQZzabP8_8smol_str7SmolStrNtNtB8_15restricted_expr14RestrictedExprEKj9_ENCINvMB3J_B3H_6recordAB39_B4n_E0EEBa_
FN:1241,_RINvXsb_NtNtCsfZPcC2TrjjJ_17cedar_policy_core3ast4exprINtB6_11ExprBuilderuENtNtBa_12expr_builder11ExprBuilder6recordINtNtNtNtCsaNl6UpbT7bw_4core4iter8adapters3map3MapINtNtNtCsiTraAjBDcu4_5alloc3vec9into_iter8IntoIterTNtCsbIodQZzabP8_8smol_str7SmolStrNtNtB8_15restricted_expr14RestrictedExprEENCINvMB42_B40_6recordINtB2J_3VecB3s_EE0EEBa_
FN:1241,_RINvXsb_NtNtCsfZPcC2TrjjJ_17cedar_policy_core3ast4exprINtB6_11ExprBuilderuENtNtBa_12expr_builder11ExprBuilder6recordINtNtNtNtCsaNl6UpbT7bw_4core4iter8adapters3map3MapINtNtNtNtCsiTraAjBDcu4_5alloc11collections5btree3map8IntoIterNtCsbIodQZzabP8_8smol_str7SmolStrINtB6_4ExprINtNtB1Z_6option6OptionNtNtNtBa_9validator5types4TypeEEENCINvMs2_B6_B4a_9into_exprBQ_Es0_0EEBa_
FN:1241,_RINvXsb_NtNtCsfZPcC2TrjjJ_17cedar_policy_core3ast4exprINtB6_11ExprBuilderuENtNtBa_12expr_builder11ExprBuilder6recordINtNtNtNtCsaNl6UpbT7bw_4core4iter8adapters3map3MapINtNtNtNtCsiTraAjBDcu4_5alloc11collections5btree3map8IntoIterNtCsbIodQZzabP8_8smol_str7SmolStrNtNtB8_5value5ValueENCNvXs0_B6_NtB6_4ExprINtNtB1Z_7convert4FromNtB4c_9ValueKindE4froms_0EEBa_
FN:1241,_RINvXsb_NtNtCsfZPcC2TrjjJ_17cedar_policy_core3ast4exprINtB6_11ExprBuilderuENtNtBa_12expr_builder11ExprBuilder6recordINtNtNtNtCsaNl6UpbT7bw_4core4iter8adapters3zip3ZipINtNtNtCsiTraAjBDcu4_5alloc3vec9into_iter8IntoIterNtCsbIodQZzabP8_8smol_str7SmolStrEIB2F_NtB6_4ExprEEEBa_
FN:1241,_RINvXsb_NtNtCsfZPcC2TrjjJ_17cedar_policy_core3ast4exprINtB6_11ExprBuilderuENtNtBa_12expr_builder11ExprBuilder6recordINtNtNtNtCsht3nMU9UgFu_3std11collections4hash3map7HashMapNtCsbIodQZzabP8_8smol_str7SmolStrNtB6_4ExprEEBa_
FN:1241,_RINvXsb_NtNtCsfZPcC2TrjjJ_17cedar_policy_core3ast4exprINtB6_11ExprBuilderuENtNtBa_12expr_builder11ExprBuilder6recordINtNtNtNtCsiTraAjBDcu4_5alloc11collections5btree3map8BTreeMapNtCsbIodQZzabP8_8smol_str7SmolStrNtB6_4ExprEEBa_
FN:1274,_RINvXsb_NtNtCsfZPcC2TrjjJ_17cedar_policy_core3ast4exprINtB6_11ExprBuilderuENtNtBa_12expr_builder11ExprBuilder9unary_appNtNtB8_3ops7UnaryOpEBa_
FN:476,_RNCINvMs2_NtNtCsfZPcC2TrjjJ_17cedar_policy_core3ast4exprINtB8_4ExprINtNtCsaNl6UpbT7bw_4core6option6OptionNtNtNtBc_9validator5types4TypeEE9into_exprINtB8_11ExprBuilderuEE0Bc_
FN:504,_RNCINvMs2_NtNtCsfZPcC2TrjjJ_17cedar_policy_core3ast4exprINtB8_4ExprINtNtCsaNl6UpbT7bw_4core6option6OptionNtNtNtBc_9validator5types4TypeEE9into_exprINtB8_11ExprBuilderuEEs0_0Bc_
FN:494,_RNCINvMs2_NtNtCsfZPcC2TrjjJ_17cedar_policy_core3ast4exprINtB8_4ExprINtNtCsaNl6UpbT7bw_4core6option6OptionNtNtNtBc_9validator5types4TypeEE9into_exprINtB8_11ExprBuilderuEEs_0Bc_
FN:476,_RNCINvMs2_NtNtCsfZPcC2TrjjJ_17cedar_policy_core3ast4exprINtB8_4ExprINtNtCsaNl6UpbT7bw_4core6option6OptionNtNtNtBc_9validator5types4TypeEE9into_exprNtNtNtBc_3est4expr7BuilderE0Bc_
FN:504,_RNCINvMs2_NtNtCsfZPcC2TrjjJ_17cedar_policy_core3ast4exprINtB8_4ExprINtNtCsaNl6UpbT7bw_4core6option6OptionNtNtNtBc_9validator5types4TypeEE9into_exprNtNtNtBc_3est4expr7BuilderEs0_0Bc_
FN:494,_RNCINvMs2_NtNtCsfZPcC2TrjjJ_17cedar_policy_core3ast4exprINtB8_4ExprINtNtCsaNl6UpbT7bw_4core6option6OptionNtNtNtBc_9validator5types4TypeEE9into_exprNtNtNtBc_3est4expr7BuilderEs_0Bc_
FN:476,_RNCINvMs2_NtNtCsfZPcC2TrjjJ_17cedar_policy_core3ast4exprNtB8_4Expr9into_exprNtNtNtBc_3est4expr7BuilderE0Bc_
FN:504,_RNCINvMs2_NtNtCsfZPcC2TrjjJ_17cedar_policy_core3ast4exprNtB8_4Expr9into_exprNtNtNtBc_3est4expr7BuilderEs0_0Bc_
FN:494,_RNCINvMs2_NtNtCsfZPcC2TrjjJ_17cedar_policy_core3ast4exprNtB8_4Expr9into_exprNtNtNtBc_3est4expr7BuilderEs_0Bc_
FN:476,_RNCINvMs2_NtNtCsfZPcC2TrjjJ_17cedar_policy_core3ast4exprNtB8_4Expr9into_exprNtNtNtBc_3pst4expr10PstBuilderE0Bc_
FN:504,_RNCINvMs2_NtNtCsfZPcC2TrjjJ_17cedar_policy_core3ast4exprNtB8_4Expr9into_exprNtNtNtBc_3pst4expr10PstBuilderEs0_0Bc_
FN:494,_RNCINvMs2_NtNtCsfZPcC2TrjjJ_17cedar_policy_core3ast4exprNtB8_4Expr9into_exprNtNtNtBc_3pst4expr10PstBuilderEs_0Bc_
FN:822,_RNCINvMs3_NtNtCsfZPcC2TrjjJ_17cedar_policy_core3ast4exprNtB8_4Expr18substitute_generalNtB8_17TypedSubstitutionE0Bc_
FN:849,_RNCINvMs3_NtNtCsfZPcC2TrjjJ_17cedar_policy_core3ast4exprNtB8_4Expr18substitute_generalNtB8_17TypedSubstitutionEs0_0Bc_
FN:842,_RNCINvMs3_NtNtCsfZPcC2TrjjJ_17cedar_policy_core3ast4exprNtB8_4Expr18substitute_generalNtB8_17TypedSubstitutionEs_0Bc_
FN:1612,_RNCINvMsk_NtNtCsfZPcC2TrjjJ_17cedar_policy_core3ast4exprINtB8_4ExprlE10hash_shapeNtNtNtCsht3nMU9UgFu_3std4hash6random13DefaultHasherE0Bc_
FN:1636,_RNCINvMsk_NtNtCsfZPcC2TrjjJ_17cedar_policy_core3ast4exprINtB8_4ExprlE10hash_shapeNtNtNtCsht3nMU9UgFu_3std4hash6random13DefaultHasherEs0_0Bc_
FN:1630,_RNCINvMsk_NtNtCsfZPcC2TrjjJ_17cedar_policy_core3ast4exprINtB8_4ExprlE10hash_shapeNtNtNtCsht3nMU9UgFu_3std4hash6random13DefaultHasherEs_0Bc_
FN:1522,_RNCINvMsk_NtNtCsfZPcC2TrjjJ_17cedar_policy_core3ast4exprINtB8_4ExprlE8eq_shapelE0Bc_
FN:1557,_RNCINvMsk_NtNtCsfZPcC2TrjjJ_17cedar_policy_core3ast4exprINtB8_4ExprlE8eq_shapelEs0_0Bc_
FN:1550,_RNCINvMsk_NtNtCsfZPcC2TrjjJ_17cedar_policy_core3ast4exprINtB8_4ExprlE8eq_shapelEs_0Bc_
FN:1522,_RNCINvMsk_NtNtCsfZPcC2TrjjJ_17cedar_policy_core3ast4exprINtB8_4ExprlE8eq_shapeuE0Bc_
FN:1557,_RNCINvMsk_NtNtCsfZPcC2TrjjJ_17cedar_policy_core3ast4exprINtB8_4ExprlE8eq_shapeuEs0_0Bc_
FN:1550,_RNCINvMsk_NtNtCsfZPcC2TrjjJ_17cedar_policy_core3ast4exprINtB8_4ExprlE8eq_shapeuEs_0Bc_
FN:1612,_RNCINvMsk_NtNtCsfZPcC2TrjjJ_17cedar_policy_core3ast4exprNtB8_4Expr10hash_shapeNtNtNtCsht3nMU9UgFu_3std4hash6random13DefaultHasherE0Bc_
FN:1636,_RNCINvMsk_NtNtCsfZPcC2TrjjJ_17cedar_policy_core3ast4exprNtB8_4Expr10hash_shapeNtNtNtCsht3nMU9UgFu_3std4hash6random13DefaultHasherEs0_0Bc_
FN:1630,_RNCINvMsk_NtNtCsfZPcC2TrjjJ_17cedar_policy_core3ast4exprNtB8_4Expr10hash_shapeNtNtNtCsht3nMU9UgFu_3std4hash6random13DefaultHasherEs_0Bc_
FN:1522,_RNCINvMsk_NtNtCsfZPcC2TrjjJ_17cedar_policy_core3ast4exprNtB8_4Expr8eq_shapelE0Bc_
FN:1557,_RNCINvMsk_NtNtCsfZPcC2TrjjJ_17cedar_policy_core3ast4exprNtB8_4Expr8eq_shapelEs0_0Bc_
FN:1550,_RNCINvMsk_NtNtCsfZPcC2TrjjJ_17cedar_policy_core3ast4exprNtB8_4Expr8eq_shapelEs_0Bc_
FN:1522,_RNCINvMsk_NtNtCsfZPcC2TrjjJ_17cedar_policy_core3ast4exprNtB8_4Expr8eq_shapeuE0Bc_
FN:1557,_RNCINvMsk_NtNtCsfZPcC2TrjjJ_17cedar_policy_core3ast4exprNtB8_4Expr8eq_shapeuEs0_0Bc_
FN:1550,_RNCINvMsk_NtNtCsfZPcC2TrjjJ_17cedar_policy_core3ast4exprNtB8_4Expr8eq_shapeuEs_0Bc_
FN:1727,_RNCNCNvMsk_NtNtCsfZPcC2TrjjJ_17cedar_policy_core3ast4exprNtB9_4Expr9cmp_shapes6_00Bd_
FN:1769,_RNCNCNvMsk_NtNtCsfZPcC2TrjjJ_17cedar_policy_core3ast4exprNtB9_4Expr9cmp_shapesb_00Bd_
FN:412,_RNCNvMs2_NtNtCsfZPcC2TrjjJ_17cedar_policy_core3ast4exprNtB7_4Expr11try_type_of0Bb_
FN:335,_RNCNvMs2_NtNtCsfZPcC2TrjjJ_17cedar_policy_core3ast4exprNtB7_4Expr14is_projectable0Bb_
FN:322,_RNCNvMs2_NtNtCsfZPcC2TrjjJ_17cedar_policy_core3ast4exprNtB7_4Expr5slots0Bb_
FN:739,_RNCNvMs3_NtNtCsfZPcC2TrjjJ_17cedar_policy_core3ast4exprNtB7_4Expr16contains_unknown0Bb_
FN:745,_RNCNvMs3_NtNtCsfZPcC2TrjjJ_17cedar_policy_core3ast4exprNtB7_4Expr8unknowns0Bb_
FN:1676,_RNCNvMsk_NtNtCsfZPcC2TrjjJ_17cedar_policy_core3ast4exprNtB7_4Expr9cmp_shape0Bb_
FN:1691,_RNCNvMsk_NtNtCsfZPcC2TrjjJ_17cedar_policy_core3ast4exprNtB7_4Expr9cmp_shapes0_0Bb_
FN:1698,_RNCNvMsk_NtNtCsfZPcC2TrjjJ_17cedar_policy_core3ast4exprNtB7_4Expr9cmp_shapes1_0Bb_
FN:1705,_RNCNvMsk_NtNtCsfZPcC2TrjjJ_17cedar_policy_core3ast4exprNtB7_4Expr9cmp_shapes2_0Bb_
FN:1707,_RNCNvMsk_NtNtCsfZPcC2TrjjJ_17cedar_policy_core3ast4exprNtB7_4Expr9cmp_shapes3_0Bb_
FN:1718,_RNCNvMsk_NtNtCsfZPcC2TrjjJ_17cedar_policy_core3ast4exprNtB7_4Expr9cmp_shapes4_0Bb_
FN:1719,_RNCNvMsk_NtNtCsfZPcC2TrjjJ_17cedar_policy_core3ast4exprNtB7_4Expr9cmp_shapes5_0Bb_
FN:1726,_RNCNvMsk_NtNtCsfZPcC2TrjjJ_17cedar_policy_core3ast4exprNtB7_4Expr9cmp_shapes6_0Bb_
FN:1743,_RNCNvMsk_NtNtCsfZPcC2TrjjJ_17cedar_policy_core3ast4exprNtB7_4Expr9cmp_shapes7_0Bb_
FN:1750,_RNCNvMsk_NtNtCsfZPcC2TrjjJ_17cedar_policy_core3ast4exprNtB7_4Expr9cmp_shapes8_0Bb_
FN:1757,_RNCNvMsk_NtNtCsfZPcC2TrjjJ_17cedar_policy_core3ast4exprNtB7_4Expr9cmp_shapes9_0Bb_
FN:1690,_RNCNvMsk_NtNtCsfZPcC2TrjjJ_17cedar_policy_core3ast4exprNtB7_4Expr9cmp_shapes_0Bb_
FN:1758,_RNCNvMsk_NtNtCsfZPcC2TrjjJ_17cedar_policy_core3ast4exprNtB7_4Expr9cmp_shapesa_0Bb_
FN:1767,_RNCNvMsk_NtNtCsfZPcC2TrjjJ_17cedar_policy_core3ast4exprNtB7_4Expr9cmp_shapesb_0Bb_
FN:1784,_RNCNvMsk_NtNtCsfZPcC2TrjjJ_17cedar_policy_core3ast4exprNtB7_4Expr9cmp_shapesc_0Bb_
FN:208,_RNCNvXs0_NtNtCsfZPcC2TrjjJ_17cedar_policy_core3ast4exprNtB7_4ExprINtNtCsaNl6UpbT7bw_4core7convert4FromNtNtB9_5value9ValueKindE4from0Bb_
FN:216,_RNCNvXs0_NtNtCsfZPcC2TrjjJ_17cedar_policy_core3ast4exprNtB7_4ExprINtNtCsaNl6UpbT7bw_4core7convert4FromNtNtB9_5value9ValueKindE4froms_0Bb_
FN:910,_RNCNvXs5_NtNtCsfZPcC2TrjjJ_17cedar_policy_core3ast4exprNtB7_19UntypedSubstitutionNtB7_20SubstitutionFunction10substitute0Bb_
FN:911,_RNCNvXs5_NtNtCsfZPcC2TrjjJ_17cedar_policy_core3ast4exprNtB7_19UntypedSubstitutionNtB7_20SubstitutionFunction10substitutes_0Bb_
FN:174,_RNvMNtNtCsfZPcC2TrjjJ_17cedar_policy_core3ast4exprNtB2_8ExprKind13variant_orderB6_
FN:272,_RNvMs2_NtNtCsfZPcC2TrjjJ_17cedar_policy_core3ast4exprINtB5_4ExprINtNtCsaNl6UpbT7bw_4core6option6OptionNtNtNtB9_9validator5types4TypeEE10source_locB9_
FN:250,_RNvMs2_NtNtCsfZPcC2TrjjJ_17cedar_policy_core3ast4exprINtB5_4ExprINtNtCsaNl6UpbT7bw_4core6option6OptionNtNtNtB9_9validator5types4TypeEE14into_expr_kindB9_
FN:277,_RNvMs2_NtNtCsfZPcC2TrjjJ_17cedar_policy_core3ast4exprINtB5_4ExprINtNtCsaNl6UpbT7bw_4core6option6OptionNtNtNtB9_9validator5types4TypeEE21with_maybe_source_locB9_
FN:234,_RNvMs2_NtNtCsfZPcC2TrjjJ_17cedar_policy_core3ast4exprINtB5_4ExprINtNtCsaNl6UpbT7bw_4core6option6OptionNtNtNtB9_9validator5types4TypeEE3newB9_
FN:255,_RNvMs2_NtNtCsfZPcC2TrjjJ_17cedar_policy_core3ast4exprINtB5_4ExprINtNtCsaNl6UpbT7bw_4core6option6OptionNtNtNtB9_9validator5types4TypeEE4dataB9_
FN:283,_RNvMs2_NtNtCsfZPcC2TrjjJ_17cedar_policy_core3ast4exprINtB5_4ExprINtNtCsaNl6UpbT7bw_4core6option6OptionNtNtNtB9_9validator5types4TypeEE8set_dataB9_
FN:245,_RNvMs2_NtNtCsfZPcC2TrjjJ_17cedar_policy_core3ast4exprINtB5_4ExprINtNtCsaNl6UpbT7bw_4core6option6OptionNtNtNtB9_9validator5types4TypeEE9expr_kindB9_
FN:261,_RNvMs2_NtNtCsfZPcC2TrjjJ_17cedar_policy_core3ast4exprINtB5_4ExprINtNtCsaNl6UpbT7bw_4core6option6OptionNtNtNtB9_9validator5types4TypeEE9into_dataB9_
FN:234,_RNvMs2_NtNtCsfZPcC2TrjjJ_17cedar_policy_core3ast4exprINtB5_4ExprReE3newB9_
FN:261,_RNvMs2_NtNtCsfZPcC2TrjjJ_17cedar_policy_core3ast4exprINtB5_4ExprReE9into_dataB9_
FN:234,_RNvMs2_NtNtCsfZPcC2TrjjJ_17cedar_policy_core3ast4exprINtB5_4ExprlE3newB9_
FN:245,_RNvMs2_NtNtCsfZPcC2TrjjJ_17cedar_policy_core3ast4exprINtB5_4ExprlE9expr_kindB9_
FN:272,_RNvMs2_NtNtCsfZPcC2TrjjJ_17cedar_policy_core3ast4exprNtB5_4Expr10source_locB9_
FN:358,_RNvMs2_NtNtCsfZPcC2TrjjJ_17cedar_policy_core3ast4exprNtB5_4Expr11try_type_ofB9_
FN:250,_RNvMs2_NtNtCsfZPcC2TrjjJ_17cedar_policy_core3ast4exprNtB5_4Expr14into_expr_kindB9_
FN:334,_RNvMs2_NtNtCsfZPcC2TrjjJ_17cedar_policy_core3ast4exprNtB5_4Expr14is_projectableB9_
FN:315,_RNvMs2_NtNtCsfZPcC2TrjjJ_17cedar_policy_core3ast4exprNtB5_4Expr14subexpressionsB9_
FN:277,_RNvMs2_NtNtCsfZPcC2TrjjJ_17cedar_policy_core3ast4exprNtB5_4Expr21with_maybe_source_locB9_
FN:234,_RNvMs2_NtNtCsfZPcC2TrjjJ_17cedar_policy_core3ast4exprNtB5_4Expr3newB9_
FN:320,_RNvMs2_NtNtCsfZPcC2TrjjJ_17cedar_policy_core3ast4exprNtB5_4Expr5slotsB9_
FN:245,_RNvMs2_NtNtCsfZPcC2TrjjJ_17cedar_policy_core3ast4exprNtB5_4Expr9expr_kindB9_
FN:1331,_RNvMsc_NtNtCsfZPcC2TrjjJ_17cedar_policy_core3ast4exprINtB5_11ExprBuilderINtNtCsaNl6UpbT7bw_4core6option6OptionNtNtNtB9_9validator5types4TypeEE14with_expr_kindB9_
FN:1331,_RNvMsc_NtNtCsfZPcC2TrjjJ_17cedar_policy_core3ast4exprINtB5_11ExprBuilderReE14with_expr_kindB9_
FN:1331,_RNvMsc_NtNtCsfZPcC2TrjjJ_17cedar_policy_core3ast4exprINtB5_11ExprBuilderlE14with_expr_kindB9_
FN:1341,_RNvMsc_NtNtCsfZPcC2TrjjJ_17cedar_policy_core3ast4exprINtB5_11ExprBuilderuE10record_arcB9_
FN:1331,_RNvMsc_NtNtCsfZPcC2TrjjJ_17cedar_policy_core3ast4exprINtB5_11ExprBuilderuE14with_expr_kindB9_
FN:1411,_RNvMse_NtNtCsfZPcC2TrjjJ_17cedar_policy_core3ast4exprINtB5_13ExprShapeOnlylE17new_from_borrowedB9_
FN:1418,_RNvMse_NtNtCsfZPcC2TrjjJ_17cedar_policy_core3ast4exprNtB5_13ExprShapeOnly14new_from_ownedB9_
FN:1411,_RNvMse_NtNtCsfZPcC2TrjjJ_17cedar_policy_core3ast4exprNtB5_13ExprShapeOnly17new_from_borrowedB9_
FN:1653,_RNvMsk_NtNtCsfZPcC2TrjjJ_17cedar_policy_core3ast4exprNtB5_4Expr9cmp_shapeB9_
FN:916,_RNvXs6_NtNtCsfZPcC2TrjjJ_17cedar_policy_core3ast4exprINtB5_4ExprINtNtCsaNl6UpbT7bw_4core6option6OptionNtNtNtB9_9validator5types4TypeEENtNtB15_3fmt7Display3fmtB9_
FN:916,_RNvXs6_NtNtCsfZPcC2TrjjJ_17cedar_policy_core3ast4exprNtB5_4ExprNtNtCsaNl6UpbT7bw_4core3fmt7Display3fmtB9_
FN:1294,_RNvXsb_NtNtCsfZPcC2TrjjJ_17cedar_policy_core3ast4exprINtB5_11ExprBuilderINtNtCsaNl6UpbT7bw_4core6option6OptionNtNtNtB9_9validator5types4TypeEENtNtB9_12expr_builder11ExprBuilder12get_attr_arcB9_
FN:1302,_RNvXsb_NtNtCsfZPcC2TrjjJ_17cedar_policy_core3ast4exprINtB5_11ExprBuilderINtNtCsaNl6UpbT7bw_4core6option6OptionNtNtNtB9_9validator5types4TypeEENtNtB9_12expr_builder11ExprBuilder12has_attr_arcB9_
FN:1317,_RNvXsb_NtNtCsfZPcC2TrjjJ_17cedar_policy_core3ast4exprINtB5_11ExprBuilderINtNtCsaNl6UpbT7bw_4core6option6OptionNtNtNtB9_9validator5types4TypeEENtNtB9_12expr_builder11ExprBuilder18is_entity_type_arcB9_
FN:1028,_RNvXsb_NtNtCsfZPcC2TrjjJ_17cedar_policy_core3ast4exprINtB5_11ExprBuilderINtNtCsaNl6UpbT7bw_4core6option6OptionNtNtNtB9_9validator5types4TypeEENtNtB9_12expr_builder11ExprBuilder21with_maybe_source_locB9_
FN:1102,_RNvXsb_NtNtCsfZPcC2TrjjJ_17cedar_policy_core3ast4exprINtB5_11ExprBuilderINtNtCsaNl6UpbT7bw_4core6option6OptionNtNtNtB9_9validator5types4TypeEENtNtB9_12expr_builder11ExprBuilder2orB9_
FN:1089,_RNvXsb_NtNtCsfZPcC2TrjjJ_17cedar_policy_core3ast4exprINtB5_11ExprBuilderINtNtCsaNl6UpbT7bw_4core6option6OptionNtNtNtB9_9validator5types4TypeEENtNtB9_12expr_builder11ExprBuilder3andB9_
FN:1152,_RNvXsb_NtNtCsfZPcC2TrjjJ_17cedar_policy_core3ast4exprINtB5_11ExprBuilderINtNtCsaNl6UpbT7bw_4core6option6OptionNtNtNtB9_9validator5types4TypeEENtNtB9_12expr_builder11ExprBuilder3mulB9_
FN:1161,_RNvXsb_NtNtCsfZPcC2TrjjJ_17cedar_policy_core3ast4exprINtB5_11ExprBuilderINtNtCsaNl6UpbT7bw_4core6option6OptionNtNtNtB9_9validator5types4TypeEENtNtB9_12expr_builder11ExprBuilder3negB9_
FN:1072,_RNvXsb_NtNtCsfZPcC2TrjjJ_17cedar_policy_core3ast4exprINtB5_11ExprBuilderINtNtCsaNl6UpbT7bw_4core6option6OptionNtNtNtB9_9validator5types4TypeEENtNtB9_12expr_builder11ExprBuilder3notB9_
FN:1046,_RNvXsb_NtNtCsfZPcC2TrjjJ_17cedar_policy_core3ast4exprINtB5_11ExprBuilderINtNtCsaNl6UpbT7bw_4core6option6OptionNtNtNtB9_9validator5types4TypeEENtNtB9_12expr_builder11ExprBuilder3varB9_
FN:1116,_RNvXsb_NtNtCsfZPcC2TrjjJ_17cedar_policy_core3ast4exprINtB5_11ExprBuilderINtNtCsaNl6UpbT7bw_4core6option6OptionNtNtNtB9_9validator5types4TypeEENtNtB9_12expr_builder11ExprBuilder4lessB9_
FN:1309,_RNvXsb_NtNtCsfZPcC2TrjjJ_17cedar_policy_core3ast4exprINtB5_11ExprBuilderINtNtCsaNl6UpbT7bw_4core6option6OptionNtNtNtB9_9validator5types4TypeEENtNtB9_12expr_builder11ExprBuilder4likeB9_
FN:1051,_RNvXsb_NtNtCsfZPcC2TrjjJ_17cedar_policy_core3ast4exprINtB5_11ExprBuilderINtNtCsaNl6UpbT7bw_4core6option6OptionNtNtNtB9_9validator5types4TypeEENtNtB9_12expr_builder11ExprBuilder4slotB9_
FN:1125,_RNvXsb_NtNtCsfZPcC2TrjjJ_17cedar_policy_core3ast4exprINtB5_11ExprBuilderINtNtCsaNl6UpbT7bw_4core6option6OptionNtNtNtB9_9validator5types4TypeEENtNtB9_12expr_builder11ExprBuilder6lesseqB9_
FN:1217,_RNvXsb_NtNtCsfZPcC2TrjjJ_17cedar_policy_core3ast4exprINtB5_11ExprBuilderINtNtCsaNl6UpbT7bw_4core6option6OptionNtNtNtB9_9validator5types4TypeEENtNtB9_12expr_builder11ExprBuilder7get_tagB9_
FN:1227,_RNvXsb_NtNtCsfZPcC2TrjjJ_17cedar_policy_core3ast4exprINtB5_11ExprBuilderINtNtCsaNl6UpbT7bw_4core6option6OptionNtNtNtB9_9validator5types4TypeEENtNtB9_12expr_builder11ExprBuilder7has_tagB9_
FN:1058,_RNvXsb_NtNtCsfZPcC2TrjjJ_17cedar_policy_core3ast4exprINtB5_11ExprBuilderINtNtCsaNl6UpbT7bw_4core6option6OptionNtNtNtB9_9validator5types4TypeEENtNtB9_12expr_builder11ExprBuilder7ite_arcB9_
FN:1041,_RNvXsb_NtNtCsfZPcC2TrjjJ_17cedar_policy_core3ast4exprINtB5_11ExprBuilderINtNtCsaNl6UpbT7bw_4core6option6OptionNtNtNtB9_9validator5types4TypeEENtNtB9_12expr_builder11ExprBuilder7unknownB9_
FN:1208,_RNvXsb_NtNtCsfZPcC2TrjjJ_17cedar_policy_core3ast4exprINtB5_11ExprBuilderINtNtCsaNl6UpbT7bw_4core6option6OptionNtNtNtB9_9validator5types4TypeEENtNtB9_12expr_builder11ExprBuilder8is_emptyB9_
FN:1171,_RNvXsb_NtNtCsfZPcC2TrjjJ_17cedar_policy_core3ast4exprINtB5_11ExprBuilderINtNtCsaNl6UpbT7bw_4core6option6OptionNtNtNtB9_9validator5types4TypeEENtNtB9_12expr_builder11ExprBuilder9is_in_arcB9_
FN:1021,_RNvXsb_NtNtCsfZPcC2TrjjJ_17cedar_policy_core3ast4exprINtB5_11ExprBuilderINtNtCsaNl6UpbT7bw_4core6option6OptionNtNtNtB9_9validator5types4TypeEENtNtB9_12expr_builder11ExprBuilder9with_dataB9_
FN:1021,_RNvXsb_NtNtCsfZPcC2TrjjJ_17cedar_policy_core3ast4exprINtB5_11ExprBuilderReENtNtB9_12expr_builder11ExprBuilder9with_dataB9_
FN:1190,_RNvXsb_NtNtCsfZPcC2TrjjJ_17cedar_policy_core3ast4exprINtB5_11ExprBuilderlENtNtB9_12expr_builder11ExprBuilder12contains_allB9_
FN:1199,_RNvXsb_NtNtCsfZPcC2TrjjJ_17cedar_policy_core3ast4exprINtB5_11ExprBuilderlENtNtB9_12expr_builder11ExprBuilder12contains_anyB9_
FN:1294,_RNvXsb_NtNtCsfZPcC2TrjjJ_17cedar_policy_core3ast4exprINtB5_11ExprBuilderlENtNtB9_12expr_builder11ExprBuilder12get_attr_arcB9_
FN:1302,_RNvXsb_NtNtCsfZPcC2TrjjJ_17cedar_policy_core3ast4exprINtB5_11ExprBuilderlENtNtB9_12expr_builder11ExprBuilder12has_attr_arcB9_
FN:1317,_RNvXsb_NtNtCsfZPcC2TrjjJ_17cedar_policy_core3ast4exprINtB5_11ExprBuilderlENtNtB9_12expr_builder11ExprBuilder18is_entity_type_arcB9_
FN:1102,_RNvXsb_NtNtCsfZPcC2TrjjJ_17cedar_policy_core3ast4exprINtB5_11ExprBuilderlENtNtB9_12expr_builder11ExprBuilder2orB9_
FN:1134,_RNvXsb_NtNtCsfZPcC2TrjjJ_17cedar_policy_core3ast4exprINtB5_11ExprBuilderlENtNtB9_12expr_builder11ExprBuilder3addB9_
FN:1089,_RNvXsb_NtNtCsfZPcC2TrjjJ_17cedar_policy_core3ast4exprINtB5_11ExprBuilderlENtNtB9_12expr_builder11ExprBuilder3andB9_
FN:1152,_RNvXsb_NtNtCsfZPcC2TrjjJ_17cedar_policy_core3ast4exprINtB5_11ExprBuilderlENtNtB9_12expr_builder11ExprBuilder3mulB9_
FN:1161,_RNvXsb_NtNtCsfZPcC2TrjjJ_17cedar_policy_core3ast4exprINtB5_11ExprBuilderlENtNtB9_12expr_builder11ExprBuilder3negB9_
FN:1072,_RNvXsb_NtNtCsfZPcC2TrjjJ_17cedar_policy_core3ast4exprINtB5_11ExprBuilderlENtNtB9_12expr_builder11ExprBuilder3notB9_
FN:1143,_RNvXsb_NtNtCsfZPcC2TrjjJ_17cedar_policy_core3ast4exprINtB5_11ExprBuilderlENtNtB9_12expr_builder11ExprBuilder3subB9_
FN:1046,_RNvXsb_NtNtCsfZPcC2TrjjJ_17cedar_policy_core3ast4exprINtB5_11ExprBuilderlENtNtB9_12expr_builder11ExprBuilder3varB9_
FN:1116,_RNvXsb_NtNtCsfZPcC2TrjjJ_17cedar_policy_core3ast4exprINtB5_11ExprBuilderlENtNtB9_12expr_builder11ExprBuilder4lessB9_
FN:1309,_RNvXsb_NtNtCsfZPcC2TrjjJ_17cedar_policy_core3ast4exprINtB5_11ExprBuilderlENtNtB9_12expr_builder11ExprBuilder4likeB9_
FN:1051,_RNvXsb_NtNtCsfZPcC2TrjjJ_17cedar_policy_core3ast4exprINtB5_11ExprBuilderlENtNtB9_12expr_builder11ExprBuilder4slotB9_
FN:1080,_RNvXsb_NtNtCsfZPcC2TrjjJ_17cedar_policy_core3ast4exprINtB5_11ExprBuilderlENtNtB9_12expr_builder11ExprBuilder5is_eqB9_
FN:1125,_RNvXsb_NtNtCsfZPcC2TrjjJ_17cedar_policy_core3ast4exprINtB5_11ExprBuilderlENtNtB9_12expr_builder11ExprBuilder6lesseqB9_
FN:1058,_RNvXsb_NtNtCsfZPcC2TrjjJ_17cedar_policy_core3ast4exprINtB5_11ExprBuilderlENtNtB9_12expr_builder11ExprBuilder7ite_arcB9_
FN:1181,_RNvXsb_NtNtCsfZPcC2TrjjJ_17cedar_policy_core3ast4exprINtB5_11ExprBuilderlENtNtB9_12expr_builder11ExprBuilder8containsB9_
FN:1208,_RNvXsb_NtNtCsfZPcC2TrjjJ_17cedar_policy_core3ast4exprINtB5_11ExprBuilderlENtNtB9_12expr_builder11ExprBuilder8is_emptyB9_
FN:1171,_RNvXsb_NtNtCsfZPcC2TrjjJ_17cedar_policy_core3ast4exprINtB5_11ExprBuilderlENtNtB9_12expr_builder11ExprBuilder9is_in_arcB9_
FN:1021,_RNvXsb_NtNtCsfZPcC2TrjjJ_17cedar_policy_core3ast4exprINtB5_11ExprBuilderlENtNtB9_12expr_builder11ExprBuilder9with_dataB9_
FN:1190,_RNvXsb_NtNtCsfZPcC2TrjjJ_17cedar_policy_core3ast4exprINtB5_11ExprBuilderuENtNtB9_12expr_builder11ExprBuilder12contains_allB9_
FN:1199,_RNvXsb_NtNtCsfZPcC2TrjjJ_17cedar_policy_core3ast4exprINtB5_11ExprBuilderuENtNtB9_12expr_builder11ExprBuilder12contains_anyB9_
FN:1294,_RNvXsb_NtNtCsfZPcC2TrjjJ_17cedar_policy_core3ast4exprINtB5_11ExprBuilderuENtNtB9_12expr_builder11ExprBuilder12get_attr_arcB9_
FN:1302,_RNvXsb_NtNtCsfZPcC2TrjjJ_17cedar_policy_core3ast4exprINtB5_11ExprBuilderuENtNtB9_12expr_builder11ExprBuilder12has_attr_arcB9_
FN:1317,_RNvXsb_NtNtCsfZPcC2TrjjJ_17cedar_policy_core3ast4exprINtB5_11ExprBuilderuENtNtB9_12expr_builder11ExprBuilder18is_entity_type_arcB9_
FN:1028,_RNvXsb_NtNtCsfZPcC2TrjjJ_17cedar_policy_core3ast4exprINtB5_11ExprBuilderuENtNtB9_12expr_builder11ExprBuilder21with_maybe_source_locB9_
FN:1102,_RNvXsb_NtNtCsfZPcC2TrjjJ_17cedar_policy_core3ast4exprINtB5_11ExprBuilderuENtNtB9_12expr_builder11ExprBuilder2orB9_
FN:1134,_RNvXsb_NtNtCsfZPcC2TrjjJ_17cedar_policy_core3ast4exprINtB5_11ExprBuilderuENtNtB9_12expr_builder11ExprBuilder3addB9_
FN:1089,_RNvXsb_NtNtCsfZPcC2TrjjJ_17cedar_policy_core3ast4exprINtB5_11ExprBuilderuENtNtB9_12expr_builder11ExprBuilder3andB9_
FN:1013,_RNvXsb_NtNtCsfZPcC2TrjjJ_17cedar_policy_core3ast4exprINtB5_11ExprBuilderuENtNtB9_12expr_builder11ExprBuilder3locB9_
FN:1152,_RNvXsb_NtNtCsfZPcC2TrjjJ_17cedar_policy_core3ast4exprINtB5_11ExprBuilderuENtNtB9_12expr_builder11ExprBuilder3mulB9_
FN:1161,_RNvXsb_NtNtCsfZPcC2TrjjJ_17cedar_policy_core3ast4exprINtB5_11ExprBuilderuENtNtB9_12expr_builder11ExprBuilder3negB9_
FN:1072,_RNvXsb_NtNtCsfZPcC2TrjjJ_17cedar_policy_core3ast4exprINtB5_11ExprBuilderuENtNtB9_12expr_builder11ExprBuilder3notB9_
FN:1143,_RNvXsb_NtNtCsfZPcC2TrjjJ_17cedar_policy_core3ast4exprINtB5_11ExprBuilderuENtNtB9_12expr_builder11ExprBuilder3subB9_
FN:1046,_RNvXsb_NtNtCsfZPcC2TrjjJ_17cedar_policy_core3ast4exprINtB5_11ExprBuilderuENtNtB9_12expr_builder11ExprBuilder3varB9_
FN:1116,_RNvXsb_NtNtCsfZPcC2TrjjJ_17cedar_policy_core3ast4exprINtB5_11ExprBuilderuENtNtB9_12expr_builder11ExprBuilder4lessB9_
FN:1309,_RNvXsb_NtNtCsfZPcC2TrjjJ_17cedar_policy_core3ast4exprINtB5_11ExprBuilderuENtNtB9_12expr_builder11ExprBuilder4likeB9_
FN:1051,_RNvXsb_NtNtCsfZPcC2TrjjJ_17cedar_policy_core3ast4exprINtB5_11ExprBuilderuENtNtB9_12expr_builder11ExprBuilder4slotB9_
FN:1080,_RNvXsb_NtNtCsfZPcC2TrjjJ_17cedar_policy_core3ast4exprINtB5_11ExprBuilderuENtNtB9_12expr_builder11ExprBuilder5is_eqB9_
FN:1125,_RNvXsb_NtNtCsfZPcC2TrjjJ_17cedar_policy_core3ast4exprINtB5_11ExprBuilderuENtNtB9_12expr_builder11ExprBuilder6lesseqB9_
FN:1217,_RNvXsb_NtNtCsfZPcC2TrjjJ_17cedar_policy_core3ast4exprINtB5_11ExprBuilderuENtNtB9_12expr_builder11ExprBuilder7get_tagB9_
FN:1227,_RNvXsb_NtNtCsfZPcC2TrjjJ_17cedar_policy_core3ast4exprINtB5_11ExprBuilderuENtNtB9_12expr_builder11ExprBuilder7has_tagB9_
FN:1058,_RNvXsb_NtNtCsfZPcC2TrjjJ_17cedar_policy_core3ast4exprINtB5_11ExprBuilderuENtNtB9_12expr_builder11ExprBuilder7ite_arcB9_
FN:1041,_RNvXsb_NtNtCsfZPcC2TrjjJ_17cedar_policy_core3ast4exprINtB5_11ExprBuilderuENtNtB9_12expr_builder11ExprBuilder7unknownB9_
FN:1181,_RNvXsb_NtNtCsfZPcC2TrjjJ_17cedar_policy_core3ast4exprINtB5_11ExprBuilderuENtNtB9_12expr_builder11ExprBuilder8containsB9_
FN:1208,_RNvXsb_NtNtCsfZPcC2TrjjJ_17cedar_policy_core3ast4exprINtB5_11ExprBuilderuENtNtB9_12expr_builder11ExprBuilder8is_emptyB9_
FN:1171,_RNvXsb_NtNtCsfZPcC2TrjjJ_17cedar_policy_core3ast4exprINtB5_11ExprBuilderuENtNtB9_12expr_builder11ExprBuilder9is_in_arcB9_
FN:1021,_RNvXsb_NtNtCsfZPcC2TrjjJ_17cedar_policy_core3ast4exprINtB5_11ExprBuilderuENtNtB9_12expr_builder11ExprBuilder9with_dataB9_
FN:1424,_RNvXsf_NtNtCsfZPcC2TrjjJ_17cedar_policy_core3ast4exprINtB5_13ExprShapeOnlylENtNtCsaNl6UpbT7bw_4core3cmp9PartialEq2eqB9_
FN:1424,_RNvXsf_NtNtCsfZPcC2TrjjJ_17cedar_policy_core3ast4exprNtB5_13ExprShapeOnlyNtNtCsaNl6UpbT7bw_4core3cmp9PartialEq2eqB9_
FN:1438,_RNvXsi_NtNtCsfZPcC2TrjjJ_17cedar_policy_core3ast4exprNtB5_13ExprShapeOnlyNtNtCsaNl6UpbT7bw_4core3cmp10PartialOrd11partial_cmpB9_
FN:1444,_RNvXsj_NtNtCsfZPcC2TrjjJ_17cedar_policy_core3ast4exprNtB5_13ExprShapeOnlyNtNtCsaNl6UpbT7bw_4core3cmp3Ord3cmpB9_
FN:1395,_RNvMNtNtNtCsfZPcC2TrjjJ_17cedar_policy_core3ast4expr30expression_construction_errorsNtB2_17DuplicateKeyError12with_context
FN:1879,_RNvNtNtNtCsfZPcC2TrjjJ_17cedar_policy_core3ast4expr4test8all_vars
FN:2066,_RNvNtNtNtCsfZPcC2TrjjJ_17cedar_policy_core3ast4expr4tests_10is_unknown
FN:2013,_RNvNtNtNtCsfZPcC2TrjjJ_17cedar_policy_core3ast4expr4tests_11has_display
FN:1988,_RNvNtNtNtCsfZPcC2TrjjJ_17cedar_policy_core3ast4expr4tests_12like_display
FN:2033,_RNvNtNtNtCsfZPcC2TrjjJ_17cedar_policy_core3ast4expr4tests_12simple_slots
FN:2023,_RNvNtNtNtCsfZPcC2TrjjJ_17cedar_policy_core3ast4expr4tests_12slot_display
FN:2082,_RNvNtNtNtCsfZPcC2TrjjJ_17cedar_policy_core3ast4expr4tests_14expr_with_data
FN:1885,_RNvNtNtNtCsfZPcC2TrjjJ_17cedar_policy_core3ast4expr4tests_16all_vars_are_ids
FN:2088,_RNvNtNtNtCsfZPcC2TrjjJ_17cedar_policy_core3ast4expr4tests_18expr_shape_only_eq
FN:2347,_RNvNtNtNtCsfZPcC2TrjjJ_17cedar_policy_core3ast4expr4tests_19typed_subst_present
FN:2295,_RNvNtNtNtCsfZPcC2TrjjJ_17cedar_policy_core3ast4expr4tests_21untyped_subst_present
FN:2226,_RNvNtNtNtCsfZPcC2TrjjJ_17cedar_policy_core3ast4expr4tests_22expr_shape_only_not_eq
FN:2383,_RNvNtNtNtCsfZPcC2TrjjJ_17cedar_policy_core3ast4expr4tests_23typed_subst_not_present
FN:2334,_RNvNtNtNtCsfZPcC2TrjjJ_17cedar_policy_core3ast4expr4tests_25untyped_subst_not_present
FN:2236,_RNvNtNtNtCsfZPcC2TrjjJ_17cedar_policy_core3ast4expr4tests_29expr_shape_only_set_prefix_ne
FN:2367,_RNvNtNtNtCsfZPcC2TrjjJ_17cedar_policy_core3ast4expr4tests_30typed_subst_present_wrong_type
FN:2357,_RNvNtNtNtCsfZPcC2TrjjJ_17cedar_policy_core3ast4expr4tests_32typed_subst_present_correct_type
FN:2321,_RNvNtNtNtCsfZPcC2TrjjJ_17cedar_policy_core3ast4expr4tests_32untyped_subst_present_wrong_type
FN:2308,_RNvNtNtNtCsfZPcC2TrjjJ_17cedar_policy_core3ast4expr4tests_34untyped_subst_present_correct_type
FN:2250,_RNvNtNtNtCsfZPcC2TrjjJ_17cedar_policy_core3ast4expr4tests_36expr_shape_only_ext_fn_arg_prefix_ne
FN:2273,_RNvNtNtNtCsfZPcC2TrjjJ_17cedar_policy_core3ast4expr4tests_37expr_shape_only_record_attr_prefix_ne
FN:1893,_RNvNtNtNtCsfZPcC2TrjjJ_17cedar_policy_core3ast4expr4tests_5exprs
FN:2052,_RNvNtNtNtCsfZPcC2TrjjJ_17cedar_policy_core3ast4expr4tests_8unknowns
FNDA:0,_RINvXININtNtCsfZPcC2TrjjJ_17cedar_policy_core3ast4exprsh_0pEINtB6_13ExprShapeOnlypENtNtCsaNl6UpbT7bw_4core4hash4Hash4hashpEBa_
FNDA:0,_RNCNvMs2_NtNtCsfZPcC2TrjjJ_17cedar_policy_core3ast4exprINtB7_4ExprpE10is_ref_set0Bb_
FNDA:0,_RNvMNtNtNtCsfZPcC2TrjjJ_17cedar_policy_core3ast4expr30expression_construction_errorsNtB2_17DuplicateKeyError3key
FNDA:0,_RNvMs2_NtNtCsfZPcC2TrjjJ_17cedar_policy_core3ast4exprINtB5_4ExprpE10into_partsB9_
FNDA:0,_RNvMs2_NtNtCsfZPcC2TrjjJ_17cedar_policy_core3ast4exprINtB5_4ExprpE10is_ref_setB9_
FNDA:0,_RNvMs2_NtNtCsfZPcC2TrjjJ_17cedar_policy_core3ast4exprINtB5_4ExprpE6is_refB9_
FNDA:0,_RNvMs2_NtNtCsfZPcC2TrjjJ_17cedar_policy_core3ast4exprINtB5_4ExprpE7is_slotB9_
FNDA:0,_RNvMs3_NtNtCsfZPcC2TrjjJ_17cedar_policy_core3ast4exprNtB5_4Expr10substitute
FNDA:0,_RNvXININtNtCsfZPcC2TrjjJ_17cedar_policy_core3ast4exprsb_0pEINtB5_11ExprBuilderpENtNtB9_12expr_builder11ExprBuilder4dataB9_
FNDA:0,_RNvXsa_NtNtCsfZPcC2TrjjJ_17cedar_policy_core3ast4exprNtB5_7UnknownNtNtCsaNl6UpbT7bw_4core3fmt7Display3fmt
FNDA:10,_RNvMs3_NtNtCsfZPcC2TrjjJ_17cedar_policy_core3ast4exprNtB5_4Expr10record_arc
FNDA:19,_RNvMs3_NtNtCsfZPcC2TrjjJ_17cedar_policy_core3ast4exprNtB5_4Expr12contains_all
FNDA:14,_RNvMs3_NtNtCsfZPcC2TrjjJ_17cedar_policy_core3ast4exprNtB5_4Expr12contains_any
FNDA:137,_RNvMs3_NtNtCsfZPcC2TrjjJ_17cedar_policy_core3ast4exprNtB5_4Expr14is_entity_type
FNDA:47,_RNvMs3_NtNtCsfZPcC2TrjjJ_17cedar_policy_core3ast4exprNtB5_4Expr16contains_unknown
FNDA:1,_RNvMs3_NtNtCsfZPcC2TrjjJ_17cedar_policy_core3ast4exprNtB5_4Expr16substitute_typed
FNDA:503,_RNvMs3_NtNtCsfZPcC2TrjjJ_17cedar_policy_core3ast4exprNtB5_4Expr17call_extension_fn
FNDA:41,_RNvMs3_NtNtCsfZPcC2TrjjJ_17cedar_policy_core3ast4exprNtB5_4Expr2or
FNDA:32,_RNvMs3_NtNtCsfZPcC2TrjjJ_17cedar_policy_core3ast4exprNtB5_4Expr3add
FNDA:12912,_RNvMs3_NtNtCsfZPcC2TrjjJ_17cedar_policy_core3ast4exprNtB5_4Expr3and
FNDA:65,_RNvMs3_NtNtCsfZPcC2TrjjJ_17cedar_policy_core3ast4exprNtB5_4Expr3ite
FNDA:35,_RNvMs3_NtNtCsfZPcC2TrjjJ_17cedar_policy_core3ast4exprNtB5_4Expr3mul
FNDA:25,_RNvMs3_NtNtCsfZPcC2TrjjJ_17cedar_policy_core3ast4exprNtB5_4Expr3neg
FNDA:36,_RNvMs3_NtNtCsfZPcC2TrjjJ_17cedar_policy_core3ast4exprNtB5_4Expr3not
FNDA:14,_RNvMs3_NtNtCsfZPcC2TrjjJ_17cedar_policy_core3ast4exprNtB5_4Expr3sub
FNDA:7301,_RNvMs3_NtNtCsfZPcC2TrjjJ_17cedar_policy_core3ast4exprNtB5_4Expr3var
FNDA:36,_RNvMs3_NtNtCsfZPcC2TrjjJ_17cedar_policy_core3ast4exprNtB5_4Expr4less
FNDA:19,_RNvMs3_NtNtCsfZPcC2TrjjJ_17cedar_policy_core3ast4exprNtB5_4Expr4like
FNDA:2300,_RNvMs3_NtNtCsfZPcC2TrjjJ_17cedar_policy_core3ast4exprNtB5_4Expr4slot
FNDA:3397,_RNvMs3_NtNtCsfZPcC2TrjjJ_17cedar_policy_core3ast4exprNtB5_4Expr5is_eq
FNDA:3788,_RNvMs3_NtNtCsfZPcC2TrjjJ_17cedar_policy_core3ast4exprNtB5_4Expr5is_in
FNDA:8,_RNvMs3_NtNtCsfZPcC2TrjjJ_17cedar_policy_core3ast4exprNtB5_4Expr5noteq
FNDA:23,_RNvMs3_NtNtCsfZPcC2TrjjJ_17cedar_policy_core3ast4exprNtB5_4Expr6lesseq
FNDA:12,_RNvMs3_NtNtCsfZPcC2TrjjJ_17cedar_policy_core3ast4exprNtB5_4Expr7get_tag
FNDA:20,_RNvMs3_NtNtCsfZPcC2TrjjJ_17cedar_policy_core3ast4exprNtB5_4Expr7greater
FNDA:12,_RNvMs3_NtNtCsfZPcC2TrjjJ_17cedar_policy_core3ast4exprNtB5_4Expr7has_tag
FNDA:7,_RNvMs3_NtNtCsfZPcC2TrjjJ_17cedar_policy_core3ast4exprNtB5_4Expr7ite_arc
FNDA:323,_RNvMs3_NtNtCsfZPcC2TrjjJ_17cedar_policy_core3ast4exprNtB5_4Expr7unknown
FNDA:25,_RNvMs3_NtNtCsfZPcC2TrjjJ_17cedar_policy_core3ast4exprNtB5_4Expr8contains
FNDA:175,_RNvMs3_NtNtCsfZPcC2TrjjJ_17cedar_policy_core3ast4exprNtB5_4Expr8get_attr
FNDA:33,_RNvMs3_NtNtCsfZPcC2TrjjJ_17cedar_policy_core3ast4exprNtB5_4Expr8has_attr
FNDA:10,_RNvMs3_NtNtCsfZPcC2TrjjJ_17cedar_policy_core3ast4exprNtB5_4Expr8is_empty
FNDA:1,_RNvMs3_NtNtCsfZPcC2TrjjJ_17cedar_policy_core3ast4exprNtB5_4Expr8unknowns
FNDA:13,_RNvMs3_NtNtCsfZPcC2TrjjJ_17cedar_policy_core3ast4exprNtB5_4Expr9greatereq
FNDA:132,_RNvXs0_NtNtCsfZPcC2TrjjJ_17cedar_policy_core3ast4exprNtB5_4ExprINtNtCsaNl6UpbT7bw_4core7convert4FromNtNtB7_5value9ValueKindE4from
FNDA:17,_RNvXs1_NtNtCsfZPcC2TrjjJ_17cedar_policy_core3ast4exprNtB5_4ExprINtNtCsaNl6UpbT7bw_4core7convert4FromNtNtB7_13partial_value12PartialValueE4from
FNDA:5,_RNvXs4_NtNtCsfZPcC2TrjjJ_17cedar_policy_core3ast4exprNtB5_17TypedSubstitutionNtB5_20SubstitutionFunction10substitute
FNDA:4,_RNvXs5_NtNtCsfZPcC2TrjjJ_17cedar_policy_core3ast4exprNtB5_19UntypedSubstitutionNtB5_20SubstitutionFunction10substitute
FNDA:249,_RNvXs8_NtNtCsfZPcC2TrjjJ_17cedar_policy_core3ast4exprNtB5_4ExprNtNtNtCsaNl6UpbT7bw_4core3str6traits7FromStr8from_str
FNDA:132,_RNvXs_NtNtCsfZPcC2TrjjJ_17cedar_policy_core3ast4exprNtB4_4ExprINtNtCsaNl6UpbT7bw_4core7convert4FromNtNtB6_5value5ValueE4from
FNDA:5312,_RNvXsl_NtNtCsfZPcC2TrjjJ_17cedar_policy_core3ast4exprNtB5_3VarINtNtCsaNl6UpbT7bw_4core7convert4FromNtNtB7_6policy19PrincipalOrResourceE4from
FNDA:734,_RNvXso_NtNtCsfZPcC2TrjjJ_17cedar_policy_core3ast4exprNtB5_3VarNtNtCsaNl6UpbT7bw_4core3fmt7Display3fmt
FNDA:14,_RNvXsm_NtNtCsfZPcC2TrjjJ_17cedar_policy_core3ast4exprNtNtB7_2id2IdINtNtCsaNl6UpbT7bw_4core7convert4FromNtB5_3VarE4from
FNDA:10,_RNvXsn_NtNtCsfZPcC2TrjjJ_17cedar_policy_core3ast4exprNtNtB7_2id12UnreservedIdINtNtCsaNl6UpbT7bw_4core7convert4FromNtB5_3VarE4from
FNDA:66,_RINvMs2_NtNtCsfZPcC2TrjjJ_17cedar_policy_core3ast4exprINtB6_4ExprINtNtCsaNl6UpbT7bw_4core6option6OptionNtNtNtBa_9validator5types4TypeEE9into_exprINtB6_11ExprBuilderuEEBa_
FNDA:308,_RINvMs2_NtNtCsfZPcC2TrjjJ_17cedar_policy_core3ast4exprINtB6_4ExprINtNtCsaNl6UpbT7bw_4core6option6OptionNtNtNtBa_9validator5types4TypeEE9into_exprNtNtNtBa_3est4expr7BuilderEBa_
FNDA:925,_RINvMs2_NtNtCsfZPcC2TrjjJ_17cedar_policy_core3ast4exprNtB6_4Expr9into_exprNtNtNtBa_3est4expr7BuilderEBa_
FNDA:256,_RINvMs2_NtNtCsfZPcC2TrjjJ_17cedar_policy_core3ast4exprNtB6_4Expr9into_exprNtNtNtBa_3pst4expr10PstBuilderEBa_
FNDA:202,_RINvMs3_NtNtCsfZPcC2TrjjJ_17cedar_policy_core3ast4exprNtB6_4Expr10binary_appNtNtB8_3ops8BinaryOpEBa_
FNDA:5,_RINvMs3_NtNtCsfZPcC2TrjjJ_17cedar_policy_core3ast4exprNtB6_4Expr18substitute_generalNtB6_17TypedSubstitutionEBa_
FNDA:3,_RINvMs3_NtNtCsfZPcC2TrjjJ_17cedar_policy_core3ast4exprNtB6_4Expr3setABQ_j0_EBa_
FNDA:12,_RINvMs3_NtNtCsfZPcC2TrjjJ_17cedar_policy_core3ast4exprNtB6_4Expr3setABQ_j1_EBa_
FNDA:3,_RINvMs3_NtNtCsfZPcC2TrjjJ_17cedar_policy_core3ast4exprNtB6_4Expr3setABQ_j2_EBa_
FNDA:6,_RINvMs3_NtNtCsfZPcC2TrjjJ_17cedar_policy_core3ast4exprNtB6_4Expr3setABQ_j3_EBa_
FNDA:117,_RINvMs3_NtNtCsfZPcC2TrjjJ_17cedar_policy_core3ast4exprNtB6_4Expr3setINtNtCsiTraAjBDcu4_5alloc3vec3VecBQ_EEBa_
FNDA:2,_RINvMs3_NtNtCsfZPcC2TrjjJ_17cedar_policy_core3ast4exprNtB6_4Expr3setINtNtNtCsiTraAjBDcu4_5alloc3vec9into_iter8IntoIterBQ_EEBa_
FNDA:40,_RINvMs3_NtNtCsfZPcC2TrjjJ_17cedar_policy_core3ast4exprNtB6_4Expr3setINtNtNtNtCsaNl6UpbT7bw_4core4iter8adapters3map3MapIB15_INtNtNtNtCsiTraAjBDcu4_5alloc11collections5btree3set4IterNtNtB8_5value5ValueENCNvXs0_NtB8_15restricted_exprNtB3k_14RestrictedExprINtNtB1d_7convert4FromNtB2U_9ValueKindE4from0ENvYB3G_INtB45_4IntoBQ_E4intoEEBa_
FNDA:1432,_RINvMs3_NtNtCsfZPcC2TrjjJ_17cedar_policy_core3ast4exprNtB6_4Expr3setINtNtNtNtCsaNl6UpbT7bw_4core4iter8adapters3map3MapINtNtB19_6cloned6ClonedINtNtNtB1d_5slice4iter4IterINtNtCsiTraAjBDcu4_5alloc4sync3ArcNtNtB8_6entity9EntityUIDEEEINvB2_3valB2G_EEEBa_
FNDA:46,_RINvMs3_NtNtCsfZPcC2TrjjJ_17cedar_policy_core3ast4exprNtB6_4Expr3setINtNtNtNtCsaNl6UpbT7bw_4core4iter8adapters3map3MapINtNtNtB1d_5array4iter8IntoIterNtNtB8_15restricted_expr14RestrictedExprKj0_ENvYB2n_INtNtB1d_7convert4IntoBQ_E4intoEEBa_
FNDA:2,_RINvMs3_NtNtCsfZPcC2TrjjJ_17cedar_policy_core3ast4exprNtB6_4Expr3setINtNtNtNtCsaNl6UpbT7bw_4core4iter8adapters3map3MapINtNtNtB1d_5array4iter8IntoIterNtNtB8_15restricted_expr14RestrictedExprKj1_ENvYB2n_INtNtB1d_7convert4IntoBQ_E4intoEEBa_
FNDA:2,_RINvMs3_NtNtCsfZPcC2TrjjJ_17cedar_policy_core3ast4exprNtB6_4Expr3setINtNtNtNtCsaNl6UpbT7bw_4core4iter8adapters3map3MapINtNtNtB1d_5array4iter8IntoIterNtNtB8_15restricted_expr14RestrictedExprKj2_ENvYB2n_INtNtB1d_7convert4IntoBQ_E4intoEEBa_
FNDA:2,_RINvMs3_NtNtCsfZPcC2TrjjJ_17cedar_policy_core3ast4exprNtB6_4Expr3setINtNtNtNtCsaNl6UpbT7bw_4core4iter8adapters3map3MapINtNtNtB1d_5array4iter8IntoIterNtNtB8_15restricted_expr14RestrictedExprKj3_ENvYB2n_INtNtB1d_7convert4IntoBQ_E4intoEEBa_
FNDA:42,_RINvMs3_NtNtCsfZPcC2TrjjJ_17cedar_policy_core3ast4exprNtB6_4Expr3setINtNtNtNtCsaNl6UpbT7bw_4core4iter8adapters3map3MapINtNtNtCsiTraAjBDcu4_5alloc3vec9into_iter8IntoIterNtNtB8_15restricted_expr14RestrictedExprENvYB2G_INtNtB1d_7convert4IntoBQ_E4intoEEBa_
FNDA:0,_RINvMs3_NtNtCsfZPcC2TrjjJ_17cedar_policy_core3ast4exprNtB6_4Expr3setINtNtNtNtCsaNl6UpbT7bw_4core4iter8adapters3map3MapINtNtNtNtCsiTraAjBDcu4_5alloc11collections5btree3set4IterNtNtB8_5value5ValueENCNvXs0_B6_BQ_INtNtB1d_7convert4FromNtB2P_9ValueKindE4from0EEBa_
FNDA:5822,_RINvMs3_NtNtCsfZPcC2TrjjJ_17cedar_policy_core3ast4exprNtB6_4Expr3valINtNtCsiTraAjBDcu4_5alloc4sync3ArcNtNtB8_6entity9EntityUIDEEBa_
FNDA:725,_RINvMs3_NtNtCsfZPcC2TrjjJ_17cedar_policy_core3ast4exprNtB6_4Expr3valNtCsbIodQZzabP8_8smol_str7SmolStrEBa_
FNDA:1107,_RINvMs3_NtNtCsfZPcC2TrjjJ_17cedar_policy_core3ast4exprNtB6_4Expr3valNtNtB8_6entity9EntityUIDEBa_
FNDA:775,_RINvMs3_NtNtCsfZPcC2TrjjJ_17cedar_policy_core3ast4exprNtB6_4Expr3valNtNtB8_7literal7LiteralEBa_
FNDA:563,_RINvMs3_NtNtCsfZPcC2TrjjJ_17cedar_policy_core3ast4exprNtB6_4Expr3valReEBa_
FNDA:9079,_RINvMs3_NtNtCsfZPcC2TrjjJ_17cedar_policy_core3ast4exprNtB6_4Expr3valbEBa_
FNDA:870,_RINvMs3_NtNtCsfZPcC2TrjjJ_17cedar_policy_core3ast4exprNtB6_4Expr3valxEBa_
FNDA:3,_RINvMs3_NtNtCsfZPcC2TrjjJ_17cedar_policy_core3ast4exprNtB6_4Expr6recordATNtCsbIodQZzabP8_8smol_str7SmolStrBQ_Ej0_EBa_
FNDA:16,_RINvMs3_NtNtCsfZPcC2TrjjJ_17cedar_policy_core3ast4exprNtB6_4Expr6recordATNtCsbIodQZzabP8_8smol_str7SmolStrBQ_Ej1_EBa_
FNDA:14,_RINvMs3_NtNtCsfZPcC2TrjjJ_17cedar_policy_core3ast4exprNtB6_4Expr6recordATNtCsbIodQZzabP8_8smol_str7SmolStrBQ_Ej2_EBa_
FNDA:4,_RINvMs3_NtNtCsfZPcC2TrjjJ_17cedar_policy_core3ast4exprNtB6_4Expr6recordATNtCsbIodQZzabP8_8smol_str7SmolStrBQ_Ej3_EBa_
FNDA:39,_RINvMs3_NtNtCsfZPcC2TrjjJ_17cedar_policy_core3ast4exprNtB6_4Expr6recordINtNtCsiTraAjBDcu4_5alloc3vec3VecTNtCsbIodQZzabP8_8smol_str7SmolStrBQ_EEEBa_
FNDA:55,_RINvMs3_NtNtCsfZPcC2TrjjJ_17cedar_policy_core3ast4exprNtB6_4Expr6recordINtNtNtNtCsaNl6UpbT7bw_4core4iter8adapters3map3MapIB18_INtNtNtNtCsiTraAjBDcu4_5alloc11collections5btree3map8IntoIterNtCsbIodQZzabP8_8smol_str7SmolStrNtNtB8_5value5ValueENCNvXs0_NtB8_15restricted_exprNtB3Y_14RestrictedExprINtNtB1g_7convert4FromNtB3y_9ValueKindE4froms_0ENCINvMB3Y_B4k_6recordB1V_E0EEBa_
FNDA:1,_RINvMs3_NtNtCsfZPcC2TrjjJ_17cedar_policy_core3ast4exprNtB6_4Expr6recordINtNtNtNtCsaNl6UpbT7bw_4core4iter8adapters3map3MapINtNtNtB1g_3ops5range14RangeInclusivelENCNvNtNtBa_9evaluator4tests_16large_record_err0EEBa_
FNDA:5,_RINvMs3_NtNtCsfZPcC2TrjjJ_17cedar_policy_core3ast4exprNtB6_4Expr6recordINtNtNtNtCsaNl6UpbT7bw_4core4iter8adapters3map3MapINtNtNtB1g_5array4iter8IntoIterTNtCsbIodQZzabP8_8smol_str7SmolStrNtNtB8_15restricted_expr14RestrictedExprEKj1_ENCINvMB30_B2Y_6recordAB2q_B3E_E0EEBa_
FNDA:5,_RINvMs3_NtNtCsfZPcC2TrjjJ_17cedar_policy_core3ast4exprNtB6_4Expr6recordINtNtNtNtCsaNl6UpbT7bw_4core4iter8adapters3map3MapINtNtNtB1g_5array4iter8IntoIterTNtCsbIodQZzabP8_8smol_str7SmolStrNtNtB8_15restricted_expr14RestrictedExprEKj2_ENCINvMB30_B2Y_6recordAB2q_B3E_E0EEBa_
FNDA:47,_RINvMs3_NtNtCsfZPcC2TrjjJ_17cedar_policy_core3ast4exprNtB6_4Expr6recordINtNtNtNtCsaNl6UpbT7bw_4core4iter8adapters3map3MapINtNtNtB1g_5array4iter8IntoIterTNtCsbIodQZzabP8_8smol_str7SmolStrNtNtB8_15restricted_expr14RestrictedExprEKj3_ENCINvMB30_B2Y_6recordAB2q_B3E_E0EEBa_
FNDA:1,_RINvMs3_NtNtCsfZPcC2TrjjJ_17cedar_policy_core3ast4exprNtB6_4Expr6recordINtNtNtNtCsaNl6UpbT7bw_4core4iter8adapters3map3MapINtNtNtB1g_5array4iter8IntoIterTNtCsbIodQZzabP8_8smol_str7SmolStrNtNtB8_15restricted_expr14RestrictedExprEKj5_ENCINvMB30_B2Y_6recordAB2q_B3E_E0EEBa_
FNDA:1,_RINvMs3_NtNtCsfZPcC2TrjjJ_17cedar_policy_core3ast4exprNtB6_4Expr6recordINtNtNtNtCsaNl6UpbT7bw_4core4iter8adapters3map3MapINtNtNtB1g_5array4iter8IntoIterTNtCsbIodQZzabP8_8smol_str7SmolStrNtNtB8_15restricted_expr14RestrictedExprEKj6_ENCINvMB30_B2Y_6recordAB2q_B3E_E0EEBa_
FNDA:1,_RINvMs3_NtNtCsfZPcC2TrjjJ_17cedar_policy_core3ast4exprNtB6_4Expr6recordINtNtNtNtCsaNl6UpbT7bw_4core4iter8adapters3map3MapINtNtNtB1g_5array4iter8IntoIterTNtCsbIodQZzabP8_8smol_str7SmolStrNtNtB8_15restricted_expr14RestrictedExprEKj9_ENCINvMB30_B2Y_6recordAB2q_B3E_E0EEBa_
FNDA:117,_RINvMs3_NtNtCsfZPcC2TrjjJ_17cedar_policy_core3ast4exprNtB6_4Expr6recordINtNtNtNtCsaNl6UpbT7bw_4core4iter8adapters3map3MapINtNtNtCsiTraAjBDcu4_5alloc3vec9into_iter8IntoIterTNtCsbIodQZzabP8_8smol_str7SmolStrNtNtB8_15restricted_expr14RestrictedExprEENCINvMB3j_B3h_6recordINtB20_3VecB2J_EE0EEBa_
FNDA:0,_RINvMs3_NtNtCsfZPcC2TrjjJ_17cedar_policy_core3ast4exprNtB6_4Expr6recordINtNtNtNtCsaNl6UpbT7bw_4core4iter8adapters3map3MapINtNtNtNtCsiTraAjBDcu4_5alloc11collections5btree3map8IntoIterNtCsbIodQZzabP8_8smol_str7SmolStrNtNtB8_5value5ValueENCNvXs0_B6_BQ_INtNtB1g_7convert4FromNtB3t_9ValueKindE4froms_0EEBa_
FNDA:25,_RINvMs3_NtNtCsfZPcC2TrjjJ_17cedar_policy_core3ast4exprNtB6_4Expr6recordINtNtNtNtCsaNl6UpbT7bw_4core4iter8adapters3zip3ZipINtNtNtCsiTraAjBDcu4_5alloc3vec9into_iter8IntoIterNtCsbIodQZzabP8_8smol_str7SmolStrEIB1W_BQ_EEEBa_
FNDA:4,_RINvMs3_NtNtCsfZPcC2TrjjJ_17cedar_policy_core3ast4exprNtB6_4Expr6recordINtNtNtNtCsht3nMU9UgFu_3std11collections4hash3map7HashMapNtCsbIodQZzabP8_8smol_str7SmolStrBQ_EEBa_
FNDA:0,_RINvMs3_NtNtCsfZPcC2TrjjJ_17cedar_policy_core3ast4exprNtB6_4Expr6recordINtNtNtNtCsiTraAjBDcu4_5alloc11collections5btree3map8BTreeMapNtCsbIodQZzabP8_8smol_str7SmolStrBQ_EEBa_
FNDA:8,_RINvMs3_NtNtCsfZPcC2TrjjJ_17cedar_policy_core3ast4exprNtB6_4Expr9unary_appNtNtB8_3ops7UnaryOpEBa_
FNDA:2,_RINvMs9_NtNtCsfZPcC2TrjjJ_17cedar_policy_core3ast4exprNtB6_7Unknown11new_untypedNtCsbIodQZzabP8_8smol_str7SmolStrEBa_
FNDA:195,_RINvMs9_NtNtCsfZPcC2TrjjJ_17cedar_policy_core3ast4exprNtB6_7Unknown11new_untypedReEBa_
FNDA:5,_RINvMs9_NtNtCsfZPcC2TrjjJ_17cedar_policy_core3ast4exprNtB6_7Unknown13new_with_typeNtCsbIodQZzabP8_8smol_str7SmolStrEBa_
FNDA:12162,_RINvMsd_NtNtCsfZPcC2TrjjJ_17cedar_policy_core3ast4exprINtB6_11ExprBuilderINtNtCsaNl6UpbT7bw_4core6option6OptionNtNtNtBa_9validator5types4TypeEE20with_same_source_locuEBa_
FNDA:72,_RINvMsk_NtNtCsfZPcC2TrjjJ_17cedar_policy_core3ast4exprINtB6_4ExprlE10hash_shapeNtNtNtCsht3nMU9UgFu_3std4hash6random13DefaultHasherEBa_
FNDA:73,_RINvMsk_NtNtCsfZPcC2TrjjJ_17cedar_policy_core3ast4exprINtB6_4ExprlE8eq_shapelEBa_
FNDA:72,_RINvMsk_NtNtCsfZPcC2TrjjJ_17cedar_policy_core3ast4exprINtB6_4ExprlE8eq_shapeuEBa_
FNDA:72,_RINvMsk_NtNtCsfZPcC2TrjjJ_17cedar_policy_core3ast4exprNtB6_4Expr10hash_shapeNtNtNtCsht3nMU9UgFu_3std4hash6random13DefaultHasherEBa_
FNDA:72,_RINvMsk_NtNtCsfZPcC2TrjjJ_17cedar_policy_core3ast4exprNtB6_4Expr8eq_shapelEBa_
FNDA:698,_RINvMsk_NtNtCsfZPcC2TrjjJ_17cedar_policy_core3ast4exprNtB6_4Expr8eq_shapeuEBa_
FNDA:0,_RINvXs7_NtNtCsfZPcC2TrjjJ_17cedar_policy_core3ast4exprNtB6_4ExprNtNtB8_5value14BoundedDisplay3fmtNtNtCsiTraAjBDcu4_5alloc6string6StringEBa_
FNDA:937,_RINvXsb_NtNtCsfZPcC2TrjjJ_17cedar_policy_core3ast4exprINtB6_11ExprBuilderINtNtCsaNl6UpbT7bw_4core6option6OptionNtNtNtBa_9validator5types4TypeEENtNtBa_12expr_builder11ExprBuilder10binary_appNtNtB8_3ops8BinaryOpEBa_
FNDA:118,_RINvXsb_NtNtCsfZPcC2TrjjJ_17cedar_policy_core3ast4exprINtB6_11ExprBuilderINtNtCsaNl6UpbT7bw_4core6option6OptionNtNtNtBa_9validator5types4TypeEENtNtBa_12expr_builder11ExprBuilder17call_extension_fnINtNtCsiTraAjBDcu4_5alloc3vec3VecINtB6_4ExprB19_EEEBa_
FNDA:1,_RINvXsb_NtNtCsfZPcC2TrjjJ_17cedar_policy_core3ast4exprINtB6_11ExprBuilderINtNtCsaNl6UpbT7bw_4core6option6OptionNtNtNtBa_9validator5types4TypeEENtNtBa_12expr_builder11ExprBuilder3setAINtB6_4ExprB19_Ej3_EBa_
FNDA:146,_RINvXsb_NtNtCsfZPcC2TrjjJ_17cedar_policy_core3ast4exprINtB6_11ExprBuilderINtNtCsaNl6UpbT7bw_4core6option6OptionNtNtNtBa_9validator5types4TypeEENtNtBa_12expr_builder11ExprBuilder3setINtNtCsiTraAjBDcu4_5alloc3vec3VecINtB6_4ExprB19_EEEBa_
FNDA:861,_RINvXsb_NtNtCsfZPcC2TrjjJ_17cedar_policy_core3ast4exprINtB6_11ExprBuilderINtNtCsaNl6UpbT7bw_4core6option6OptionNtNtNtBa_9validator5types4TypeEENtNtBa_12expr_builder11ExprBuilder3valINtNtCsiTraAjBDcu4_5alloc4sync3ArcNtNtB8_6entity9EntityUIDEEBa_
FNDA:388,_RINvXsb_NtNtCsfZPcC2TrjjJ_17cedar_policy_core3ast4exprINtB6_11ExprBuilderINtNtCsaNl6UpbT7bw_4core6option6OptionNtNtNtBa_9validator5types4TypeEENtNtBa_12expr_builder11ExprBuilder3valNtCsbIodQZzabP8_8smol_str7SmolStrEBa_
FNDA:2,_RINvXsb_NtNtCsfZPcC2TrjjJ_17cedar_policy_core3ast4exprINtB6_11ExprBuilderINtNtCsaNl6UpbT7bw_4core6option6OptionNtNtNtBa_9validator5types4TypeEENtNtBa_12expr_builder11ExprBuilder3valNtNtB8_6entity9EntityUIDEBa_
FNDA:7,_RINvXsb_NtNtCsfZPcC2TrjjJ_17cedar_policy_core3ast4exprINtB6_11ExprBuilderINtNtCsaNl6UpbT7bw_4core6option6OptionNtNtNtBa_9validator5types4TypeEENtNtBa_12expr_builder11ExprBuilder3valReEBa_
FNDA:2493,_RINvXsb_NtNtCsfZPcC2TrjjJ_17cedar_policy_core3ast4exprINtB6_11ExprBuilderINtNtCsaNl6UpbT7bw_4core6option6OptionNtNtNtBa_9validator5types4TypeEENtNtBa_12expr_builder11ExprBuilder3valbEBa_
FNDA:341,_RINvXsb_NtNtCsfZPcC2TrjjJ_17cedar_policy_core3ast4exprINtB6_11ExprBuilderINtNtCsaNl6UpbT7bw_4core6option6OptionNtNtNtBa_9validator5types4TypeEENtNtBa_12expr_builder11ExprBuilder3valxEBa_
FNDA:4,_RINvXsb_NtNtCsfZPcC2TrjjJ_17cedar_policy_core3ast4exprINtB6_11ExprBuilderINtNtCsaNl6UpbT7bw_4core6option6OptionNtNtNtBa_9validator5types4TypeEENtNtBa_12expr_builder11ExprBuilder6recordATNtCsbIodQZzabP8_8smol_str7SmolStrINtB6_4ExprB19_EEj0_EBa_
FNDA:1,_RINvXsb_NtNtCsfZPcC2TrjjJ_17cedar_policy_core3ast4exprINtB6_11ExprBuilderINtNtCsaNl6UpbT7bw_4core6option6OptionNtNtNtBa_9validator5types4TypeEENtNtBa_12expr_builder11ExprBuilder6recordATNtCsbIodQZzabP8_8smol_str7SmolStrINtB6_4ExprB19_EEj2_EBa_
FNDA:133,_RINvXsb_NtNtCsfZPcC2TrjjJ_17cedar_policy_core3ast4exprINtB6_11ExprBuilderINtNtCsaNl6UpbT7bw_4core6option6OptionNtNtNtBa_9validator5types4TypeEENtNtBa_12expr_builder11ExprBuilder6recordINtNtNtNtB1e_4iter8adapters3zip3ZipINtNtB31_6cloned6ClonedINtNtNtNtCsiTraAjBDcu4_5alloc11collections5btree3map4KeysNtCsbIodQZzabP8_8smol_str7SmolStrNtB6_4ExprEEINtNtNtB41_3vec9into_iter8IntoIterIB5k_B19_EEEEBa_
FNDA:1,_RINvXsb_NtNtCsfZPcC2TrjjJ_17cedar_policy_core3ast4exprINtB6_11ExprBuilderReENtNtBa_12expr_builder11ExprBuilder3valxEBa_
FNDA:1,_RINvXsb_NtNtCsfZPcC2TrjjJ_17cedar_policy_core3ast4exprINtB6_11ExprBuilderlENtNtBa_12expr_builder11ExprBuilder17call_extension_fnINtNtCsiTraAjBDcu4_5alloc3vec3VecINtB6_4ExprlEEEBa_
FNDA:1,_RINvXsb_NtNtCsfZPcC2TrjjJ_17cedar_policy_core3ast4exprINtB6_11ExprBuilderlENtNtBa_12expr_builder11ExprBuilder3setAINtB6_4ExprlEj1_EBa_
FNDA:1,_RINvXsb_NtNtCsfZPcC2TrjjJ_17cedar_policy_core3ast4exprINtB6_11ExprBuilderlENtNtBa_12expr_builder11ExprBuilder3valbEBa_
FNDA:4,_RINvXsb_NtNtCsfZPcC2TrjjJ_17cedar_policy_core3ast4exprINtB6_11ExprBuilderlENtNtBa_12expr_builder11ExprBuilder3valxEBa_
FNDA:1,_RINvXsb_NtNtCsfZPcC2TrjjJ_17cedar_policy_core3ast4exprINtB6_11ExprBuilderlENtNtBa_12expr_builder11ExprBuilder6recordATNtCsbIodQZzabP8_8smol_str7SmolStrINtB6_4ExprlEEj1_EBa_
FNDA:208,_RINvXsb_NtNtCsfZPcC2TrjjJ_17cedar_policy_core3ast4exprINtB6_11ExprBuilderuENtNtBa_12expr_builder11ExprBuilder10binary_appNtNtB8_3ops8BinaryOpEBa_
FNDA:66,_RINvXsb_NtNtCsfZPcC2TrjjJ_17cedar_policy_core3ast4exprINtB6_11ExprBuilderuENtNtBa_12expr_builder11ExprBuilder17call_extension_fnINtCsiH91q1aZ7vn_8nonempty8NonEmptyNtB6_4ExprEEBa_
FNDA:719,_RINvXsb_NtNtCsfZPcC2TrjjJ_17cedar_policy_core3ast4exprINtB6_11ExprBuilderuENtNtBa_12expr_builder11ExprBuilder17call_extension_fnINtNtCsiTraAjBDcu4_5alloc3vec3VecNtB6_4ExprEEBa_
FNDA:0,_RINvXsb_NtNtCsfZPcC2TrjjJ_17cedar_policy_core3ast4exprINtB6_11ExprBuilderuENtNtBa_12expr_builder11ExprBuilder17call_extension_fnINtNtNtNtCsaNl6UpbT7bw_4core4iter8adapters3map3MapINtNtNtCsiTraAjBDcu4_5alloc3vec9into_iter8IntoIterINtB6_4ExprINtNtB2b_6option6OptionNtNtNtBa_9validator5types4TypeEEENCINvMs2_B6_B3E_9into_exprBQ_E0EEBa_
FNDA:3,_RINvXsb_NtNtCsfZPcC2TrjjJ_17cedar_policy_core3ast4exprINtB6_11ExprBuilderuENtNtBa_12expr_builder11ExprBuilder3setANtB6_4Exprj0_EBa_
FNDA:12,_RINvXsb_NtNtCsfZPcC2TrjjJ_17cedar_policy_core3ast4exprINtB6_11ExprBuilderuENtNtBa_12expr_builder11ExprBuilder3setANtB6_4Exprj1_EBa_
FNDA:3,_RINvXsb_NtNtCsfZPcC2TrjjJ_17cedar_policy_core3ast4exprINtB6_11ExprBuilderuENtNtBa_12expr_builder11ExprBuilder3setANtB6_4Exprj2_EBa_
FNDA:6,_RINvXsb_NtNtCsfZPcC2TrjjJ_17cedar_policy_core3ast4exprINtB6_11ExprBuilderuENtNtBa_12expr_builder11ExprBuilder3setANtB6_4Exprj3_EBa_
FNDA:350,_RINvXsb_NtNtCsfZPcC2TrjjJ_17cedar_policy_core3ast4exprINtB6_11ExprBuilderuENtNtBa_12expr_builder11ExprBuilder3setINtNtCsiTraAjBDcu4_5alloc3vec3VecNtB6_4ExprEEBa_
FNDA:2,_RINvXsb_NtNtCsfZPcC2TrjjJ_17cedar_policy_core3ast4exprINtB6_11ExprBuilderuENtNtBa_12expr_builder11ExprBuilder3setINtNtNtCsiTraAjBDcu4_5alloc3vec9into_iter8IntoIterNtB6_4ExprEEBa_
FNDA:40,_RINvXsb_NtNtCsfZPcC2TrjjJ_17cedar_policy_core3ast4exprINtB6_11ExprBuilderuENtNtBa_12expr_builder11ExprBuilder3setINtNtNtNtCsaNl6UpbT7bw_4core4iter8adapters3map3MapIB1O_INtNtNtNtCsiTraAjBDcu4_5alloc11collections5btree3set4IterNtNtB8_5value5ValueENCNvXs0_NtB8_15restricted_exprNtB43_14RestrictedExprINtNtB1W_7convert4FromNtB3D_9ValueKindE4from0ENvYB4p_INtB4O_4IntoNtB6_4ExprE4intoEEBa_
FNDA:1432,_RINvXsb_NtNtCsfZPcC2TrjjJ_17cedar_policy_core3ast4exprINtB6_11ExprBuilderuENtNtBa_12expr_builder11ExprBuilder3setINtNtNtNtCsaNl6UpbT7bw_4core4iter8adapters3map3MapINtNtB1S_6cloned6ClonedINtNtNtB1W_5slice4iter4IterINtNtCsiTraAjBDcu4_5alloc4sync3ArcNtNtB8_6entity9EntityUIDEEEINvMs3_B6_NtB6_4Expr3valB3p_EEEBa_
FNDA:46,_RINvXsb_NtNtCsfZPcC2TrjjJ_17cedar_policy_core3ast4exprINtB6_11ExprBuilderuENtNtBa_12expr_builder11ExprBuilder3setINtNtNtNtCsaNl6UpbT7bw_4core4iter8adapters3map3MapINtNtNtB1W_5array4iter8IntoIterNtNtB8_15restricted_expr14RestrictedExprKj0_ENvYB36_INtNtB1W_7convert4IntoNtB6_4ExprE4intoEEBa_
FNDA:2,_RINvXsb_NtNtCsfZPcC2TrjjJ_17cedar_policy_core3ast4exprINtB6_11ExprBuilderuENtNtBa_12expr_builder11ExprBuilder3setINtNtNtNtCsaNl6UpbT7bw_4core4iter8adapters3map3MapINtNtNtB1W_5array4iter8IntoIterNtNtB8_15restricted_expr14RestrictedExprKj1_ENvYB36_INtNtB1W_7convert4IntoNtB6_4ExprE4intoEEBa_
FNDA:2,_RINvXsb_NtNtCsfZPcC2TrjjJ_17cedar_policy_core3ast4exprINtB6_11ExprBuilderuENtNtBa_12expr_builder11ExprBuilder3setINtNtNtNtCsaNl6UpbT7bw_4core4iter8adapters3map3MapINtNtNtB1W_5array4iter8IntoIterNtNtB8_15restricted_expr14RestrictedExprKj2_ENvYB36_INtNtB1W_7convert4IntoNtB6_4ExprE4intoEEBa_
FNDA:2,_RINvXsb_NtNtCsfZPcC2TrjjJ_17cedar_policy_core3ast4exprINtB6_11ExprBuilderuENtNtBa_12expr_builder11ExprBuilder3setINtNtNtNtCsaNl6UpbT7bw_4core4iter8adapters3map3MapINtNtNtB1W_5array4iter8IntoIterNtNtB8_15restricted_expr14RestrictedExprKj3_ENvYB36_INtNtB1W_7convert4IntoNtB6_4ExprE4intoEEBa_
FNDA:1,_RINvXsb_NtNtCsfZPcC2TrjjJ_17cedar_policy_core3ast4exprINtB6_11ExprBuilderuENtNtBa_12expr_builder11ExprBuilder3setINtNtNtNtCsaNl6UpbT7bw_4core4iter8adapters3map3MapINtNtNtCsiTraAjBDcu4_5alloc3vec9into_iter8IntoIterINtB6_4ExprINtNtB1W_6option6OptionNtNtNtBa_9validator5types4TypeEEENCINvMs2_B6_B3p_9into_exprBQ_Es_0EEBa_
FNDA:42,_RINvXsb_NtNtCsfZPcC2TrjjJ_17cedar_policy_core3ast4exprINtB6_11ExprBuilderuENtNtBa_12expr_builder11ExprBuilder3setINtNtNtNtCsaNl6UpbT7bw_4core4iter8adapters3map3MapINtNtNtCsiTraAjBDcu4_5alloc3vec9into_iter8IntoIterNtNtB8_15restricted_expr14RestrictedExprENvYB3p_INtNtB1W_7convert4IntoNtB6_4ExprE4intoEEBa_
FNDA:0,_RINvXsb_NtNtCsfZPcC2TrjjJ_17cedar_policy_core3ast4exprINtB6_11ExprBuilderuENtNtBa_12expr_builder11ExprBuilder3setINtNtNtNtCsaNl6UpbT7bw_4core4iter8adapters3map3MapINtNtNtNtCsiTraAjBDcu4_5alloc11collections5btree3set4IterNtNtB8_5value5ValueENCNvXs0_B6_NtB6_4ExprINtNtB1W_7convert4FromNtB3y_9ValueKindE4from0EEBa_
FNDA:5822,_RINvXsb_NtNtCsfZPcC2TrjjJ_17cedar_policy_core3ast4exprINtB6_11ExprBuilderuENtNtBa_12expr_builder11ExprBuilder3valINtNtCsiTraAjBDcu4_5alloc4sync3ArcNtNtB8_6entity9EntityUIDEEBa_
FNDA:1234,_RINvXsb_NtNtCsfZPcC2TrjjJ_17cedar_policy_core3ast4exprINtB6_11ExprBuilderuENtNtBa_12expr_builder11ExprBuilder3valNtCsbIodQZzabP8_8smol_str7SmolStrEBa_
FNDA:1702,_RINvXsb_NtNtCsfZPcC2TrjjJ_17cedar_policy_core3ast4exprINtB6_11ExprBuilderuENtNtBa_12expr_builder11ExprBuilder3valNtNtB8_6entity9EntityUIDEBa_
FNDA:811,_RINvXsb_NtNtCsfZPcC2TrjjJ_17cedar_policy_core3ast4exprINtB6_11ExprBuilderuENtNtBa_12expr_builder11ExprBuilder3valNtNtB8_7literal7LiteralEBa_
FNDA:563,_RINvXsb_NtNtCsfZPcC2TrjjJ_17cedar_policy_core3ast4exprINtB6_11ExprBuilderuENtNtBa_12expr_builder11ExprBuilder3valReEBa_
FNDA:9349,_RINvXsb_NtNtCsfZPcC2TrjjJ_17cedar_policy_core3ast4exprINtB6_11ExprBuilderuENtNtBa_12expr_builder11ExprBuilder3valbEBa_
FNDA:1467,_RINvXsb_NtNtCsfZPcC2TrjjJ_17cedar_policy_core3ast4exprINtB6_11ExprBuilderuENtNtBa_12expr_builder11ExprBuilder3valxEBa_
FNDA:3,_RINvXsb_NtNtCsfZPcC2TrjjJ_17cedar_policy_core3ast4exprINtB6_11ExprBuilderuENtNtBa_12expr_builder11ExprBuilder6recordATNtCsbIodQZzabP8_8smol_str7SmolStrNtB6_4ExprEj0_EBa_
FNDA:16,_RINvXsb_NtNtCsfZPcC2TrjjJ_17cedar_policy_core3ast4exprINtB6_11ExprBuilderuENtNtBa_12expr_builder11ExprBuilder6recordATNtCsbIodQZzabP8_8smol_str7SmolStrNtB6_4ExprEj1_EBa_
FNDA:14,_RINvXsb_NtNtCsfZPcC2TrjjJ_17cedar_policy_core3ast4exprINtB6_11ExprBuilderuENtNtBa_12expr_builder11ExprBuilder6recordATNtCsbIodQZzabP8_8smol_str7SmolStrNtB6_4ExprEj2_EBa_
FNDA:4,_RINvXsb_NtNtCsfZPcC2TrjjJ_17cedar_policy_core3ast4exprINtB6_11ExprBuilderuENtNtBa_12expr_builder11ExprBuilder6recordATNtCsbIodQZzabP8_8smol_str7SmolStrNtB6_4ExprEj3_EBa_
FNDA:234,_RINvXsb_NtNtCsfZPcC2TrjjJ_17cedar_policy_core3ast4exprINtB6_11ExprBuilderuENtNtBa_12expr_builder11ExprBuilder6recordINtNtCsiTraAjBDcu4_5alloc3vec3VecTNtCsbIodQZzabP8_8smol_str7SmolStrNtB6_4ExprEEEBa_
FNDA:55,_RINvXsb_NtNtCsfZPcC2TrjjJ_17cedar_policy_core3ast4exprINtB6_11ExprBuilderuENtNtBa_12expr_builder11ExprBuilder6recordINtNtNtNtCsaNl6UpbT7bw_4core4iter8adapters3map3MapIB1R_INtNtNtNtCsiTraAjBDcu4_5alloc11collections5btree3map8IntoIterNtCsbIodQZzabP8_8smol_str7SmolStrNtNtB8_5value5ValueENCNvXs0_NtB8_15restricted_exprNtB4H_14RestrictedExprINtNtB1Z_7convert4FromNtB4h_9ValueKindE4froms_0ENCINvMB4H_B53_6recordB2E_E0EEBa_
FNDA:1,_RINvXsb_NtNtCsfZPcC2TrjjJ_17cedar_policy_core3ast4exprINtB6_11ExprBuilderuENtNtBa_12expr_builder11ExprBuilder6recordINtNtNtNtCsaNl6UpbT7bw_4core4iter8adapters3map3MapINtNtNtB1Z_3ops5range14RangeInclusivelENCNvNtNtBa_9evaluator4tests_16large_record_err0EEBa_
FNDA:5,_RINvXsb_NtNtCsfZPcC2TrjjJ_17cedar_policy_core3ast4exprINtB6_11ExprBuilderuENtNtBa_12expr_builder11ExprBuilder6recordINtNtNtNtCsaNl6UpbT7bw_4core4iter8adapters3map3MapINtNtNtB1Z_5array4iter8IntoIterTNtCsbIodQZzabP8_8smol_str7SmolStrNtNtB8_15restricted_expr14RestrictedExprEKj1_ENCINvMB3J_B3H_6recordAB39_B4n_E0EEBa_
FNDA:5,_RINvXsb_NtNtCsfZPcC2TrjjJ_17cedar_policy_core3ast4exprINtB6_11ExprBuilderuENtNtBa_12expr_builder11ExprBuilder6recordINtNtNtNtCsaNl6UpbT7bw_4core4iter8adapters3map3MapINtNtNtB1Z_5array4iter8IntoIterTNtCsbIodQZzabP8_8smol_str7SmolStrNtNtB8_15restricted_expr14RestrictedExprEKj2_ENCINvMB3J_B3H_6recordAB39_B4n_E0EEBa_
FNDA:47,_RINvXsb_NtNtCsfZPcC2TrjjJ_17cedar_policy_core3ast4exprINtB6_11ExprBuilderuENtNtBa_12expr_builder11ExprBuilder6recordINtNtNtNtCsaNl6UpbT7bw_4core4iter8adapters3map3MapINtNtNtB1Z_5array4iter8IntoIterTNtCsbIodQZzabP8_8smol_str7SmolStrNtNtB8_15restricted_expr14RestrictedExprEKj3_ENCINvMB3J_B3H_6recordAB39_B4n_E0EEBa_
FNDA:1,_RINvXsb_NtNtCsfZPcC2TrjjJ_17cedar_policy_core3ast4exprINtB6_11ExprBuilderuENtNtBa_12expr_builder11ExprBuilder6recordINtNtNtNtCsaNl6UpbT7bw_4core4iter8adapters3map3MapINtNtNtB1Z_5array4iter8IntoIterTNtCsbIodQZzabP8_8smol_str7SmolStrNtNtB8_15restricted_expr14RestrictedExprEKj5_ENCINvMB3J_B3H_6recordAB39_B4n_E0EEBa_
FNDA:1,_RINvXsb_NtNtCsfZPcC2TrjjJ_17cedar_policy_core3ast4exprINtB6_11ExprBuilderuENtNtBa_12expr_builder11ExprBuilder6recordINtNtNtNtCsaNl6UpbT7bw_4core4iter8adapters3map3MapINtNtNtB1Z_5array4iter8IntoIterTNtCsbIodQZzabP8_8smol_str7SmolStrNtNtB8_15restricted_expr14RestrictedExprEKj6_ENCINvMB3J_B3H_6recordAB39_B4n_E0EEBa_
FNDA:1,_RINvXsb_NtNtCsfZPcC2TrjjJ_17cedar_policy_core3ast4exprINtB6_11ExprBuilderuENtNtBa_12expr_builder11ExprBuilder6recordINtNtNtNtCsaNl6UpbT7bw_4core4iter8adapters3map3MapINtNtNtB1Z_5array4iter8IntoIterTNtCsbIodQZzabP8_8smol_str7SmolStrNtNtB8_15restricted_expr14RestrictedExprEKj9_ENCINvMB3J_B3H_6recordAB39_B4n_E0EEBa_
FNDA:117,_RINvXsb_NtNtCsfZPcC2TrjjJ_17cedar_policy_core3ast4exprINtB6_11ExprBuilderuENtNtBa_12expr_builder11ExprBuilder6recordINtNtNtNtCsaNl6UpbT7bw_4core4iter8adapters3map3MapINtNtNtCsiTraAjBDcu4_5alloc3vec9into_iter8IntoIterTNtCsbIodQZzabP8_8smol_str7SmolStrNtNtB8_15restricted_expr14RestrictedExprEENCINvMB42_B40_6recordINtB2J_3VecB3s_EE0EEBa_
FNDA:0,_RINvXsb_NtNtCsfZPcC2TrjjJ_17cedar_policy_core3ast4exprINtB6_11ExprBuilderuENtNtBa_12expr_builder11ExprBuilder6recordINtNtNtNtCsaNl6UpbT7bw_4core4iter8adapters3map3MapINtNtNtNtCsiTraAjBDcu4_5alloc11collections5btree3map8IntoIterNtCsbIodQZzabP8_8smol_str7SmolStrINtB6_4ExprINtNtB1Z_6option6OptionNtNtNtBa_9validator5types4TypeEEENCINvMs2_B6_B4a_9into_exprBQ_Es0_0EEBa_
FNDA:0,_RINvXsb_NtNtCsfZPcC2TrjjJ_17cedar_policy_core3ast4exprINtB6_11ExprBuilderuENtNtBa_12expr_builder11ExprBuilder6recordINtNtNtNtCsaNl6UpbT7bw_4core4iter8adapters3map3MapINtNtNtNtCsiTraAjBDcu4_5alloc11collections5btree3map8IntoIterNtCsbIodQZzabP8_8smol_str7SmolStrNtNtB8_5value5ValueENCNvXs0_B6_NtB6_4ExprINtNtB1Z_7convert4FromNtB4c_9ValueKindE4froms_0EEBa_
FNDA:25,_RINvXsb_NtNtCsfZPcC2TrjjJ_17cedar_policy_core3ast4exprINtB6_11ExprBuilderuENtNtBa_12expr_builder11ExprBuilder6recordINtNtNtNtCsaNl6UpbT7bw_4core4iter8adapters3zip3ZipINtNtNtCsiTraAjBDcu4_5alloc3vec9into_iter8IntoIterNtCsbIodQZzabP8_8smol_str7SmolStrEIB2F_NtB6_4ExprEEEBa_
FNDA:4,_RINvXsb_NtNtCsfZPcC2TrjjJ_17cedar_policy_core3ast4exprINtB6_11ExprBuilderuENtNtBa_12expr_builder11ExprBuilder6recordINtNtNtNtCsht3nMU9UgFu_3std11collections4hash3map7HashMapNtCsbIodQZzabP8_8smol_str7SmolStrNtB6_4ExprEEBa_
FNDA:0,_RINvXsb_NtNtCsfZPcC2TrjjJ_17cedar_policy_core3ast4exprINtB6_11ExprBuilderuENtNtBa_12expr_builder11ExprBuilder6recordINtNtNtNtCsiTraAjBDcu4_5alloc11collections5btree3map8BTreeMapNtCsbIodQZzabP8_8smol_str7SmolStrNtB6_4ExprEEBa_
FNDA:8,_RINvXsb_NtNtCsfZPcC2TrjjJ_17cedar_policy_core3ast4exprINtB6_11ExprBuilderuENtNtBa_12expr_builder11ExprBuilder9unary_appNtNtB8_3ops7UnaryOpEBa_
FNDA:0,_RNCINvMs2_NtNtCsfZPcC2TrjjJ_17cedar_policy_core3ast4exprINtB8_4ExprINtNtCsaNl6UpbT7bw_4core6option6OptionNtNtNtBc_9validator5types4TypeEE9into_exprINtB8_11ExprBuilderuEE0Bc_
FNDA:0,_RNCINvMs2_NtNtCsfZPcC2TrjjJ_17cedar_policy_core3ast4exprINtB8_4ExprINtNtCsaNl6UpbT7bw_4core6option6OptionNtNtNtBc_9validator5types4TypeEE9into_exprINtB8_11ExprBuilderuEEs0_0Bc_
FNDA:1,_RNCINvMs2_NtNtCsfZPcC2TrjjJ_17cedar_policy_core3ast4exprINtB8_4ExprINtNtCsaNl6UpbT7bw_4core6option6OptionNtNtNtBc_9validator5types4TypeEE9into_exprINtB8_11ExprBuilderuEEs_0Bc_
FNDA:0,_RNCINvMs2_NtNtCsfZPcC2TrjjJ_17cedar_policy_core3ast4exprINtB8_4ExprINtNtCsaNl6UpbT7bw_4core6option6OptionNtNtNtBc_9validator5types4TypeEE9into_exprNtNtNtBc_3est4expr7BuilderE0Bc_
FNDA:0,_RNCINvMs2_NtNtCsfZPcC2TrjjJ_17cedar_policy_core3ast4exprINtB8_4ExprINtNtCsaNl6UpbT7bw_4core6option6OptionNtNtNtBc_9validator5types4TypeEE9into_exprNtNtNtBc_3est4expr7BuilderEs0_0Bc_
FNDA:4,_RNCINvMs2_NtNtCsfZPcC2TrjjJ_17cedar_policy_core3ast4exprINtB8_4ExprINtNtCsaNl6UpbT7bw_4core6option6OptionNtNtNtBc_9validator5types4TypeEE9into_exprNtNtNtBc_3est4expr7BuilderEs_0Bc_
FNDA:24,_RNCINvMs2_NtNtCsfZPcC2TrjjJ_17cedar_policy_core3ast4exprNtB8_4Expr9into_exprNtNtNtBc_3est4expr7BuilderE0Bc_
FNDA:16,_RNCINvMs2_NtNtCsfZPcC2TrjjJ_17cedar_policy_core3ast4exprNtB8_4Expr9into_exprNtNtNtBc_3est4expr7BuilderEs0_0Bc_
FNDA:30,_RNCINvMs2_NtNtCsfZPcC2TrjjJ_17cedar_policy_core3ast4exprNtB8_4Expr9into_exprNtNtNtBc_3est4expr7BuilderEs_0Bc_
FNDA:25,_RNCINvMs2_NtNtCsfZPcC2TrjjJ_17cedar_policy_core3ast4exprNtB8_4Expr9into_exprNtNtNtBc_3pst4expr10PstBuilderE0Bc_
FNDA:7,_RNCINvMs2_NtNtCsfZPcC2TrjjJ_17cedar_policy_core3ast4exprNtB8_4Expr9into_exprNtNtNtBc_3pst4expr10PstBuilderEs0_0Bc_
FNDA:17,_RNCINvMs2_NtNtCsfZPcC2TrjjJ_17cedar_policy_core3ast4exprNtB8_4Expr9into_exprNtNtNtBc_3pst4expr10PstBuilderEs_0Bc_
FNDA:0,_RNCINvMs3_NtNtCsfZPcC2TrjjJ_17cedar_policy_core3ast4exprNtB8_4Expr18substitute_generalNtB8_17TypedSubstitutionE0Bc_
FNDA:0,_RNCINvMs3_NtNtCsfZPcC2TrjjJ_17cedar_policy_core3ast4exprNtB8_4Expr18substitute_generalNtB8_17TypedSubstitutionEs0_0Bc_
FNDA:0,_RNCINvMs3_NtNtCsfZPcC2TrjjJ_17cedar_policy_core3ast4exprNtB8_4Expr18substitute_generalNtB8_17TypedSubstitutionEs_0Bc_
FNDA:1,_RNCINvMsk_NtNtCsfZPcC2TrjjJ_17cedar_policy_core3ast4exprINtB8_4ExprlE10hash_shapeNtNtNtCsht3nMU9UgFu_3std4hash6random13DefaultHasherE0Bc_
FNDA:1,_RNCINvMsk_NtNtCsfZPcC2TrjjJ_17cedar_policy_core3ast4exprINtB8_4ExprlE10hash_shapeNtNtNtCsht3nMU9UgFu_3std4hash6random13DefaultHasherEs0_0Bc_
FNDA:1,_RNCINvMsk_NtNtCsfZPcC2TrjjJ_17cedar_policy_core3ast4exprINtB8_4ExprlE10hash_shapeNtNtNtCsht3nMU9UgFu_3std4hash6random13DefaultHasherEs_0Bc_
FNDA:1,_RNCINvMsk_NtNtCsfZPcC2TrjjJ_17cedar_policy_core3ast4exprINtB8_4ExprlE8eq_shapelE0Bc_
FNDA:1,_RNCINvMsk_NtNtCsfZPcC2TrjjJ_17cedar_policy_core3ast4exprINtB8_4ExprlE8eq_shapelEs0_0Bc_
FNDA:1,_RNCINvMsk_NtNtCsfZPcC2TrjjJ_17cedar_policy_core3ast4exprINtB8_4ExprlE8eq_shapelEs_0Bc_
FNDA:1,_RNCINvMsk_NtNtCsfZPcC2TrjjJ_17cedar_policy_core3ast4exprINtB8_4ExprlE8eq_shapeuE0Bc_
FNDA:1,_RNCINvMsk_NtNtCsfZPcC2TrjjJ_17cedar_policy_core3ast4exprINtB8_4ExprlE8eq_shapeuEs0_0Bc_
FNDA:1,_RNCINvMsk_NtNtCsfZPcC2TrjjJ_17cedar_policy_core3ast4exprINtB8_4ExprlE8eq_shapeuEs_0Bc_
FNDA:1,_RNCINvMsk_NtNtCsfZPcC2TrjjJ_17cedar_policy_core3ast4exprNtB8_4Expr10hash_shapeNtNtNtCsht3nMU9UgFu_3std4hash6random13DefaultHasherE0Bc_
FNDA:1,_RNCINvMsk_NtNtCsfZPcC2TrjjJ_17cedar_policy_core3ast4exprNtB8_4Expr10hash_shapeNtNtNtCsht3nMU9UgFu_3std4hash6random13DefaultHasherEs0_0Bc_
FNDA:1,_RNCINvMsk_NtNtCsfZPcC2TrjjJ_17cedar_policy_core3ast4exprNtB8_4Expr10hash_shapeNtNtNtCsht3nMU9UgFu_3std4hash6random13DefaultHasherEs_0Bc_
FNDA:1,_RNCINvMsk_NtNtCsfZPcC2TrjjJ_17cedar_policy_core3ast4exprNtB8_4Expr8eq_shapelE0Bc_
FNDA:1,_RNCINvMsk_NtNtCsfZPcC2TrjjJ_17cedar_policy_core3ast4exprNtB8_4Expr8eq_shapelEs0_0Bc_
FNDA:1,_RNCINvMsk_NtNtCsfZPcC2TrjjJ_17cedar_policy_core3ast4exprNtB8_4Expr8eq_shapelEs_0Bc_
FNDA:1,_RNCINvMsk_NtNtCsfZPcC2TrjjJ_17cedar_policy_core3ast4exprNtB8_4Expr8eq_shapeuE0Bc_
FNDA:1,_RNCINvMsk_NtNtCsfZPcC2TrjjJ_17cedar_policy_core3ast4exprNtB8_4Expr8eq_shapeuEs0_0Bc_
FNDA:1,_RNCINvMsk_NtNtCsfZPcC2TrjjJ_17cedar_policy_core3ast4exprNtB8_4Expr8eq_shapeuEs_0Bc_
FNDA:0,_RNCNCNvMsk_NtNtCsfZPcC2TrjjJ_17cedar_policy_core3ast4exprNtB9_4Expr9cmp_shapes6_00Bd_
FNDA:0,_RNCNCNvMsk_NtNtCsfZPcC2TrjjJ_17cedar_policy_core3ast4exprNtB9_4Expr9cmp_shapesb_00Bd_
FNDA:2,_RNCNvMs2_NtNtCsfZPcC2TrjjJ_17cedar_policy_core3ast4exprNtB7_4Expr11try_type_of0Bb_
FNDA:58,_RNCNvMs2_NtNtCsfZPcC2TrjjJ_17cedar_policy_core3ast4exprNtB7_4Expr14is_projectable0Bb_
FNDA:42818,_RNCNvMs2_NtNtCsfZPcC2TrjjJ_17cedar_policy_core3ast4exprNtB7_4Expr5slots0Bb_
FNDA:152,_RNCNvMs3_NtNtCsfZPcC2TrjjJ_17cedar_policy_core3ast4exprNtB7_4Expr16contains_unknown0Bb_
FNDA:7,_RNCNvMs3_NtNtCsfZPcC2TrjjJ_17cedar_policy_core3ast4exprNtB7_4Expr8unknowns0Bb_
FNDA:0,_RNCNvMsk_NtNtCsfZPcC2TrjjJ_17cedar_policy_core3ast4exprNtB7_4Expr9cmp_shape0Bb_
FNDA:29,_RNCNvMsk_NtNtCsfZPcC2TrjjJ_17cedar_policy_core3ast4exprNtB7_4Expr9cmp_shapes0_0Bb_
FNDA:0,_RNCNvMsk_NtNtCsfZPcC2TrjjJ_17cedar_policy_core3ast4exprNtB7_4Expr9cmp_shapes1_0Bb_
FNDA:0,_RNCNvMsk_NtNtCsfZPcC2TrjjJ_17cedar_policy_core3ast4exprNtB7_4Expr9cmp_shapes2_0Bb_
FNDA:0,_RNCNvMsk_NtNtCsfZPcC2TrjjJ_17cedar_policy_core3ast4exprNtB7_4Expr9cmp_shapes3_0Bb_
FNDA:16,_RNCNvMsk_NtNtCsfZPcC2TrjjJ_17cedar_policy_core3ast4exprNtB7_4Expr9cmp_shapes4_0Bb_
FNDA:16,_RNCNvMsk_NtNtCsfZPcC2TrjjJ_17cedar_policy_core3ast4exprNtB7_4Expr9cmp_shapes5_0Bb_
FNDA:0,_RNCNvMsk_NtNtCsfZPcC2TrjjJ_17cedar_policy_core3ast4exprNtB7_4Expr9cmp_shapes6_0Bb_
FNDA:282,_RNCNvMsk_NtNtCsfZPcC2TrjjJ_17cedar_policy_core3ast4exprNtB7_4Expr9cmp_shapes7_0Bb_
FNDA:0,_RNCNvMsk_NtNtCsfZPcC2TrjjJ_17cedar_policy_core3ast4exprNtB7_4Expr9cmp_shapes8_0Bb_
FNDA:0,_RNCNvMsk_NtNtCsfZPcC2TrjjJ_17cedar_policy_core3ast4exprNtB7_4Expr9cmp_shapes9_0Bb_
FNDA:29,_RNCNvMsk_NtNtCsfZPcC2TrjjJ_17cedar_policy_core3ast4exprNtB7_4Expr9cmp_shapes_0Bb_
FNDA:0,_RNCNvMsk_NtNtCsfZPcC2TrjjJ_17cedar_policy_core3ast4exprNtB7_4Expr9cmp_shapesa_0Bb_
FNDA:0,_RNCNvMsk_NtNtCsfZPcC2TrjjJ_17cedar_policy_core3ast4exprNtB7_4Expr9cmp_shapesb_0Bb_
FNDA:0,_RNCNvMsk_NtNtCsfZPcC2TrjjJ_17cedar_policy_core3ast4exprNtB7_4Expr9cmp_shapesc_0Bb_
FNDA:0,_RNCNvXs0_NtNtCsfZPcC2TrjjJ_17cedar_policy_core3ast4exprNtB7_4ExprINtNtCsaNl6UpbT7bw_4core7convert4FromNtNtB9_5value9ValueKindE4from0Bb_
FNDA:0,_RNCNvXs0_NtNtCsfZPcC2TrjjJ_17cedar_policy_core3ast4exprNtB7_4ExprINtNtCsaNl6UpbT7bw_4core7convert4FromNtNtB9_5value9ValueKindE4froms_0Bb_
FNDA:3,_RNCNvXs5_NtNtCsfZPcC2TrjjJ_17cedar_policy_core3ast4exprNtB7_19UntypedSubstitutionNtB7_20SubstitutionFunction10substitute0Bb_
FNDA:1,_RNCNvXs5_NtNtCsfZPcC2TrjjJ_17cedar_policy_core3ast4exprNtB7_19UntypedSubstitutionNtB7_20SubstitutionFunction10substitutes_0Bb_
FNDA:474,_RNvMNtNtCsfZPcC2TrjjJ_17cedar_policy_core3ast4exprNtB2_8ExprKind13variant_orderB6_
FNDA:492,_RNvMs2_NtNtCsfZPcC2TrjjJ_17cedar_policy_core3ast4exprINtB5_4ExprINtNtCsaNl6UpbT7bw_4core6option6OptionNtNtNtB9_9validator5types4TypeEE10source_locB9_
FNDA:374,_RNvMs2_NtNtCsfZPcC2TrjjJ_17cedar_policy_core3ast4exprINtB5_4ExprINtNtCsaNl6UpbT7bw_4core6option6OptionNtNtNtB9_9validator5types4TypeEE14into_expr_kindB9_
FNDA:378,_RNvMs2_NtNtCsfZPcC2TrjjJ_17cedar_policy_core3ast4exprINtB5_4ExprINtNtCsaNl6UpbT7bw_4core6option6OptionNtNtNtB9_9validator5types4TypeEE21with_maybe_source_locB9_
FNDA:12242,_RNvMs2_NtNtCsfZPcC2TrjjJ_17cedar_policy_core3ast4exprINtB5_4ExprINtNtCsaNl6UpbT7bw_4core6option6OptionNtNtNtB9_9validator5types4TypeEE3newB9_
FNDA:28230,_RNvMs2_NtNtCsfZPcC2TrjjJ_17cedar_policy_core3ast4exprINtB5_4ExprINtNtCsaNl6UpbT7bw_4core6option6OptionNtNtNtB9_9validator5types4TypeEE4dataB9_
FNDA:59,_RNvMs2_NtNtCsfZPcC2TrjjJ_17cedar_policy_core3ast4exprINtB5_4ExprINtNtCsaNl6UpbT7bw_4core6option6OptionNtNtNtB9_9validator5types4TypeEE8set_dataB9_
FNDA:1701,_RNvMs2_NtNtCsfZPcC2TrjjJ_17cedar_policy_core3ast4exprINtB5_4ExprINtNtCsaNl6UpbT7bw_4core6option6OptionNtNtNtB9_9validator5types4TypeEE9expr_kindB9_
FNDA:167,_RNvMs2_NtNtCsfZPcC2TrjjJ_17cedar_policy_core3ast4exprINtB5_4ExprINtNtCsaNl6UpbT7bw_4core6option6OptionNtNtNtB9_9validator5types4TypeEE9into_dataB9_
FNDA:1,_RNvMs2_NtNtCsfZPcC2TrjjJ_17cedar_policy_core3ast4exprINtB5_4ExprReE3newB9_
FNDA:1,_RNvMs2_NtNtCsfZPcC2TrjjJ_17cedar_policy_core3ast4exprINtB5_4ExprReE9into_dataB9_
FNDA:34,_RNvMs2_NtNtCsfZPcC2TrjjJ_17cedar_policy_core3ast4exprINtB5_4ExprlE3newB9_
FNDA:362,_RNvMs2_NtNtCsfZPcC2TrjjJ_17cedar_policy_core3ast4exprINtB5_4ExprlE9expr_kindB9_
FNDA:12969,_RNvMs2_NtNtCsfZPcC2TrjjJ_17cedar_policy_core3ast4exprNtB5_4Expr10source_locB9_
FNDA:24,_RNvMs2_NtNtCsfZPcC2TrjjJ_17cedar_policy_core3ast4exprNtB5_4Expr11try_type_ofB9_
FNDA:1181,_RNvMs2_NtNtCsfZPcC2TrjjJ_17cedar_policy_core3ast4exprNtB5_4Expr14into_expr_kindB9_
FNDA:21,_RNvMs2_NtNtCsfZPcC2TrjjJ_17cedar_policy_core3ast4exprNtB5_4Expr14is_projectableB9_
FNDA:4531,_RNvMs2_NtNtCsfZPcC2TrjjJ_17cedar_policy_core3ast4exprNtB5_4Expr14subexpressionsB9_
FNDA:16234,_RNvMs2_NtNtCsfZPcC2TrjjJ_17cedar_policy_core3ast4exprNtB5_4Expr21with_maybe_source_locB9_
FNDA:58546,_RNvMs2_NtNtCsfZPcC2TrjjJ_17cedar_policy_core3ast4exprNtB5_4Expr3newB9_
FNDA:3928,_RNvMs2_NtNtCsfZPcC2TrjjJ_17cedar_policy_core3ast4exprNtB5_4Expr5slotsB9_
FNDA:85314,_RNvMs2_NtNtCsfZPcC2TrjjJ_17cedar_policy_core3ast4exprNtB5_4Expr9expr_kindB9_
FNDA:12242,_RNvMsc_NtNtCsfZPcC2TrjjJ_17cedar_policy_core3ast4exprINtB5_11ExprBuilderINtNtCsaNl6UpbT7bw_4core6option6OptionNtNtNtB9_9validator5types4TypeEE14with_expr_kindB9_
FNDA:1,_RNvMsc_NtNtCsfZPcC2TrjjJ_17cedar_policy_core3ast4exprINtB5_11ExprBuilderReE14with_expr_kindB9_
FNDA:34,_RNvMsc_NtNtCsfZPcC2TrjjJ_17cedar_policy_core3ast4exprINtB5_11ExprBuilderlE14with_expr_kindB9_
FNDA:10,_RNvMsc_NtNtCsfZPcC2TrjjJ_17cedar_policy_core3ast4exprINtB5_11ExprBuilderuE10record_arcB9_
FNDA:58530,_RNvMsc_NtNtCsfZPcC2TrjjJ_17cedar_policy_core3ast4exprINtB5_11ExprBuilderuE14with_expr_kindB9_
FNDA:2,_RNvMse_NtNtCsfZPcC2TrjjJ_17cedar_policy_core3ast4exprINtB5_13ExprShapeOnlylE17new_from_borrowedB9_
FNDA:464,_RNvMse_NtNtCsfZPcC2TrjjJ_17cedar_policy_core3ast4exprNtB5_13ExprShapeOnly14new_from_ownedB9_
FNDA:859,_RNvMse_NtNtCsfZPcC2TrjjJ_17cedar_policy_core3ast4exprNtB5_13ExprShapeOnly17new_from_borrowedB9_
FNDA:2242,_RNvMsk_NtNtCsfZPcC2TrjjJ_17cedar_policy_core3ast4exprNtB5_4Expr9cmp_shapeB9_
FNDA:14,_RNvXs6_NtNtCsfZPcC2TrjjJ_17cedar_policy_core3ast4exprINtB5_4ExprINtNtCsaNl6UpbT7bw_4core6option6OptionNtNtNtB9_9validator5types4TypeEENtNtB15_3fmt7Display3fmtB9_
FNDA:462,_RNvXs6_NtNtCsfZPcC2TrjjJ_17cedar_policy_core3ast4exprNtB5_4ExprNtNtCsaNl6UpbT7bw_4core3fmt7Display3fmtB9_
FNDA:1094,_RNvXsb_NtNtCsfZPcC2TrjjJ_17cedar_policy_core3ast4exprINtB5_11ExprBuilderINtNtCsaNl6UpbT7bw_4core6option6OptionNtNtNtB9_9validator5types4TypeEENtNtB9_12expr_builder11ExprBuilder12get_attr_arcB9_
FNDA:210,_RNvXsb_NtNtCsfZPcC2TrjjJ_17cedar_policy_core3ast4exprINtB5_11ExprBuilderINtNtCsaNl6UpbT7bw_4core6option6OptionNtNtNtB9_9validator5types4TypeEENtNtB9_12expr_builder11ExprBuilder12has_attr_arcB9_
FNDA:105,_RNvXsb_NtNtCsfZPcC2TrjjJ_17cedar_policy_core3ast4exprINtB5_11ExprBuilderINtNtCsaNl6UpbT7bw_4core6option6OptionNtNtNtB9_9validator5types4TypeEENtNtB9_12expr_builder11ExprBuilder18is_entity_type_arcB9_
FNDA:12162,_RNvXsb_NtNtCsfZPcC2TrjjJ_17cedar_policy_core3ast4exprINtB5_11ExprBuilderINtNtCsaNl6UpbT7bw_4core6option6OptionNtNtNtB9_9validator5types4TypeEENtNtB9_12expr_builder11ExprBuilder21with_maybe_source_locB9_
FNDA:51,_RNvXsb_NtNtCsfZPcC2TrjjJ_17cedar_policy_core3ast4exprINtB5_11ExprBuilderINtNtCsaNl6UpbT7bw_4core6option6OptionNtNtNtB9_9validator5types4TypeEENtNtB9_12expr_builder11ExprBuilder2orB9_
FNDA:2699,_RNvXsb_NtNtCsfZPcC2TrjjJ_17cedar_policy_core3ast4exprINtB5_11ExprBuilderINtNtCsaNl6UpbT7bw_4core6option6OptionNtNtNtB9_9validator5types4TypeEENtNtB9_12expr_builder11ExprBuilder3andB9_
FNDA:1,_RNvXsb_NtNtCsfZPcC2TrjjJ_17cedar_policy_core3ast4exprINtB5_11ExprBuilderINtNtCsaNl6UpbT7bw_4core6option6OptionNtNtNtB9_9validator5types4TypeEENtNtB9_12expr_builder11ExprBuilder3mulB9_
FNDA:2,_RNvXsb_NtNtCsfZPcC2TrjjJ_17cedar_policy_core3ast4exprINtB5_11ExprBuilderINtNtCsaNl6UpbT7bw_4core6option6OptionNtNtNtB9_9validator5types4TypeEENtNtB9_12expr_builder11ExprBuilder3negB9_
FNDA:148,_RNvXsb_NtNtCsfZPcC2TrjjJ_17cedar_policy_core3ast4exprINtB5_11ExprBuilderINtNtCsaNl6UpbT7bw_4core6option6OptionNtNtNtB9_9validator5types4TypeEENtNtB9_12expr_builder11ExprBuilder3notB9_
FNDA:1713,_RNvXsb_NtNtCsfZPcC2TrjjJ_17cedar_policy_core3ast4exprINtB5_11ExprBuilderINtNtCsaNl6UpbT7bw_4core6option6OptionNtNtNtB9_9validator5types4TypeEENtNtB9_12expr_builder11ExprBuilder3varB9_
FNDA:2,_RNvXsb_NtNtCsfZPcC2TrjjJ_17cedar_policy_core3ast4exprINtB5_11ExprBuilderINtNtCsaNl6UpbT7bw_4core6option6OptionNtNtNtB9_9validator5types4TypeEENtNtB9_12expr_builder11ExprBuilder4lessB9_
FNDA:21,_RNvXsb_NtNtCsfZPcC2TrjjJ_17cedar_policy_core3ast4exprINtB5_11ExprBuilderINtNtCsaNl6UpbT7bw_4core6option6OptionNtNtNtB9_9validator5types4TypeEENtNtB9_12expr_builder11ExprBuilder4likeB9_
FNDA:130,_RNvXsb_NtNtCsfZPcC2TrjjJ_17cedar_policy_core3ast4exprINtB5_11ExprBuilderINtNtCsaNl6UpbT7bw_4core6option6OptionNtNtNtB9_9validator5types4TypeEENtNtB9_12expr_builder11ExprBuilder4slotB9_
FNDA:3,_RNvXsb_NtNtCsfZPcC2TrjjJ_17cedar_policy_core3ast4exprINtB5_11ExprBuilderINtNtCsaNl6UpbT7bw_4core6option6OptionNtNtNtB9_9validator5types4TypeEENtNtB9_12expr_builder11ExprBuilder6lesseqB9_
FNDA:62,_RNvXsb_NtNtCsfZPcC2TrjjJ_17cedar_policy_core3ast4exprINtB5_11ExprBuilderINtNtCsaNl6UpbT7bw_4core6option6OptionNtNtNtB9_9validator5types4TypeEENtNtB9_12expr_builder11ExprBuilder7get_tagB9_
FNDA:1,_RNvXsb_NtNtCsfZPcC2TrjjJ_17cedar_policy_core3ast4exprINtB5_11ExprBuilderINtNtCsaNl6UpbT7bw_4core6option6OptionNtNtNtB9_9validator5types4TypeEENtNtB9_12expr_builder11ExprBuilder7has_tagB9_
FNDA:222,_RNvXsb_NtNtCsfZPcC2TrjjJ_17cedar_policy_core3ast4exprINtB5_11ExprBuilderINtNtCsaNl6UpbT7bw_4core6option6OptionNtNtNtB9_9validator5types4TypeEENtNtB9_12expr_builder11ExprBuilder7ite_arcB9_
FNDA:0,_RNvXsb_NtNtCsfZPcC2TrjjJ_17cedar_policy_core3ast4exprINtB5_11ExprBuilderINtNtCsaNl6UpbT7bw_4core6option6OptionNtNtNtB9_9validator5types4TypeEENtNtB9_12expr_builder11ExprBuilder7unknownB9_
FNDA:4,_RNvXsb_NtNtCsfZPcC2TrjjJ_17cedar_policy_core3ast4exprINtB5_11ExprBuilderINtNtCsaNl6UpbT7bw_4core6option6OptionNtNtNtB9_9validator5types4TypeEENtNtB9_12expr_builder11ExprBuilder8is_emptyB9_
FNDA:342,_RNvXsb_NtNtCsfZPcC2TrjjJ_17cedar_policy_core3ast4exprINtB5_11ExprBuilderINtNtCsaNl6UpbT7bw_4core6option6OptionNtNtNtB9_9validator5types4TypeEENtNtB9_12expr_builder11ExprBuilder9is_in_arcB9_
FNDA:12239,_RNvXsb_NtNtCsfZPcC2TrjjJ_17cedar_policy_core3ast4exprINtB5_11ExprBuilderINtNtCsaNl6UpbT7bw_4core6option6OptionNtNtNtB9_9validator5types4TypeEENtNtB9_12expr_builder11ExprBuilder9with_dataB9_
FNDA:1,_RNvXsb_NtNtCsfZPcC2TrjjJ_17cedar_policy_core3ast4exprINtB5_11ExprBuilderReENtNtB9_12expr_builder11ExprBuilder9with_dataB9_
FNDA:1,_RNvXsb_NtNtCsfZPcC2TrjjJ_17cedar_policy_core3ast4exprINtB5_11ExprBuilderlENtNtB9_12expr_builder11ExprBuilder12contains_allB9_
FNDA:1,_RNvXsb_NtNtCsfZPcC2TrjjJ_17cedar_policy_core3ast4exprINtB5_11ExprBuilderlENtNtB9_12expr_builder11ExprBuilder12contains_anyB9_
FNDA:1,_RNvXsb_NtNtCsfZPcC2TrjjJ_17cedar_policy_core3ast4exprINtB5_11ExprBuilderlENtNtB9_12expr_builder11ExprBuilder12get_attr_arcB9_
FNDA:1,_RNvXsb_NtNtCsfZPcC2TrjjJ_17cedar_policy_core3ast4exprINtB5_11ExprBuilderlENtNtB9_12expr_builder11ExprBuilder12has_attr_arcB9_
FNDA:1,_RNvXsb_NtNtCsfZPcC2TrjjJ_17cedar_policy_core3ast4exprINtB5_11ExprBuilderlENtNtB9_12expr_builder11ExprBuilder18is_entity_type_arcB9_
FNDA:1,_RNvXsb_NtNtCsfZPcC2TrjjJ_17cedar_policy_core3ast4exprINtB5_11ExprBuilderlENtNtB9_12expr_builder11ExprBuilder2orB9_
FNDA:1,_RNvXsb_NtNtCsfZPcC2TrjjJ_17cedar_policy_core3ast4exprINtB5_11ExprBuilderlENtNtB9_12expr_builder11ExprBuilder3addB9_
FNDA:1,_RNvXsb_NtNtCsfZPcC2TrjjJ_17cedar_policy_core3ast4exprINtB5_11ExprBuilderlENtNtB9_12expr_builder11ExprBuilder3andB9_
FNDA:1,_RNvXsb_NtNtCsfZPcC2TrjjJ_17cedar_policy_core3ast4exprINtB5_11ExprBuilderlENtNtB9_12expr_builder11ExprBuilder3mulB9_
FNDA:1,_RNvXsb_NtNtCsfZPcC2TrjjJ_17cedar_policy_core3ast4exprINtB5_11ExprBuilderlENtNtB9_12expr_builder11ExprBuilder3negB9_
FNDA:3,_RNvXsb_NtNtCsfZPcC2TrjjJ_17cedar_policy_core3ast4exprINtB5_11ExprBuilderlENtNtB9_12expr_builder11ExprBuilder3notB9_
FNDA:1,_RNvXsb_NtNtCsfZPcC2TrjjJ_17cedar_policy_core3ast4exprINtB5_11ExprBuilderlENtNtB9_12expr_builder11ExprBuilder3subB9_
FNDA:1,_RNvXsb_NtNtCsfZPcC2TrjjJ_17cedar_policy_core3ast4exprINtB5_11ExprBuilderlENtNtB9_12expr_builder11ExprBuilder3varB9_
FNDA:2,_RNvXsb_NtNtCsfZPcC2TrjjJ_17cedar_policy_core3ast4exprINtB5_11ExprBuilderlENtNtB9_12expr_builder11ExprBuilder4lessB9_
FNDA:1,_RNvXsb_NtNtCsfZPcC2TrjjJ_17cedar_policy_core3ast4exprINtB5_11ExprBuilderlENtNtB9_12expr_builder11ExprBuilder4likeB9_
FNDA:1,_RNvXsb_NtNtCsfZPcC2TrjjJ_17cedar_policy_core3ast4exprINtB5_11ExprBuilderlENtNtB9_12expr_builder11ExprBuilder4slotB9_
FNDA:1,_RNvXsb_NtNtCsfZPcC2TrjjJ_17cedar_policy_core3ast4exprINtB5_11ExprBuilderlENtNtB9_12expr_builder11ExprBuilder5is_eqB9_
FNDA:2,_RNvXsb_NtNtCsfZPcC2TrjjJ_17cedar_policy_core3ast4exprINtB5_11ExprBuilderlENtNtB9_12expr_builder11ExprBuilder6lesseqB9_
FNDA:1,_RNvXsb_NtNtCsfZPcC2TrjjJ_17cedar_policy_core3ast4exprINtB5_11ExprBuilderlENtNtB9_12expr_builder11ExprBuilder7ite_arcB9_
FNDA:1,_RNvXsb_NtNtCsfZPcC2TrjjJ_17cedar_policy_core3ast4exprINtB5_11ExprBuilderlENtNtB9_12expr_builder11ExprBuilder8containsB9_
FNDA:1,_RNvXsb_NtNtCsfZPcC2TrjjJ_17cedar_policy_core3ast4exprINtB5_11ExprBuilderlENtNtB9_12expr_builder11ExprBuilder8is_emptyB9_
FNDA:1,_RNvXsb_NtNtCsfZPcC2TrjjJ_17cedar_policy_core3ast4exprINtB5_11ExprBuilderlENtNtB9_12expr_builder11ExprBuilder9is_in_arcB9_
FNDA:32,_RNvXsb_NtNtCsfZPcC2TrjjJ_17cedar_policy_core3ast4exprINtB5_11ExprBuilderlENtNtB9_12expr_builder11ExprBuilder9with_dataB9_
FNDA:25,_RNvXsb_NtNtCsfZPcC2TrjjJ_17cedar_policy_core3ast4exprINtB5_11ExprBuilderuENtNtB9_12expr_builder11ExprBuilder12contains_allB9_
FNDA:20,_RNvXsb_NtNtCsfZPcC2TrjjJ_17cedar_policy_core3ast4exprINtB5_11ExprBuilderuENtNtB9_12expr_builder11ExprBuilder12contains_anyB9_
FNDA:968,_RNvXsb_NtNtCsfZPcC2TrjjJ_17cedar_policy_core3ast4exprINtB5_11ExprBuilderuENtNtB9_12expr_builder11ExprBuilder12get_attr_arcB9_
FNDA:203,_RNvXsb_NtNtCsfZPcC2TrjjJ_17cedar_policy_core3ast4exprINtB5_11ExprBuilderuENtNtB9_12expr_builder11ExprBuilder12has_attr_arcB9_
FNDA:205,_RNvXsb_NtNtCsfZPcC2TrjjJ_17cedar_policy_core3ast4exprINtB5_11ExprBuilderuENtNtB9_12expr_builder11ExprBuilder18is_entity_type_arcB9_
FNDA:6049,_RNvXsb_NtNtCsfZPcC2TrjjJ_17cedar_policy_core3ast4exprINtB5_11ExprBuilderuENtNtB9_12expr_builder11ExprBuilder21with_maybe_source_locB9_
FNDA:93,_RNvXsb_NtNtCsfZPcC2TrjjJ_17cedar_policy_core3ast4exprINtB5_11ExprBuilderuENtNtB9_12expr_builder11ExprBuilder2orB9_
FNDA:54,_RNvXsb_NtNtCsfZPcC2TrjjJ_17cedar_policy_core3ast4exprINtB5_11ExprBuilderuENtNtB9_12expr_builder11ExprBuilder3addB9_
FNDA:13133,_RNvXsb_NtNtCsfZPcC2TrjjJ_17cedar_policy_core3ast4exprINtB5_11ExprBuilderuENtNtB9_12expr_builder11ExprBuilder3andB9_
FNDA:367,_RNvXsb_NtNtCsfZPcC2TrjjJ_17cedar_policy_core3ast4exprINtB5_11ExprBuilderuENtNtB9_12expr_builder11ExprBuilder3locB9_
FNDA:78,_RNvXsb_NtNtCsfZPcC2TrjjJ_17cedar_policy_core3ast4exprINtB5_11ExprBuilderuENtNtB9_12expr_builder11ExprBuilder3mulB9_
FNDA:37,_RNvXsb_NtNtCsfZPcC2TrjjJ_17cedar_policy_core3ast4exprINtB5_11ExprBuilderuENtNtB9_12expr_builder11ExprBuilder3negB9_
FNDA:226,_RNvXsb_NtNtCsfZPcC2TrjjJ_17cedar_policy_core3ast4exprINtB5_11ExprBuilderuENtNtB9_12expr_builder11ExprBuilder3notB9_
FNDA:28,_RNvXsb_NtNtCsfZPcC2TrjjJ_17cedar_policy_core3ast4exprINtB5_11ExprBuilderuENtNtB9_12expr_builder11ExprBuilder3subB9_
FNDA:8036,_RNvXsb_NtNtCsfZPcC2TrjjJ_17cedar_policy_core3ast4exprINtB5_11ExprBuilderuENtNtB9_12expr_builder11ExprBuilder3varB9_
FNDA:85,_RNvXsb_NtNtCsfZPcC2TrjjJ_17cedar_policy_core3ast4exprINtB5_11ExprBuilderuENtNtB9_12expr_builder11ExprBuilder4lessB9_
FNDA:76,_RNvXsb_NtNtCsfZPcC2TrjjJ_17cedar_policy_core3ast4exprINtB5_11ExprBuilderuENtNtB9_12expr_builder11ExprBuilder4likeB9_
FNDA:2472,_RNvXsb_NtNtCsfZPcC2TrjjJ_17cedar_policy_core3ast4exprINtB5_11ExprBuilderuENtNtB9_12expr_builder11ExprBuilder4slotB9_
FNDA:3627,_RNvXsb_NtNtCsfZPcC2TrjjJ_17cedar_policy_core3ast4exprINtB5_11ExprBuilderuENtNtB9_12expr_builder11ExprBuilder5is_eqB9_
FNDA:114,_RNvXsb_NtNtCsfZPcC2TrjjJ_17cedar_policy_core3ast4exprINtB5_11ExprBuilderuENtNtB9_12expr_builder11ExprBuilder6lesseqB9_
FNDA:53,_RNvXsb_NtNtCsfZPcC2TrjjJ_17cedar_policy_core3ast4exprINtB5_11ExprBuilderuENtNtB9_12expr_builder11ExprBuilder7get_tagB9_
FNDA:55,_RNvXsb_NtNtCsfZPcC2TrjjJ_17cedar_policy_core3ast4exprINtB5_11ExprBuilderuENtNtB9_12expr_builder11ExprBuilder7has_tagB9_
FNDA:222,_RNvXsb_NtNtCsfZPcC2TrjjJ_17cedar_policy_core3ast4exprINtB5_11ExprBuilderuENtNtB9_12expr_builder11ExprBuilder7ite_arcB9_
FNDA:324,_RNvXsb_NtNtCsfZPcC2TrjjJ_17cedar_policy_core3ast4exprINtB5_11ExprBuilderuENtNtB9_12expr_builder11ExprBuilder7unknownB9_
FNDA:43,_RNvXsb_NtNtCsfZPcC2TrjjJ_17cedar_policy_core3ast4exprINtB5_11ExprBuilderuENtNtB9_12expr_builder11ExprBuilder8containsB9_
FNDA:16,_RNvXsb_NtNtCsfZPcC2TrjjJ_17cedar_policy_core3ast4exprINtB5_11ExprBuilderuENtNtB9_12expr_builder11ExprBuilder8is_emptyB9_
FNDA:3911,_RNvXsb_NtNtCsfZPcC2TrjjJ_17cedar_policy_core3ast4exprINtB5_11ExprBuilderuENtNtB9_12expr_builder11ExprBuilder9is_in_arcB9_
FNDA:58901,_RNvXsb_NtNtCsfZPcC2TrjjJ_17cedar_policy_core3ast4exprINtB5_11ExprBuilderuENtNtB9_12expr_builder11ExprBuilder9with_dataB9_
FNDA:1,_RNvXsf_NtNtCsfZPcC2TrjjJ_17cedar_policy_core3ast4exprINtB5_13ExprShapeOnlylENtNtCsaNl6UpbT7bw_4core3cmp9PartialEq2eqB9_
FNDA:359,_RNvXsf_NtNtCsfZPcC2TrjjJ_17cedar_policy_core3ast4exprNtB5_13ExprShapeOnlyNtNtCsaNl6UpbT7bw_4core3cmp9PartialEq2eqB9_
FNDA:341,_RNvXsi_NtNtCsfZPcC2TrjjJ_17cedar_policy_core3ast4exprNtB5_13ExprShapeOnlyNtNtCsaNl6UpbT7bw_4core3cmp10PartialOrd11partial_cmpB9_
FNDA:1841,_RNvXsj_NtNtCsfZPcC2TrjjJ_17cedar_policy_core3ast4exprNtB5_13ExprShapeOnlyNtNtCsaNl6UpbT7bw_4core3cmp3Ord3cmpB9_
FNDA:0,_RNvMNtNtNtCsfZPcC2TrjjJ_17cedar_policy_core3ast4expr30expression_construction_errorsNtB2_17DuplicateKeyError12with_context
FNDA:1,_RNvNtNtNtCsfZPcC2TrjjJ_17cedar_policy_core3ast4expr4test8all_vars
FNDA:1,_RNvNtNtNtCsfZPcC2TrjjJ_17cedar_policy_core3ast4expr4tests_10is_unknown
FNDA:1,_RNvNtNtNtCsfZPcC2TrjjJ_17cedar_policy_core3ast4expr4tests_11has_display
FNDA:1,_RNvNtNtNtCsfZPcC2TrjjJ_17cedar_policy_core3ast4expr4tests_12like_display
FNDA:1,_RNvNtNtNtCsfZPcC2TrjjJ_17cedar_policy_core3ast4expr4tests_12simple_slots
FNDA:1,_RNvNtNtNtCsfZPcC2TrjjJ_17cedar_policy_core3ast4expr4tests_12slot_display
FNDA:1,_RNvNtNtNtCsfZPcC2TrjjJ_17cedar_policy_core3ast4expr4tests_14expr_with_data
FNDA:1,_RNvNtNtNtCsfZPcC2TrjjJ_17cedar_policy_core3ast4expr4tests_16all_vars_are_ids
FNDA:1,_RNvNtNtNtCsfZPcC2TrjjJ_17cedar_policy_core3ast4expr4tests_18expr_shape_only_eq
FNDA:1,_RNvNtNtNtCsfZPcC2TrjjJ_17cedar_policy_core3ast4expr4tests_19typed_subst_present
FNDA:1,_RNvNtNtNtCsfZPcC2TrjjJ_17cedar_policy_core3ast4expr4tests_21untyped_subst_present
FNDA:1,_RNvNtNtNtCsfZPcC2TrjjJ_17cedar_policy_core3ast4expr4tests_22expr_shape_only_not_eq
FNDA:1,_RNvNtNtNtCsfZPcC2TrjjJ_17cedar_policy_core3ast4expr4tests_23typed_subst_not_present
FNDA:1,_RNvNtNtNtCsfZPcC2TrjjJ_17cedar_policy_core3ast4expr4tests_25untyped_subst_not_present
FNDA:1,_RNvNtNtNtCsfZPcC2TrjjJ_17cedar_policy_core3ast4expr4tests_29expr_shape_only_set_prefix_ne
FNDA:1,_RNvNtNtNtCsfZPcC2TrjjJ_17cedar_policy_core3ast4expr4tests_30typed_subst_present_wrong_type
FNDA:1,_RNvNtNtNtCsfZPcC2TrjjJ_17cedar_policy_core3ast4expr4tests_32typed_subst_present_correct_type
FNDA:1,_RNvNtNtNtCsfZPcC2TrjjJ_17cedar_policy_core3ast4expr4tests_32untyped_subst_present_wrong_type
FNDA:1,_RNvNtNtNtCsfZPcC2TrjjJ_17cedar_policy_core3ast4expr4tests_34untyped_subst_present_correct_type
FNDA:1,_RNvNtNtNtCsfZPcC2TrjjJ_17cedar_policy_core3ast4expr4tests_36expr_shape_only_ext_fn_arg_prefix_ne
FNDA:1,_RNvNtNtNtCsfZPcC2TrjjJ_17cedar_policy_core3ast4expr4tests_37expr_shape_only_record_attr_prefix_ne
FNDA:1,_RNvNtNtNtCsfZPcC2TrjjJ_17cedar_policy_core3ast4expr4tests_5exprs
FNDA:1,_RNvNtNtNtCsfZPcC2TrjjJ_17cedar_policy_core3ast4expr4tests_8unknowns
FNF:185
FNH:156
DA:174,474
DA:175,474
DA:176,27
DA:177,210
DA:178,0
DA:179,0
DA:180,15
DA:181,0
DA:182,0
DA:183,0
DA:184,36
DA:185,0
DA:186,185
DA:187,0
DA:188,0
DA:189,0
DA:190,1
DA:191,0
DA:195,474
DA:199,132
DA:200,132
DA:201,132
DA:205,132
DA:206,132
DA:207,130
DA:208,0
DA:213,0
DA:214,0
DA:215,0
DA:216,0
DA:218,0
DA:219,2
DA:221,132
DA:225,17
DA:226,17
DA:227,14
DA:228,3
DA:230,17
DA:234,70823
DA:235,70823
DA:236,70823
DA:237,70823
DA:238,70823
DA:239,70823
DA:240,70823
DA:245,87377
DA:246,87377
DA:247,87377
DA:250,1555
DA:251,1555
DA:252,1555
DA:255,28230
DA:256,28230
DA:257,28230
DA:261,168
DA:262,168
DA:263,168
DA:267,0
DA:268,0
DA:269,0
DA:272,13461
DA:273,13461
DA:274,13461
DA:277,16612
DA:278,16612
DA:279,16612
DA:283,59
DA:284,59
DA:285,59
DA:291,0
DA:292,0
DA:293,0
DA:294,0
DA:296,0
DA:299,0
DA:300,0
DA:301,0
DA:307,0
DA:308,0
DA:309,0
DA:310,0
DA:312,0
DA:315,4531
DA:316,4531
DA:317,4531
DA:320,3928
DA:321,3928
DA:322,42818
DA:323,2069
DA:324,2069
DA:325,2069
DA:326,2069
DA:327,40749
DA:328,42818
DA:329,3928
DA:334,21
DA:335,58
DA:336,3
DA:337,58
DA:344,58
DA:345,21
DA:358,24
DA:359,0
DA:360,18
DA:361,0
DA:362,0
DA:363,0
DA:365,0
DA:366,0
DA:369,0
DA:370,0
DA:371,0
DA:372,0
DA:374,0
DA:377,0
DA:378,0
DA:381,0
DA:384,0
DA:388,0
DA:392,0
DA:403,0
DA:407,0
DA:408,2
DA:409,2
DA:410,2
DA:411,2
DA:412,2
DA:417,0
DA:422,0
DA:423,0
DA:424,0
DA:425,0
DA:426,1
DA:427,3
DA:431,24
DA:437,1555
DA:438,1555
DA:439,1555
DA:441,1555
DA:442,1555
DA:443,710
DA:444,131
DA:445,186
DA:446,4
DA:448,79
DA:449,79
DA:450,79
DA:451,79
DA:452,79
DA:453,79
DA:454,79
DA:456,80
DA:457,80
DA:458,80
DA:460,3
DA:461,3
DA:462,3
DA:464,34
DA:465,34
DA:466,34
DA:468,135
DA:469,135
DA:470,135
DA:471,135
DA:473,40
DA:474,40
DA:475,40
DA:476,49
DA:477,40
DA:479,67
DA:480,67
DA:482,13
DA:483,13
DA:485,14
DA:486,14
DA:488,16
DA:489,16
DA:491,26
DA:492,26
DA:493,26
DA:494,52
DA:500,17
DA:501,17
DA:502,17
DA:503,17
DA:504,23
DA:506,17
DA:519,1555
DA:530,18941
DA:531,18941
DA:532,18941
DA:535,323
DA:536,323
DA:537,323
DA:540,7301
DA:541,7301
DA:542,7301
DA:545,2300
DA:546,2300
DA:547,2300
DA:552,65
DA:553,65
DA:554,65
DA:559,7
DA:560,7
DA:561,7
DA:564,36
DA:565,36
DA:566,36
DA:569,3397
DA:570,3397
DA:571,3397
DA:574,8
DA:575,8
DA:576,8
DA:579,12912
DA:580,12912
DA:581,12912
DA:584,41
DA:585,41
DA:586,41
DA:589,36
DA:590,36
DA:591,36
DA:594,23
DA:595,23
DA:596,23
DA:599,20
DA:600,20
DA:601,20
DA:604,13
DA:605,13
DA:606,13
DA:609,32
DA:610,32
DA:611,32
DA:614,14
DA:615,14
DA:616,14
DA:619,35
DA:620,35
DA:621,35
DA:624,25
DA:625,25
DA:626,25
DA:631,3788
DA:632,3788
DA:633,3788
DA:637,25
DA:638,25
DA:639,25
DA:642,19
DA:643,19
DA:644,19
DA:647,14
DA:648,14
DA:649,14
DA:652,10
DA:653,10
DA:654,10
DA:658,12
DA:659,12
DA:660,12
DA:664,12
DA:665,12
DA:666,12
DA:669,1709
DA:670,1709
DA:671,1709
DA:674,338
DA:675,338
DA:676,338
DA:677,338
DA:678,338
DA:687,10
DA:688,10
DA:689,10
DA:693,503
DA:694,503
DA:695,503
DA:699,8
DA:700,8
DA:701,8
DA:705,202
DA:706,202
DA:707,202
DA:712,175
DA:713,175
DA:714,175
DA:720,33
DA:721,33
DA:722,33
DA:727,19
DA:728,19
DA:729,19
DA:732,137
DA:733,137
DA:734,137
DA:737,47
DA:738,47
DA:739,152
DA:740,47
DA:743,1
DA:744,1
DA:745,7
DA:746,3
DA:747,4
DA:748,7
DA:749,1
DA:759,0
DA:760,0
DA:761,0
DA:764,0
DA:774,1
DA:775,1
DA:776,1
DA:777,1
DA:778,1
DA:779,1
DA:784,5
DA:785,5
DA:786,5
DA:787,5
DA:788,5
DA:789,2
DA:790,1
DA:791,0
DA:792,0
DA:794,0
DA:795,0
DA:796,0
DA:797,0
DA:798,0
DA:799,0
DA:800,0
DA:802,1
DA:803,1
DA:804,1
DA:806,0
DA:807,0
DA:808,0
DA:810,0
DA:811,0
DA:812,0
DA:814,1
DA:815,1
DA:816,1
DA:817,1
DA:819,0
DA:820,0
DA:821,0
DA:822,0
DA:823,0
DA:825,0
DA:827,0
DA:828,0
DA:829,0
DA:831,0
DA:832,0
DA:833,0
DA:835,0
DA:836,0
DA:837,0
DA:839,0
DA:840,0
DA:841,0
DA:842,0
DA:843,0
DA:844,0
DA:846,0
DA:847,0
DA:848,0
DA:849,0
DA:850,0
DA:855,0
DA:856,0
DA:858,0
DA:859,0
DA:860,0
DA:865,5
DA:885,5
DA:886,5
DA:887,1
DA:888,2
DA:889,2
DA:890,2
DA:891,1
DA:893,1
DA:894,1
DA:895,1
DA:896,1
DA:900,5
DA:908,4
DA:909,4
DA:910,4
DA:911,4
DA:912,4
DA:916,476
DA:920,476
DA:921,476
DA:925,0
DA:928,0
DA:929,0
DA:935,249
DA:936,249
DA:937,249
DA:966,197
DA:967,197
DA:968,197
DA:969,197
DA:970,197
DA:971,197
DA:975,5
DA:976,5
DA:977,5
DA:978,5
DA:979,5
DA:980,5
DA:984,0
DA:987,0
DA:988,0
DA:989,0
DA:990,0
DA:992,0
DA:1013,367
DA:1014,367
DA:1015,367
DA:1017,0
DA:1018,0
DA:1019,0
DA:1021,71173
DA:1022,71173
DA:1023,71173
DA:1024,71173
DA:1025,71173
DA:1026,71173
DA:1028,18211
DA:1029,18211
DA:1030,18211
DA:1031,18211
DA:1036,25046
DA:1037,25046
DA:1038,25046
DA:1041,324
DA:1042,324
DA:1043,324
DA:1046,9750
DA:1047,9750
DA:1048,9750
DA:1051,2603
DA:1052,2603
DA:1053,2603
DA:1058,445
DA:1059,445
DA:1060,445
DA:1061,445
DA:1062,445
DA:1063,445
DA:1064,445
DA:1065,445
DA:1066,445
DA:1067,445
DA:1068,445
DA:1069,445
DA:1072,377
DA:1073,377
DA:1074,377
DA:1075,377
DA:1076,377
DA:1077,377
DA:1080,3628
DA:1081,3628
DA:1082,3628
DA:1083,3628
DA:1084,3628
DA:1085,3628
DA:1086,3628
DA:1089,15833
DA:1090,15833
DA:1091,1490
DA:1092,1490
DA:1094,14343
DA:1095,14343
DA:1096,14343
DA:1097,14343
DA:1099,15833
DA:1102,145
DA:1103,145
DA:1104,5
DA:1105,5
DA:1108,140
DA:1109,140
DA:1110,140
DA:1111,140
DA:1113,145
DA:1116,89
DA:1117,89
DA:1118,89
DA:1119,89
DA:1120,89
DA:1121,89
DA:1122,89
DA:1125,119
DA:1126,119
DA:1127,119
DA:1128,119
DA:1129,119
DA:1130,119
DA:1131,119
DA:1134,55
DA:1135,55
DA:1136,55
DA:1137,55
DA:1138,55
DA:1139,55
DA:1140,55
DA:1143,29
DA:1144,29
DA:1145,29
DA:1146,29
DA:1147,29
DA:1148,29
DA:1149,29
DA:1152,80
DA:1153,80
DA:1154,80
DA:1155,80
DA:1156,80
DA:1157,80
DA:1158,80
DA:1161,40
DA:1162,40
DA:1163,40
DA:1164,40
DA:1165,40
DA:1166,40
DA:1171,4254
DA:1172,4254
DA:1173,4254
DA:1174,4254
DA:1175,4254
DA:1176,4254
DA:1177,4254
DA:1181,44
DA:1182,44
DA:1183,44
DA:1184,44
DA:1185,44
DA:1186,44
DA:1187,44
DA:1190,26
DA:1191,26
DA:1192,26
DA:1193,26
DA:1194,26
DA:1195,26
DA:1196,26
DA:1199,21
DA:1200,21
DA:1201,21
DA:1202,21
DA:1203,21
DA:1204,21
DA:1205,21
DA:1208,21
DA:1209,21
DA:1210,21
DA:1211,21
DA:1212,21
DA:1213,21
DA:1217,115
DA:1218,115
DA:1219,115
DA:1220,115
DA:1221,115
DA:1222,115
DA:1223,115
DA:1227,56
DA:1228,56
DA:1229,56
DA:1230,56
DA:1231,56
DA:1232,56
DA:1233,56
DA:1236,2091
DA:1237,2091
DA:1238,2091
DA:1241,672
DA:1242,672
DA:1243,672
DA:1244,672
DA:1245,672
DA:1246,1687
DA:1247,1024
DA:1248,9
DA:1249,9
DA:1250,9
DA:1251,9
DA:1252,9
DA:1253,9
DA:1255,1015
DA:1256,1015
DA:1257,1015
DA:1260,663
DA:1261,672
DA:1265,904
DA:1266,904
DA:1267,904
DA:1268,904
DA:1269,904
DA:1270,904
DA:1274,8
DA:1275,8
DA:1276,8
DA:1277,8
DA:1278,8
DA:1279,8
DA:1283,1145
DA:1284,1145
DA:1285,1145
DA:1286,1145
DA:1287,1145
DA:1288,1145
DA:1289,1145
DA:1294,2063
DA:1295,2063
DA:1296,2063
DA:1302,414
DA:1303,414
DA:1304,414
DA:1309,98
DA:1310,98
DA:1311,98
DA:1312,98
DA:1313,98
DA:1314,98
DA:1317,311
DA:1318,311
DA:1319,311
DA:1331,70807
DA:1332,70807
DA:1333,70807
DA:1341,10
DA:1342,10
DA:1343,10
DA:1350,12162
DA:1351,12162
DA:1352,12162
DA:1390,0
DA:1391,0
DA:1392,0
DA:1395,0
DA:1396,0
DA:1397,0
DA:1411,861
DA:1412,861
DA:1413,861
DA:1418,464
DA:1419,464
DA:1420,464
DA:1424,360
DA:1425,360
DA:1426,360
DA:1432,0
DA:1433,0
DA:1434,0
DA:1438,341
DA:1439,341
DA:1440,341
DA:1444,1841
DA:1445,1841
DA:1446,1841
DA:1456,915
DA:1458,915
DA:1459,342
DA:1460,119
DA:1461,4
DA:1464,0
DA:1465,0
DA:1468,0
DA:1469,0
DA:1471,0
DA:1474,10
DA:1475,10
DA:1476,10
DA:1479,10
DA:1480,10
DA:1481,10
DA:1484,10
DA:1485,10
DA:1486,10
DA:1489,15
DA:1491,15
DA:1492,15
DA:1496,5
DA:1498,5
DA:1499,5
DA:1501,20
DA:1502,43
DA:1503,43
DA:1506,95
DA:1508,95
DA:1509,95
DA:1510,95
DA:1512,95
DA:1514,10
DA:1516,10
DA:1517,10
DA:1520,10
DA:1521,10
DA:1522,4
DA:1525,71
DA:1527,71
DA:1528,71
DA:1532,9
DA:1534,9
DA:1535,9
DA:1537,80
DA:1539,4
DA:1541,4
DA:1542,4
DA:1544,4
DA:1545,10
DA:1546,10
DA:1547,4
DA:1548,4
DA:1549,4
DA:1550,4
DA:1552,10
DA:1553,10
DA:1554,4
DA:1555,4
DA:1556,4
DA:1557,4
DA:1560,23
DA:1562,23
DA:1563,23
DA:1565,23
DA:1566,145
DA:1568,915
DA:1573,144
DA:1574,144
DA:1575,144
DA:1577,144
DA:1578,144
DA:1579,86
DA:1580,2
DA:1581,2
DA:1582,0
DA:1584,2
DA:1585,2
DA:1586,2
DA:1587,2
DA:1588,2
DA:1589,2
DA:1590,2
DA:1591,2
DA:1592,2
DA:1593,2
DA:1594,2
DA:1595,2
DA:1596,2
DA:1597,2
DA:1598,2
DA:1599,2
DA:1600,10
DA:1601,10
DA:1602,10
DA:1603,10
DA:1604,24
DA:1605,24
DA:1606,24
DA:1607,24
DA:1608,24
DA:1609,2
DA:1610,2
DA:1611,2
DA:1612,2
DA:1613,2
DA:1614,2
DA:1616,2
DA:1617,2
DA:1618,2
DA:1619,2
DA:1620,2
DA:1621,2
DA:1622,2
DA:1623,2
DA:1624,2
DA:1625,2
DA:1626,2
DA:1627,2
DA:1628,2
DA:1629,2
DA:1630,2
DA:1631,2
DA:1632,2
DA:1634,2
DA:1635,2
DA:1636,2
DA:1637,2
DA:1638,2
DA:1639,2
DA:1641,2
DA:1642,2
DA:1643,2
DA:1644,2
DA:1648,144
DA:1653,2242
DA:1655,2242
DA:1656,2242
DA:1657,2242
DA:1658,237
DA:1659,2005
DA:1663,2005
DA:1664,849
DA:1665,779
DA:1666,0
DA:1669,0
DA:1670,0
DA:1673,0
DA:1674,0
DA:1676,0
DA:1679,29
DA:1680,29
DA:1681,29
DA:1684,29
DA:1685,29
DA:1686,29
DA:1688,29
DA:1689,29
DA:1690,29
DA:1691,29
DA:1693,0
DA:1695,0
DA:1696,0
DA:1698,0
DA:1700,0
DA:1702,0
DA:1703,0
DA:1705,0
DA:1706,0
DA:1707,0
DA:1710,16
DA:1712,16
DA:1713,16
DA:1714,16
DA:1716,16
DA:1717,16
DA:1718,16
DA:1719,16
DA:1721,0
DA:1723,0
DA:1724,0
DA:1726,0
DA:1727,0
DA:1728,0
DA:1729,0
DA:1730,0
DA:1731,0
DA:1734,0
DA:1735,0
DA:1736,0
DA:1738,332
DA:1740,332
DA:1741,332
DA:1743,332
DA:1745,0
DA:1747,0
DA:1748,0
DA:1750,0
DA:1752,0
DA:1754,0
DA:1755,0
DA:1757,0
DA:1758,0
DA:1759,0
DA:1760,0
DA:1761,0
DA:1762,0
DA:1765,0
DA:1766,0
DA:1767,0
DA:1768,0
DA:1769,0
DA:1770,0
DA:1771,0
DA:1774,0
DA:1775,0
DA:1777,0
DA:1779,0
DA:1780,0
DA:1782,0
DA:1783,0
DA:1784,0
DA:1796,0
DA:1800,2242
DA:1821,5312
DA:1822,5312
DA:1823,2694
DA:1824,2618
DA:1826,5312
DA:1834,14
DA:1839,14
DA:1840,14
DA:1848,10
DA:1853,10
DA:1854,10
DA:1858,734
DA:1859,734
DA:1860,353
DA:1861,12
DA:1862,327
DA:1863,42
DA:1865,734
DA:1879,1
DA:1880,1
DA:1881,1
DA:1885,1
DA:1886,4
DA:1887,4
DA:1888,4
DA:1889,4
DA:1890,1
DA:1893,1
DA:1894,1
DA:1895,1
DA:1896,1
DA:1898,1
DA:1899,1
DA:1900,1
DA:1902,1
DA:1903,1
DA:1904,1
DA:1905,1
DA:1906,1
DA:1907,1
DA:1910,1
DA:1911,1
DA:1912,1
DA:1914,1
DA:1915,1
DA:1916,1
DA:1917,1
DA:1918,1
DA:1919,1
DA:1920,1
DA:1921,1
DA:1922,1
DA:1923,1
DA:1926,1
DA:1927,1
DA:1928,1
DA:1929,1
DA:1930,1
DA:1931,1
DA:1932,1
DA:1933,1
DA:1934,1
DA:1937,1
DA:1938,1
DA:1939,1
DA:1940,1
DA:1941,1
DA:1942,1
DA:1943,1
DA:1944,1
DA:1945,1
DA:1946,1
DA:1947,1
DA:1948,1
DA:1949,1
DA:1952,1
DA:1953,1
DA:1954,1
DA:1955,1
DA:1956,1
DA:1957,1
DA:1958,1
DA:1959,1
DA:1960,1
DA:1961,1
DA:1962,1
DA:1963,1
DA:1964,1
DA:1967,1
DA:1968,1
DA:1969,1
DA:1970,1
DA:1972,1
DA:1973,1
DA:1974,1
DA:1975,1
DA:1976,1
DA:1977,1
DA:1978,1
DA:1979,1
DA:1980,1
DA:1981,1
DA:1982,1
DA:1985,1
DA:1988,1
DA:1990,1
DA:1991,1
DA:1993,1
DA:1994,1
DA:1995,1
DA:1997,1
DA:1999,1
DA:2000,1
DA:2001,1
DA:2003,1
DA:2005,1
DA:2006,1
DA:2007,1
DA:2009,1
DA:2010,1
DA:2013,1
DA:2015,1
DA:2016,1
DA:2018,1
DA:2019,1
DA:2020,1
DA:2023,1
DA:2024,1
DA:2025,1
DA:2026,1
DA:2027,1
DA:2028,1
DA:2029,1
DA:2030,1
DA:2033,1
DA:2034,1
DA:2035,1
DA:2036,1
DA:2037,1
DA:2038,1
DA:2039,1
DA:2040,1
DA:2041,1
DA:2042,1
DA:2043,1
DA:2044,1
DA:2047,1
DA:2048,1
DA:2049,1
DA:2052,1
DA:2053,1
DA:2054,1
DA:2055,1
DA:2056,1
DA:2058,1
DA:2059,1
DA:2060,1
DA:2061,1
DA:2062,1
DA:2063,1
DA:2066,1
DA:2067,1
DA:2068,1
DA:2069,1
DA:2070,1
DA:2072,1
DA:2073,1
DA:2074,1
DA:2075,1
DA:2076,1
DA:2078,1
DA:2079,1
DA:2082,1
DA:2083,1
DA:2084,1
DA:2085,1
DA:2088,1
DA:2089,1
DA:2090,1
DA:2091,1
DA:2092,1
DA:2093,1
DA:2094,1
DA:2095,1
DA:2096,1
DA:2097,1
DA:2098,1
DA:2099,1
DA:2100,1
DA:2101,1
DA:2102,1
DA:2103,1
DA:2104,1
DA:2105,1
DA:2106,1
DA:2107,1
DA:2108,1
DA:2109,1
DA:2110,1
DA:2111,1
DA:2112,1
DA:2113,1
DA:2114,1
DA:2115,1
DA:2116,1
DA:2117,1
DA:2118,1
DA:2119,1
DA:2120,1
DA:2121,1
DA:2122,1
DA:2123,1
DA:2124,1
DA:2125,1
DA:2126,1
DA:2127,1
DA:2128,1
DA:2129,1
DA:2130,1
DA:2131,1
DA:2132,1
DA:2133,1
DA:2134,1
DA:2135,1
DA:2136,1
DA:2137,1
DA:2138,1
DA:2139,1
DA:2140,1
DA:2141,1
DA:2142,1
DA:2143,1
DA:2144,1
DA:2145,1
DA:2146,1
DA:2147,1
DA:2148,1
DA:2149,1
DA:2150,1
DA:2151,1
DA:2152,1
DA:2153,1
DA:2154,1
DA:2155,1
DA:2156,1
DA:2157,1
DA:2158,1
DA:2159,1
DA:2160,1
DA:2161,1
DA:2162,1
DA:2163,1
DA:2164,1
DA:2165,1
DA:2166,1
DA:2167,1
DA:2168,1
DA:2169,1
DA:2170,1
DA:2171,1
DA:2172,1
DA:2173,1
DA:2174,1
DA:2175,1
DA:2176,1
DA:2177,1
DA:2178,1
DA:2179,1
DA:2180,1
DA:2181,1
DA:2182,1
DA:2183,1
DA:2184,1
DA:2185,1
DA:2186,1
DA:2187,1
DA:2188,1
DA:2189,1
DA:2190,1
DA:2191,1
DA:2192,1
DA:2193,1
DA:2194,1
DA:2195,1
DA:2196,1
DA:2197,1
DA:2198,1
DA:2199,1
DA:2200,1
DA:2201,1
DA:2202,1
DA:2203,1
DA:2204,1
DA:2205,1
DA:2207,30
DA:2208,29
DA:2209,29
DA:2210,29
DA:2211,29
DA:2213,29
DA:2214,29
DA:2215,29
DA:2217,29
DA:2218,29
DA:2219,29
DA:2221,29
DA:2223,1
DA:2226,1
DA:2227,1
DA:2228,1
DA:2229,1
DA:2230,1
DA:2231,1
DA:2233,1
DA:2236,1
DA:2237,1
DA:2238,1
DA:2239,1
DA:2241,1
DA:2242,1
DA:2243,1
DA:2244,1
DA:2245,1
DA:2246,1
DA:2247,1
DA:2250,1
DA:2251,1
DA:2252,1
DA:2253,1
DA:2255,1
DA:2256,1
DA:2257,1
DA:2259,1
DA:2260,1
DA:2261,1
DA:2264,1
DA:2265,1
DA:2266,1
DA:2267,1
DA:2268,1
DA:2269,1
DA:2270,1
DA:2273,1
DA:2274,1
DA:2275,1
DA:2276,1
DA:2278,1
DA:2279,1
DA:2280,1
DA:2281,1
DA:2282,1
DA:2283,1
DA:2286,1
DA:2287,1
DA:2288,1
DA:2289,1
DA:2290,1
DA:2291,1
DA:2292,1
DA:2295,1
DA:2296,1
DA:2297,1
DA:2298,1
DA:2299,1
DA:2300,1
DA:2301,1
DA:2302,1
DA:2305,1
DA:2308,1
DA:2309,1
DA:2310,1
DA:2311,1
DA:2312,1
DA:2313,1
DA:2314,1
DA:2315,1
DA:2318,1
DA:2321,1
DA:2322,1
DA:2323,1
DA:2324,1
DA:2325,1
DA:2326,1
DA:2327,1
DA:2328,1
DA:2331,1
DA:2334,1
DA:2335,1
DA:2336,1
DA:2337,1
DA:2338,1
DA:2339,1
DA:2340,1
DA:2341,1
DA:2344,1
DA:2347,1
DA:2348,1
DA:2349,1
DA:2350,1
DA:2351,1
DA:2352,1
DA:2353,1
DA:2354,1
DA:2357,1
DA:2358,1
DA:2359,1
DA:2360,1
DA:2361,1
DA:2362,1
DA:2363,1
DA:2364,1
DA:2367,1
DA:2368,1
DA:2369,1
DA:2370,1
DA:2371,1
DA:2372,1
DA:2373,0
DA:2374,1
DA:2380,1
DA:2383,1
DA:2384,1
DA:2385,1
DA:2386,1
DA:2387,1
DA:2388,1
DA:2389,1
DA:2390,1
BRF:0
BRH:0
LF:1364
LH:1155
end_of_record
SF:/Users/victornl/repos/cedar-spec/cedar/cedar-policy-core/src/ast/expr_iterator.rs
FN:33,_RNvMNtNtCsfZPcC2TrjjJ_17cedar_policy_core3ast13expr_iteratorNtB2_12ExprIterator3newB6_
FN:43,_RNvXs_NtNtCsfZPcC2TrjjJ_17cedar_policy_core3ast13expr_iteratorNtB4_12ExprIteratorNtNtNtNtCsaNl6UpbT7bw_4core4iter6traits8iterator8Iterator4nextB8_
FN:240,_RNvNtNtNtCsfZPcC2TrjjJ_17cedar_policy_core3ast13expr_iterator4tests_10duplicates
FN:249,_RNvNtNtNtCsfZPcC2TrjjJ_17cedar_policy_core3ast13expr_iterator4tests_13deeply_nested
FN:210,_RNvNtNtNtCsfZPcC2TrjjJ_17cedar_policy_core3ast13expr_iterator4tests_14set_duplicates
FN:231,_RNvNtNtNtCsfZPcC2TrjjJ_17cedar_policy_core3ast13expr_iterator4tests_2is
FN:144,_RNvNtNtNtCsfZPcC2TrjjJ_17cedar_policy_core3ast13expr_iterator4tests_2or
FN:134,_RNvNtNtNtCsfZPcC2TrjjJ_17cedar_policy_core3ast13expr_iterator4tests_3and
FN:171,_RNvNtNtNtCsfZPcC2TrjjJ_17cedar_policy_core3ast13expr_iterator4tests_3ext
FN:124,_RNvNtNtNtCsfZPcC2TrjjJ_17cedar_policy_core3ast13expr_iterator4tests_3ite
FN:201,_RNvNtNtNtCsfZPcC2TrjjJ_17cedar_policy_core3ast13expr_iterator4tests_3set
FN:108,_RNvNtNtNtCsfZPcC2TrjjJ_17cedar_policy_core3ast13expr_iterator4tests_5slots
FN:153,_RNvNtNtNtCsfZPcC2TrjjJ_17cedar_policy_core3ast13expr_iterator4tests_5unary
FN:162,_RNvNtNtNtCsfZPcC2TrjjJ_17cedar_policy_core3ast13expr_iterator4tests_6binary
FN:218,_RNvNtNtNtCsfZPcC2TrjjJ_17cedar_policy_core3ast13expr_iterator4tests_6record
FN:192,_RNvNtNtNtCsfZPcC2TrjjJ_17cedar_policy_core3ast13expr_iterator4tests_8get_attr
FN:183,_RNvNtNtNtCsfZPcC2TrjjJ_17cedar_policy_core3ast13expr_iterator4tests_8has_attr
FN:99,_RNvNtNtNtCsfZPcC2TrjjJ_17cedar_policy_core3ast13expr_iterator4tests_8literals
FN:116,_RNvNtNtNtCsfZPcC2TrjjJ_17cedar_policy_core3ast13expr_iterator4tests_9variables
FNDA:4531,_RNvMNtNtCsfZPcC2TrjjJ_17cedar_policy_core3ast13expr_iteratorNtB2_12ExprIterator3newB6_
FNDA:50462,_RNvXs_NtNtCsfZPcC2TrjjJ_17cedar_policy_core3ast13expr_iteratorNtB4_12ExprIteratorNtNtNtNtCsaNl6UpbT7bw_4core4iter6traits8iterator8Iterator4nextB8_
FNDA:1,_RNvNtNtNtCsfZPcC2TrjjJ_17cedar_policy_core3ast13expr_iterator4tests_10duplicates
FNDA:1,_RNvNtNtNtCsfZPcC2TrjjJ_17cedar_policy_core3ast13expr_iterator4tests_13deeply_nested
FNDA:1,_RNvNtNtNtCsfZPcC2TrjjJ_17cedar_policy_core3ast13expr_iterator4tests_14set_duplicates
FNDA:1,_RNvNtNtNtCsfZPcC2TrjjJ_17cedar_policy_core3ast13expr_iterator4tests_2is
FNDA:1,_RNvNtNtNtCsfZPcC2TrjjJ_17cedar_policy_core3ast13expr_iterator4tests_2or
FNDA:1,_RNvNtNtNtCsfZPcC2TrjjJ_17cedar_policy_core3ast13expr_iterator4tests_3and
FNDA:1,_RNvNtNtNtCsfZPcC2TrjjJ_17cedar_policy_core3ast13expr_iterator4tests_3ext
FNDA:1,_RNvNtNtNtCsfZPcC2TrjjJ_17cedar_policy_core3ast13expr_iterator4tests_3ite
FNDA:1,_RNvNtNtNtCsfZPcC2TrjjJ_17cedar_policy_core3ast13expr_iterator4tests_3set
FNDA:1,_RNvNtNtNtCsfZPcC2TrjjJ_17cedar_policy_core3ast13expr_iterator4tests_5slots
FNDA:1,_RNvNtNtNtCsfZPcC2TrjjJ_17cedar_policy_core3ast13expr_iterator4tests_5unary
FNDA:1,_RNvNtNtNtCsfZPcC2TrjjJ_17cedar_policy_core3ast13expr_iterator4tests_6binary
FNDA:1,_RNvNtNtNtCsfZPcC2TrjjJ_17cedar_policy_core3ast13expr_iterator4tests_6record
FNDA:1,_RNvNtNtNtCsfZPcC2TrjjJ_17cedar_policy_core3ast13expr_iterator4tests_8get_attr
FNDA:1,_RNvNtNtNtCsfZPcC2TrjjJ_17cedar_policy_core3ast13expr_iterator4tests_8has_attr
FNDA:1,_RNvNtNtNtCsfZPcC2TrjjJ_17cedar_policy_core3ast13expr_iterator4tests_8literals
FNDA:1,_RNvNtNtNtCsfZPcC2TrjjJ_17cedar_policy_core3ast13expr_iterator4tests_9variables
FNF:19
FNH:19
DA:33,4531
DA:34,4531
DA:35,4531
DA:36,4531
DA:37,4531
DA:43,50462
DA:44,50462
DA:45,46144
DA:46,12510
DA:47,73
DA:48,2075
DA:49,8532
DA:51,322
DA:52,322
DA:53,322
DA:54,322
DA:55,322
DA:56,322
DA:57,322
DA:58,322
DA:59,9921
DA:60,9921
DA:61,9921
DA:62,9921
DA:63,187
DA:64,187
DA:65,187
DA:66,7588
DA:67,7588
DA:68,7588
DA:69,7588
DA:70,2541
DA:71,333
DA:72,50
DA:74,169
DA:76,3093
DA:77,3093
DA:78,3093
DA:79,1517
DA:80,1517
DA:81,1517
DA:82,326
DA:83,326
DA:84,326
DA:88,46144
DA:89,50462
DA:99,1
DA:100,1
DA:101,1
DA:103,1
DA:104,1
DA:105,1
DA:108,1
DA:109,1
DA:110,1
DA:111,1
DA:112,1
DA:113,1
DA:116,1
DA:117,1
DA:118,1
DA:119,1
DA:120,1
DA:121,1
DA:124,1
DA:125,1
DA:126,1
DA:127,1
DA:129,1
DA:131,1
DA:134,1
DA:137,1
DA:138,1
DA:139,1
DA:140,1
DA:141,1
DA:144,1
DA:147,1
DA:148,1
DA:149,1
DA:150,1
DA:153,1
DA:154,1
DA:155,1
DA:156,1
DA:157,1
DA:159,1
DA:162,1
DA:163,1
DA:164,1
DA:165,1
DA:166,1
DA:168,1
DA:171,1
DA:172,1
DA:173,1
DA:174,1
DA:176,1
DA:177,1
DA:178,1
DA:180,1
DA:183,1
DA:184,1
DA:185,1
DA:186,1
DA:187,1
DA:189,1
DA:192,1
DA:193,1
DA:194,1
DA:195,1
DA:196,1
DA:198,1
DA:201,1
DA:202,1
DA:203,1
DA:204,1
DA:205,1
DA:207,1
DA:210,1
DA:211,1
DA:212,1
DA:213,1
DA:214,1
DA:215,1
DA:218,1
DA:219,1
DA:220,1
DA:221,1
DA:223,1
DA:224,1
DA:225,1
DA:226,1
DA:228,1
DA:231,1
DA:232,1
DA:233,1
DA:234,1
DA:235,1
DA:237,1
DA:240,1
DA:241,1
DA:242,1
DA:243,1
DA:244,1
DA:245,1
DA:246,1
DA:249,1
DA:250,1
DA:251,1
DA:252,1
DA:254,1
DA:255,1
DA:256,1
DA:257,1
DA:258,1
DA:259,1
DA:260,1
DA:261,1
DA:262,1
DA:263,1
BRF:0
BRH:0
LF:161
LH:161
end_of_record
SF:/Users/victornl/repos/cedar-spec/cedar/cedar-policy-core/src/ast/expr_visitor.rs
FN:84,_RNvYpNtNtNtCsfZPcC2TrjjJ_17cedar_policy_core3ast12expr_visitor11ExprVisitor13visit_literalB9_
FN:89,_RNvYpNtNtNtCsfZPcC2TrjjJ_17cedar_policy_core3ast12expr_visitor11ExprVisitor9visit_varB9_
FN:164,_RNCNvYNtNtNtNtCsfZPcC2TrjjJ_17cedar_policy_core3ast12expr_visitor4test21VarLitCountingVisitorNtB8_11ExprVisitor15visit_binary_op0Bc_
FN:114,_RNCNvYNtNtNtNtCsfZPcC2TrjjJ_17cedar_policy_core3ast12expr_visitor4test21VarLitCountingVisitorNtB8_11ExprVisitor8visit_if0Bc_
FN:115,_RNCNvYNtNtNtNtCsfZPcC2TrjjJ_17cedar_policy_core3ast12expr_visitor4test21VarLitCountingVisitorNtB8_11ExprVisitor8visit_ifs_0Bc_
FN:139,_RNCNvYNtNtNtNtCsfZPcC2TrjjJ_17cedar_policy_core3ast12expr_visitor4test21VarLitCountingVisitorNtB8_11ExprVisitor8visit_or0Bc_
FN:127,_RNCNvYNtNtNtNtCsfZPcC2TrjjJ_17cedar_policy_core3ast12expr_visitor4test21VarLitCountingVisitorNtB8_11ExprVisitor9visit_and0Bc_
FN:282,_RNvMNtNtNtCsfZPcC2TrjjJ_17cedar_policy_core3ast12expr_visitor4testNtB2_21VarLitCountingVisitor3new
FN:322,_RNvNtNtNtCsfZPcC2TrjjJ_17cedar_policy_core3ast12expr_visitor4tests_10visits_and
FN:403,_RNvNtNtNtCsfZPcC2TrjjJ_17cedar_policy_core3ast12expr_visitor4tests_10visits_set
FN:385,_RNvNtNtNtCsfZPcC2TrjjJ_17cedar_policy_core3ast12expr_visitor4tests_11visits_like
FN:340,_RNvNtNtNtCsfZPcC2TrjjJ_17cedar_policy_core3ast12expr_visitor4tests_12visits_unary
FN:349,_RNvNtNtNtCsfZPcC2TrjjJ_17cedar_policy_core3ast12expr_visitor4tests_13visits_binary
FN:412,_RNvNtNtNtCsfZPcC2TrjjJ_17cedar_policy_core3ast12expr_visitor4tests_13visits_record
FN:367,_RNvNtNtNtCsfZPcC2TrjjJ_17cedar_policy_core3ast12expr_visitor4tests_15visits_get_attr
FN:376,_RNvNtNtNtCsfZPcC2TrjjJ_17cedar_policy_core3ast12expr_visitor4tests_15visits_has_attr
FN:358,_RNvNtNtNtCsfZPcC2TrjjJ_17cedar_policy_core3ast12expr_visitor4tests_16visits_extension
FN:313,_RNvNtNtNtCsfZPcC2TrjjJ_17cedar_policy_core3ast12expr_visitor4tests_9visits_if
FN:394,_RNvNtNtNtCsfZPcC2TrjjJ_17cedar_policy_core3ast12expr_visitor4tests_9visits_is
FN:331,_RNvNtNtNtCsfZPcC2TrjjJ_17cedar_policy_core3ast12expr_visitor4tests_9visits_or
FN:302,_RNvXs_NtNtNtCsfZPcC2TrjjJ_17cedar_policy_core3ast12expr_visitor4testNtB4_21VarLitCountingVisitorNtB6_11ExprVisitor13visit_literal
FN:293,_RNvXs_NtNtNtCsfZPcC2TrjjJ_17cedar_policy_core3ast12expr_visitor4testNtB4_21VarLitCountingVisitorNtB6_11ExprVisitor9visit_var
FN:53,_RNvYNtNtNtNtCsfZPcC2TrjjJ_17cedar_policy_core3ast12expr_visitor4test21VarLitCountingVisitorNtB6_11ExprVisitor10visit_exprBa_
FN:211,_RNvYNtNtNtNtCsfZPcC2TrjjJ_17cedar_policy_core3ast12expr_visitor4test21VarLitCountingVisitorNtB6_11ExprVisitor10visit_likeBa_
FN:94,_RNvYNtNtNtNtCsfZPcC2TrjjJ_17cedar_policy_core3ast12expr_visitor4test21VarLitCountingVisitorNtB6_11ExprVisitor10visit_slotBa_
FN:247,_RNvYNtNtNtNtCsfZPcC2TrjjJ_17cedar_policy_core3ast12expr_visitor4test21VarLitCountingVisitorNtB6_11ExprVisitor12visit_recordBa_
FN:99,_RNvYNtNtNtNtCsfZPcC2TrjjJ_17cedar_policy_core3ast12expr_visitor4test21VarLitCountingVisitorNtB6_11ExprVisitor13visit_unknownBa_
FN:187,_RNvYNtNtNtNtCsfZPcC2TrjjJ_17cedar_policy_core3ast12expr_visitor4test21VarLitCountingVisitorNtB6_11ExprVisitor14visit_get_attrBa_
FN:199,_RNvYNtNtNtNtCsfZPcC2TrjjJ_17cedar_policy_core3ast12expr_visitor4test21VarLitCountingVisitorNtB6_11ExprVisitor14visit_has_attrBa_
FN:157,_RNvYNtNtNtNtCsfZPcC2TrjjJ_17cedar_policy_core3ast12expr_visitor4test21VarLitCountingVisitorNtB6_11ExprVisitor15visit_binary_opBa_
FN:145,_RNvYNtNtNtNtCsfZPcC2TrjjJ_17cedar_policy_core3ast12expr_visitor4test21VarLitCountingVisitorNtB6_11ExprVisitor15visit_unary_appBa_
FN:170,_RNvYNtNtNtNtCsfZPcC2TrjjJ_17cedar_policy_core3ast12expr_visitor4test21VarLitCountingVisitorNtB6_11ExprVisitor24visit_extension_functionBa_
FN:106,_RNvYNtNtNtNtCsfZPcC2TrjjJ_17cedar_policy_core3ast12expr_visitor4test21VarLitCountingVisitorNtB6_11ExprVisitor8visit_ifBa_
FN:223,_RNvYNtNtNtNtCsfZPcC2TrjjJ_17cedar_policy_core3ast12expr_visitor4test21VarLitCountingVisitorNtB6_11ExprVisitor8visit_isBa_
FN:133,_RNvYNtNtNtNtCsfZPcC2TrjjJ_17cedar_policy_core3ast12expr_visitor4test21VarLitCountingVisitorNtB6_11ExprVisitor8visit_orBa_
FN:121,_RNvYNtNtNtNtCsfZPcC2TrjjJ_17cedar_policy_core3ast12expr_visitor4test21VarLitCountingVisitorNtB6_11ExprVisitor9visit_andBa_
FN:235,_RNvYNtNtNtNtCsfZPcC2TrjjJ_17cedar_policy_core3ast12expr_visitor4test21VarLitCountingVisitorNtB6_11ExprVisitor9visit_setBa_
FNDA:0,_RNvYpNtNtNtCsfZPcC2TrjjJ_17cedar_policy_core3ast12expr_visitor11ExprVisitor13visit_literalB9_
FNDA:0,_RNvYpNtNtNtCsfZPcC2TrjjJ_17cedar_policy_core3ast12expr_visitor11ExprVisitor9visit_varB9_
FNDA:1,_RNCNvYNtNtNtNtCsfZPcC2TrjjJ_17cedar_policy_core3ast12expr_visitor4test21VarLitCountingVisitorNtB8_11ExprVisitor15visit_binary_op0Bc_
FNDA:1,_RNCNvYNtNtNtNtCsfZPcC2TrjjJ_17cedar_policy_core3ast12expr_visitor4test21VarLitCountingVisitorNtB8_11ExprVisitor8visit_if0Bc_
FNDA:1,_RNCNvYNtNtNtNtCsfZPcC2TrjjJ_17cedar_policy_core3ast12expr_visitor4test21VarLitCountingVisitorNtB8_11ExprVisitor8visit_ifs_0Bc_
FNDA:1,_RNCNvYNtNtNtNtCsfZPcC2TrjjJ_17cedar_policy_core3ast12expr_visitor4test21VarLitCountingVisitorNtB8_11ExprVisitor8visit_or0Bc_
FNDA:1,_RNCNvYNtNtNtNtCsfZPcC2TrjjJ_17cedar_policy_core3ast12expr_visitor4test21VarLitCountingVisitorNtB8_11ExprVisitor9visit_and0Bc_
FNDA:12,_RNvMNtNtNtCsfZPcC2TrjjJ_17cedar_policy_core3ast12expr_visitor4testNtB2_21VarLitCountingVisitor3new
FNDA:1,_RNvNtNtNtCsfZPcC2TrjjJ_17cedar_policy_core3ast12expr_visitor4tests_10visits_and
FNDA:1,_RNvNtNtNtCsfZPcC2TrjjJ_17cedar_policy_core3ast12expr_visitor4tests_10visits_set
FNDA:1,_RNvNtNtNtCsfZPcC2TrjjJ_17cedar_policy_core3ast12expr_visitor4tests_11visits_like
FNDA:1,_RNvNtNtNtCsfZPcC2TrjjJ_17cedar_policy_core3ast12expr_visitor4tests_12visits_unary
FNDA:1,_RNvNtNtNtCsfZPcC2TrjjJ_17cedar_policy_core3ast12expr_visitor4tests_13visits_binary
FNDA:1,_RNvNtNtNtCsfZPcC2TrjjJ_17cedar_policy_core3ast12expr_visitor4tests_13visits_record
FNDA:1,_RNvNtNtNtCsfZPcC2TrjjJ_17cedar_policy_core3ast12expr_visitor4tests_15visits_get_attr
FNDA:1,_RNvNtNtNtCsfZPcC2TrjjJ_17cedar_policy_core3ast12expr_visitor4tests_15visits_has_attr
FNDA:1,_RNvNtNtNtCsfZPcC2TrjjJ_17cedar_policy_core3ast12expr_visitor4tests_16visits_extension
FNDA:1,_RNvNtNtNtCsfZPcC2TrjjJ_17cedar_policy_core3ast12expr_visitor4tests_9visits_if
FNDA:1,_RNvNtNtNtCsfZPcC2TrjjJ_17cedar_policy_core3ast12expr_visitor4tests_9visits_is
FNDA:1,_RNvNtNtNtCsfZPcC2TrjjJ_17cedar_policy_core3ast12expr_visitor4tests_9visits_or
FNDA:12,_RNvXs_NtNtNtCsfZPcC2TrjjJ_17cedar_policy_core3ast12expr_visitor4testNtB4_21VarLitCountingVisitorNtB6_11ExprVisitor13visit_literal
FNDA:11,_RNvXs_NtNtNtCsfZPcC2TrjjJ_17cedar_policy_core3ast12expr_visitor4testNtB4_21VarLitCountingVisitorNtB6_11ExprVisitor9visit_var
FNDA:35,_RNvYNtNtNtNtCsfZPcC2TrjjJ_17cedar_policy_core3ast12expr_visitor4test21VarLitCountingVisitorNtB6_11ExprVisitor10visit_exprBa_
FNDA:1,_RNvYNtNtNtNtCsfZPcC2TrjjJ_17cedar_policy_core3ast12expr_visitor4test21VarLitCountingVisitorNtB6_11ExprVisitor10visit_likeBa_
FNDA:0,_RNvYNtNtNtNtCsfZPcC2TrjjJ_17cedar_policy_core3ast12expr_visitor4test21VarLitCountingVisitorNtB6_11ExprVisitor10visit_slotBa_
FNDA:1,_RNvYNtNtNtNtCsfZPcC2TrjjJ_17cedar_policy_core3ast12expr_visitor4test21VarLitCountingVisitorNtB6_11ExprVisitor12visit_recordBa_
FNDA:0,_RNvYNtNtNtNtCsfZPcC2TrjjJ_17cedar_policy_core3ast12expr_visitor4test21VarLitCountingVisitorNtB6_11ExprVisitor13visit_unknownBa_
FNDA:1,_RNvYNtNtNtNtCsfZPcC2TrjjJ_17cedar_policy_core3ast12expr_visitor4test21VarLitCountingVisitorNtB6_11ExprVisitor14visit_get_attrBa_
FNDA:1,_RNvYNtNtNtNtCsfZPcC2TrjjJ_17cedar_policy_core3ast12expr_visitor4test21VarLitCountingVisitorNtB6_11ExprVisitor14visit_has_attrBa_
FNDA:1,_RNvYNtNtNtNtCsfZPcC2TrjjJ_17cedar_policy_core3ast12expr_visitor4test21VarLitCountingVisitorNtB6_11ExprVisitor15visit_binary_opBa_
FNDA:1,_RNvYNtNtNtNtCsfZPcC2TrjjJ_17cedar_policy_core3ast12expr_visitor4test21VarLitCountingVisitorNtB6_11ExprVisitor15visit_unary_appBa_
FNDA:1,_RNvYNtNtNtNtCsfZPcC2TrjjJ_17cedar_policy_core3ast12expr_visitor4test21VarLitCountingVisitorNtB6_11ExprVisitor24visit_extension_functionBa_
FNDA:1,_RNvYNtNtNtNtCsfZPcC2TrjjJ_17cedar_policy_core3ast12expr_visitor4test21VarLitCountingVisitorNtB6_11ExprVisitor8visit_ifBa_
FNDA:1,_RNvYNtNtNtNtCsfZPcC2TrjjJ_17cedar_policy_core3ast12expr_visitor4test21VarLitCountingVisitorNtB6_11ExprVisitor8visit_isBa_
FNDA:1,_RNvYNtNtNtNtCsfZPcC2TrjjJ_17cedar_policy_core3ast12expr_visitor4test21VarLitCountingVisitorNtB6_11ExprVisitor8visit_orBa_
FNDA:1,_RNvYNtNtNtNtCsfZPcC2TrjjJ_17cedar_policy_core3ast12expr_visitor4test21VarLitCountingVisitorNtB6_11ExprVisitor9visit_andBa_
FNDA:1,_RNvYNtNtNtNtCsfZPcC2TrjjJ_17cedar_policy_core3ast12expr_visitor4test21VarLitCountingVisitorNtB6_11ExprVisitor9visit_setBa_
FNF:37
FNH:33
DA:53,35
DA:54,35
DA:55,35
DA:56,12
DA:57,11
DA:58,0
DA:59,0
DA:61,1
DA:62,1
DA:63,1
DA:64,1
DA:65,1
DA:66,1
DA:67,1
DA:68,1
DA:69,1
DA:70,1
DA:72,1
DA:73,1
DA:74,1
DA:75,1
DA:76,1
DA:77,1
DA:81,35
DA:84,0
DA:85,0
DA:86,0
DA:89,0
DA:90,0
DA:91,0
DA:94,0
DA:95,0
DA:96,0
DA:99,0
DA:100,0
DA:101,0
DA:106,1
DA:107,1
DA:108,1
DA:109,1
DA:110,1
DA:111,1
DA:112,1
DA:113,1
DA:114,1
DA:115,1
DA:116,1
DA:121,1
DA:122,1
DA:123,1
DA:124,1
DA:125,1
DA:126,1
DA:127,1
DA:128,1
DA:133,1
DA:134,1
DA:135,1
DA:136,1
DA:137,1
DA:138,1
DA:139,1
DA:140,1
DA:145,1
DA:146,1
DA:147,1
DA:148,1
DA:149,1
DA:150,1
DA:151,1
DA:152,1
DA:157,1
DA:158,1
DA:159,1
DA:160,1
DA:161,1
DA:162,1
DA:163,1
DA:164,1
DA:165,1
DA:170,1
DA:171,1
DA:172,1
DA:173,1
DA:174,1
DA:175,1
DA:176,1
DA:177,1
DA:178,0
DA:179,1
DA:181,1
DA:182,1
DA:187,1
DA:188,1
DA:189,1
DA:190,1
DA:191,1
DA:192,1
DA:193,1
DA:194,1
DA:199,1
DA:200,1
DA:201,1
DA:202,1
DA:203,1
DA:204,1
DA:205,1
DA:206,1
DA:211,1
DA:212,1
DA:213,1
DA:214,1
DA:215,1
DA:216,1
DA:217,1
DA:218,1
DA:223,1
DA:224,1
DA:225,1
DA:226,1
DA:227,1
DA:228,1
DA:229,1
DA:230,1
DA:235,1
DA:236,4
DA:237,4
DA:238,0
DA:239,4
DA:241,1
DA:242,1
DA:247,1
DA:248,1
DA:249,1
DA:250,1
DA:251,1
DA:252,4
DA:253,4
DA:254,0
DA:255,4
DA:257,1
DA:258,1
DA:282,12
DA:283,12
DA:284,12
DA:285,12
DA:286,12
DA:287,12
DA:293,11
DA:294,11
DA:295,11
DA:296,11
DA:297,11
DA:298,11
DA:299,11
DA:300,11
DA:302,12
DA:303,12
DA:304,12
DA:305,12
DA:306,12
DA:307,12
DA:308,12
DA:309,12
DA:313,1
DA:314,1
DA:315,1
DA:316,1
DA:317,1
DA:318,1
DA:319,1
DA:322,1
DA:323,1
DA:324,1
DA:325,1
DA:326,1
DA:327,1
DA:328,1
DA:331,1
DA:332,1
DA:333,1
DA:334,1
DA:335,1
DA:336,1
DA:337,1
DA:340,1
DA:341,1
DA:342,1
DA:343,1
DA:344,1
DA:345,1
DA:346,1
DA:349,1
DA:350,1
DA:351,1
DA:352,1
DA:353,1
DA:354,1
DA:355,1
DA:358,1
DA:359,1
DA:360,1
DA:361,1
DA:362,1
DA:363,1
DA:364,1
DA:367,1
DA:368,1
DA:369,1
DA:370,1
DA:371,1
DA:372,1
DA:373,1
DA:376,1
DA:377,1
DA:378,1
DA:379,1
DA:380,1
DA:381,1
DA:382,1
DA:385,1
DA:386,1
DA:387,1
DA:388,1
DA:389,1
DA:390,1
DA:391,1
DA:394,1
DA:395,1
DA:396,1
DA:397,1
DA:398,1
DA:399,1
DA:400,1
DA:403,1
DA:404,1
DA:405,1
DA:406,1
DA:407,1
DA:408,1
DA:409,1
DA:412,1
DA:413,1
DA:414,1
DA:415,1
DA:416,1
DA:417,1
DA:418,1
DA:419,1
DA:420,1
BRF:0
BRH:0
LF:255
LH:238
end_of_record
SF:/Users/victornl/repos/cedar-spec/cedar/cedar-policy-core/src/ast/extension.rs
FN:222,_RNCNvMs1_NtNtCsfZPcC2TrjjJ_17cedar_policy_core3ast9extensionNtB7_17ExtensionFunction20partial_eval_unknown0Bb_
FN:193,_RNCNvMs1_NtNtCsfZPcC2TrjjJ_17cedar_policy_core3ast9extensionNtB7_17ExtensionFunction7nullary0Bb_
FN:300,_RNCNvMs1_NtNtCsfZPcC2TrjjJ_17cedar_policy_core3ast9extensionNtB7_17ExtensionFunction7ternary0Bb_
FN:213,_RNvMs1_NtNtCsfZPcC2TrjjJ_17cedar_policy_core3ast9extensionNtB5_17ExtensionFunction20partial_eval_unknown
FN:184,_RNvMs1_NtNtCsfZPcC2TrjjJ_17cedar_policy_core3ast9extensionNtB5_17ExtensionFunction7nullary
FN:290,_RNvMs1_NtNtCsfZPcC2TrjjJ_17cedar_policy_core3ast9extensionNtB5_17ExtensionFunction7ternary
FN:426,_RNvXININtNtCsfZPcC2TrjjJ_17cedar_policy_core3ast9extensions3_0pEpNtNtB7_5types15StaticallyTyped7type_ofB9_
FN:404,_RNvXs2_NtNtCsfZPcC2TrjjJ_17cedar_policy_core3ast9extensionNtB5_17ExtensionFunctionNtNtCsaNl6UpbT7bw_4core3fmt5Debug3fmt
FN:84,_RNvXs_NtNtCsfZPcC2TrjjJ_17cedar_policy_core3ast9extensionNtB4_9ExtensionNtNtCsaNl6UpbT7bw_4core3fmt5Debug3fmt
FN:563,_RNvXse_NtNtCsfZPcC2TrjjJ_17cedar_policy_core3ast9extensionDNtB5_22InternalExtensionValueEL_NtNtCsaNl6UpbT7bw_4core3cmp10PartialOrd11partial_cmp
FN:43,_RINvMNtNtCsfZPcC2TrjjJ_17cedar_policy_core3ast9extensionNtB3_9Extension3newINtNtCsiTraAjBDcu4_5alloc3vec3VecNtB3_17ExtensionFunctionEANtNtB5_4name4Namej2_EB7_
FN:43,_RINvMNtNtCsfZPcC2TrjjJ_17cedar_policy_core3ast9extensionNtB3_9Extension3newINtNtCsiTraAjBDcu4_5alloc3vec3VecNtB3_17ExtensionFunctionEINtNtNtNtCsaNl6UpbT7bw_4core4iter7sources5empty5EmptyNtNtB5_4name4NameEEB7_
FN:50,_RNCINvMNtNtCsfZPcC2TrjjJ_17cedar_policy_core3ast9extensionNtB5_9Extension3newINtNtCsiTraAjBDcu4_5alloc3vec3VecNtB5_17ExtensionFunctionEANtNtB7_4name4Namej2_E0B9_
FN:50,_RNCINvMNtNtCsfZPcC2TrjjJ_17cedar_policy_core3ast9extensionNtB5_9Extension3newINtNtCsiTraAjBDcu4_5alloc3vec3VecNtB5_17ExtensionFunctionEINtNtNtNtCsaNl6UpbT7bw_4core4iter7sources5empty5EmptyNtNtB7_4name4NameEE0B9_
FN:74,_RNCNvMNtNtCsfZPcC2TrjjJ_17cedar_policy_core3ast9extensionNtB4_9Extension9ext_types0B8_
FN:248,_RNCNvMs1_NtNtCsfZPcC2TrjjJ_17cedar_policy_core3ast9extensionNtB7_17ExtensionFunction5unary0Bb_
FN:274,_RNCNvMs1_NtNtCsfZPcC2TrjjJ_17cedar_policy_core3ast9extensionNtB7_17ExtensionFunction6binary0Bb_
FN:326,_RNCNvMs1_NtNtCsfZPcC2TrjjJ_17cedar_policy_core3ast9extensionNtB7_17ExtensionFunction8variadic0Bb_
FN:399,_RNCNvMs1_NtNtCsfZPcC2TrjjJ_17cedar_policy_core3ast9extensionNtB7_17ExtensionFunction9ext_types0Bb_
FN:545,_RNCNvXsb_NtNtCsfZPcC2TrjjJ_17cedar_policy_core3ast9extensionNtNtNtBb_10extensions6ipaddr6IPAddrNtB7_22InternalExtensionValue12cmp_extvalue0Bb_
FN:546,_RNCNvXsb_NtNtCsfZPcC2TrjjJ_17cedar_policy_core3ast9extensionNtNtNtBb_10extensions6ipaddr6IPAddrNtB7_22InternalExtensionValue12cmp_extvalues_0Bb_
FN:537,_RNCNvXsb_NtNtCsfZPcC2TrjjJ_17cedar_policy_core3ast9extensionNtNtNtBb_10extensions6ipaddr6IPAddrNtB7_22InternalExtensionValue15equals_extvalue0Bb_
FN:545,_RNCNvXsb_NtNtCsfZPcC2TrjjJ_17cedar_policy_core3ast9extensionNtNtNtBb_10extensions7decimal7DecimalNtB7_22InternalExtensionValue12cmp_extvalue0Bb_
FN:546,_RNCNvXsb_NtNtCsfZPcC2TrjjJ_17cedar_policy_core3ast9extensionNtNtNtBb_10extensions7decimal7DecimalNtB7_22InternalExtensionValue12cmp_extvalues_0Bb_
FN:537,_RNCNvXsb_NtNtCsfZPcC2TrjjJ_17cedar_policy_core3ast9extensionNtNtNtBb_10extensions7decimal7DecimalNtB7_22InternalExtensionValue15equals_extvalue0Bb_
FN:545,_RNCNvXsb_NtNtCsfZPcC2TrjjJ_17cedar_policy_core3ast9extensionNtNtNtBb_10extensions8datetime8DateTimeNtB7_22InternalExtensionValue12cmp_extvalue0Bb_
FN:546,_RNCNvXsb_NtNtCsfZPcC2TrjjJ_17cedar_policy_core3ast9extensionNtNtNtBb_10extensions8datetime8DateTimeNtB7_22InternalExtensionValue12cmp_extvalues_0Bb_
FN:537,_RNCNvXsb_NtNtCsfZPcC2TrjjJ_17cedar_policy_core3ast9extensionNtNtNtBb_10extensions8datetime8DateTimeNtB7_22InternalExtensionValue15equals_extvalue0Bb_
FN:545,_RNCNvXsb_NtNtCsfZPcC2TrjjJ_17cedar_policy_core3ast9extensionNtNtNtBb_10extensions8datetime8DurationNtB7_22InternalExtensionValue12cmp_extvalue0Bb_
FN:546,_RNCNvXsb_NtNtCsfZPcC2TrjjJ_17cedar_policy_core3ast9extensionNtNtNtBb_10extensions8datetime8DurationNtB7_22InternalExtensionValue12cmp_extvalues_0Bb_
FN:537,_RNCNvXsb_NtNtCsfZPcC2TrjjJ_17cedar_policy_core3ast9extensionNtNtNtBb_10extensions8datetime8DurationNtB7_22InternalExtensionValue15equals_extvalue0Bb_
FN:102,_RNvXs0_NtNtCsfZPcC2TrjjJ_17cedar_policy_core3ast9extensionNtB5_20ExtensionOutputValueINtNtCsaNl6UpbT7bw_4core7convert4FromNtNtB7_5value5ValueE4fromB9_
FN:102,_RNvXs0_NtNtCsfZPcC2TrjjJ_17cedar_policy_core3ast9extensionNtB5_20ExtensionOutputValueINtNtCsaNl6UpbT7bw_4core7convert4FrombE4fromB9_
FN:78,_RNvMNtNtCsfZPcC2TrjjJ_17cedar_policy_core3ast9extensionNtB2_9Extension31types_with_operator_overloading
FN:56,_RNvMNtNtCsfZPcC2TrjjJ_17cedar_policy_core3ast9extensionNtB2_9Extension4name
FN:67,_RNvMNtNtCsfZPcC2TrjjJ_17cedar_policy_core3ast9extensionNtB2_9Extension5funcs
FN:62,_RNvMNtNtCsfZPcC2TrjjJ_17cedar_policy_core3ast9extensionNtB2_9Extension8get_func
FN:73,_RNvMNtNtCsfZPcC2TrjjJ_17cedar_policy_core3ast9extensionNtB2_9Extension9ext_types
FN:370,_RNvMs1_NtNtCsfZPcC2TrjjJ_17cedar_policy_core3ast9extensionNtB5_17ExtensionFunction11is_variadic
FN:360,_RNvMs1_NtNtCsfZPcC2TrjjJ_17cedar_policy_core3ast9extensionNtB5_17ExtensionFunction11return_type
FN:379,_RNvMs1_NtNtCsfZPcC2TrjjJ_17cedar_policy_core3ast9extensionNtB5_17ExtensionFunction25is_single_arg_constructor
FN:165,_RNvMs1_NtNtCsfZPcC2TrjjJ_17cedar_policy_core3ast9extensionNtB5_17ExtensionFunction3new
FN:387,_RNvMs1_NtNtCsfZPcC2TrjjJ_17cedar_policy_core3ast9extensionNtB5_17ExtensionFunction4call
FN:348,_RNvMs1_NtNtCsfZPcC2TrjjJ_17cedar_policy_core3ast9extensionNtB5_17ExtensionFunction4name
FN:353,_RNvMs1_NtNtCsfZPcC2TrjjJ_17cedar_policy_core3ast9extensionNtB5_17ExtensionFunction5style
FN:238,_RNvMs1_NtNtCsfZPcC2TrjjJ_17cedar_policy_core3ast9extensionNtB5_17ExtensionFunction5unary
FN:264,_RNvMs1_NtNtCsfZPcC2TrjjJ_17cedar_policy_core3ast9extensionNtB5_17ExtensionFunction6binary
FN:316,_RNvMs1_NtNtCsfZPcC2TrjjJ_17cedar_policy_core3ast9extensionNtB5_17ExtensionFunction8variadic
FN:365,_RNvMs1_NtNtCsfZPcC2TrjjJ_17cedar_policy_core3ast9extensionNtB5_17ExtensionFunction9arg_types
FN:396,_RNvMs1_NtNtCsfZPcC2TrjjJ_17cedar_policy_core3ast9extensionNtB5_17ExtensionFunction9ext_types
FN:467,_RNvMs4_NtNtCsfZPcC2TrjjJ_17cedar_policy_core3ast9extensionNtB5_27RepresentableExtensionValue29supports_operator_overloading
FN:448,_RNvMs4_NtNtCsfZPcC2TrjjJ_17cedar_policy_core3ast9extensionNtB5_27RepresentableExtensionValue3new
FN:457,_RNvMs4_NtNtCsfZPcC2TrjjJ_17cedar_policy_core3ast9extensionNtB5_27RepresentableExtensionValue5value
FN:462,_RNvMs4_NtNtCsfZPcC2TrjjJ_17cedar_policy_core3ast9extensionNtB5_27RepresentableExtensionValue8typename
FN:479,_RNvXs6_NtNtCsfZPcC2TrjjJ_17cedar_policy_core3ast9extensionNtB5_27RepresentableExtensionValueNtNtB7_5types15StaticallyTyped7type_of
FN:485,_RNvXs7_NtNtCsfZPcC2TrjjJ_17cedar_policy_core3ast9extensionNtB5_27RepresentableExtensionValueNtNtCsaNl6UpbT7bw_4core3cmp9PartialEq2eq
FN:494,_RNvXs9_NtNtCsfZPcC2TrjjJ_17cedar_policy_core3ast9extensionNtB5_27RepresentableExtensionValueNtNtCsaNl6UpbT7bw_4core3cmp10PartialOrd11partial_cmp
FN:500,_RNvXsa_NtNtCsfZPcC2TrjjJ_17cedar_policy_core3ast9extensionNtB5_27RepresentableExtensionValueNtNtCsaNl6UpbT7bw_4core3cmp3Ord3cmp
FN:555,_RNvXsc_NtNtCsfZPcC2TrjjJ_17cedar_policy_core3ast9extensionDNtB5_22InternalExtensionValueEL_NtNtCsaNl6UpbT7bw_4core3cmp9PartialEq2eq
FN:569,_RNvXsf_NtNtCsfZPcC2TrjjJ_17cedar_policy_core3ast9extensionDNtB5_22InternalExtensionValueEL_NtNtCsaNl6UpbT7bw_4core3cmp3Ord3cmp
FN:575,_RNvXsg_NtNtCsfZPcC2TrjjJ_17cedar_policy_core3ast9extensionDNtB5_22InternalExtensionValueEL_NtNtB7_5types15StaticallyTyped7type_of
FN:473,_RNvXs5_NtNtCsfZPcC2TrjjJ_17cedar_policy_core3ast9extensionNtNtB7_15restricted_expr14RestrictedExprINtNtCsaNl6UpbT7bw_4core7convert4FromNtB5_27RepresentableExtensionValueE4from
FN:541,_RNvXsb_NtNtCsfZPcC2TrjjJ_17cedar_policy_core3ast9extensionNtNtNtB9_10extensions6ipaddr6IPAddrNtB5_22InternalExtensionValue12cmp_extvalueB9_
FN:533,_RNvXsb_NtNtCsfZPcC2TrjjJ_17cedar_policy_core3ast9extensionNtNtNtB9_10extensions6ipaddr6IPAddrNtB5_22InternalExtensionValue15equals_extvalueB9_
FN:529,_RNvXsb_NtNtCsfZPcC2TrjjJ_17cedar_policy_core3ast9extensionNtNtNtB9_10extensions6ipaddr6IPAddrNtB5_22InternalExtensionValue6as_anyB9_
FN:541,_RNvXsb_NtNtCsfZPcC2TrjjJ_17cedar_policy_core3ast9extensionNtNtNtB9_10extensions8datetime8DateTimeNtB5_22InternalExtensionValue12cmp_extvalueB9_
FN:533,_RNvXsb_NtNtCsfZPcC2TrjjJ_17cedar_policy_core3ast9extensionNtNtNtB9_10extensions8datetime8DateTimeNtB5_22InternalExtensionValue15equals_extvalueB9_
FN:529,_RNvXsb_NtNtCsfZPcC2TrjjJ_17cedar_policy_core3ast9extensionNtNtNtB9_10extensions8datetime8DateTimeNtB5_22InternalExtensionValue6as_anyB9_
FN:541,_RNvXsb_NtNtCsfZPcC2TrjjJ_17cedar_policy_core3ast9extensionNtNtNtB9_10extensions8datetime8DurationNtB5_22InternalExtensionValue12cmp_extvalueB9_
FN:533,_RNvXsb_NtNtCsfZPcC2TrjjJ_17cedar_policy_core3ast9extensionNtNtNtB9_10extensions8datetime8DurationNtB5_22InternalExtensionValue15equals_extvalueB9_
FN:529,_RNvXsb_NtNtCsfZPcC2TrjjJ_17cedar_policy_core3ast9extensionNtNtNtB9_10extensions8datetime8DurationNtB5_22InternalExtensionValue6as_anyB9_
FN:541,_RNvXsb_NtNtCsfZPcC2TrjjJ_17cedar_policy_core3ast9extensionNtNtNtB9_10extensions7decimal7DecimalNtB5_22InternalExtensionValue12cmp_extvalueB9_
FN:533,_RNvXsb_NtNtCsfZPcC2TrjjJ_17cedar_policy_core3ast9extensionNtNtNtB9_10extensions7decimal7DecimalNtB5_22InternalExtensionValue15equals_extvalueB9_
FN:529,_RNvXsb_NtNtCsfZPcC2TrjjJ_17cedar_policy_core3ast9extensionNtNtNtB9_10extensions7decimal7DecimalNtB5_22InternalExtensionValue6as_anyB9_
FNDA:0,_RNCNvMs1_NtNtCsfZPcC2TrjjJ_17cedar_policy_core3ast9extensionNtB7_17ExtensionFunction20partial_eval_unknown0Bb_
FNDA:0,_RNCNvMs1_NtNtCsfZPcC2TrjjJ_17cedar_policy_core3ast9extensionNtB7_17ExtensionFunction7nullary0Bb_
FNDA:0,_RNCNvMs1_NtNtCsfZPcC2TrjjJ_17cedar_policy_core3ast9extensionNtB7_17ExtensionFunction7ternary0Bb_
FNDA:0,_RNvMs1_NtNtCsfZPcC2TrjjJ_17cedar_policy_core3ast9extensionNtB5_17ExtensionFunction20partial_eval_unknown
FNDA:0,_RNvMs1_NtNtCsfZPcC2TrjjJ_17cedar_policy_core3ast9extensionNtB5_17ExtensionFunction7nullary
FNDA:0,_RNvMs1_NtNtCsfZPcC2TrjjJ_17cedar_policy_core3ast9extensionNtB5_17ExtensionFunction7ternary
FNDA:0,_RNvXININtNtCsfZPcC2TrjjJ_17cedar_policy_core3ast9extensions3_0pEpNtNtB7_5types15StaticallyTyped7type_ofB9_
FNDA:0,_RNvXs2_NtNtCsfZPcC2TrjjJ_17cedar_policy_core3ast9extensionNtB5_17ExtensionFunctionNtNtCsaNl6UpbT7bw_4core3fmt5Debug3fmt
FNDA:0,_RNvXs_NtNtCsfZPcC2TrjjJ_17cedar_policy_core3ast9extensionNtB4_9ExtensionNtNtCsaNl6UpbT7bw_4core3fmt5Debug3fmt
FNDA:0,_RNvXse_NtNtCsfZPcC2TrjjJ_17cedar_policy_core3ast9extensionDNtB5_22InternalExtensionValueEL_NtNtCsaNl6UpbT7bw_4core3cmp10PartialOrd11partial_cmp
FNDA:3,_RINvMNtNtCsfZPcC2TrjjJ_17cedar_policy_core3ast9extensionNtB3_9Extension3newINtNtCsiTraAjBDcu4_5alloc3vec3VecNtB3_17ExtensionFunctionEANtNtB5_4name4Namej2_EB7_
FNDA:22,_RINvMNtNtCsfZPcC2TrjjJ_17cedar_policy_core3ast9extensionNtB3_9Extension3newINtNtCsiTraAjBDcu4_5alloc3vec3VecNtB3_17ExtensionFunctionEINtNtNtNtCsaNl6UpbT7bw_4core4iter7sources5empty5EmptyNtNtB5_4name4NameEEB7_
FNDA:33,_RNCINvMNtNtCsfZPcC2TrjjJ_17cedar_policy_core3ast9extensionNtB5_9Extension3newINtNtCsiTraAjBDcu4_5alloc3vec3VecNtB5_17ExtensionFunctionEANtNtB7_4name4Namej2_E0B9_
FNDA:121,_RNCINvMNtNtCsfZPcC2TrjjJ_17cedar_policy_core3ast9extensionNtB5_9Extension3newINtNtCsiTraAjBDcu4_5alloc3vec3VecNtB5_17ExtensionFunctionEINtNtNtNtCsaNl6UpbT7bw_4core4iter7sources5empty5EmptyNtNtB7_4name4NameEE0B9_
FNDA:120049,_RNCNvMNtNtCsfZPcC2TrjjJ_17cedar_policy_core3ast9extensionNtB4_9Extension9ext_types0B8_
FNDA:516,_RNCNvMs1_NtNtCsfZPcC2TrjjJ_17cedar_policy_core3ast9extensionNtB7_17ExtensionFunction5unary0Bb_
FNDA:33,_RNCNvMs1_NtNtCsfZPcC2TrjjJ_17cedar_policy_core3ast9extensionNtB7_17ExtensionFunction6binary0Bb_
FNDA:36,_RNCNvMs1_NtNtCsfZPcC2TrjjJ_17cedar_policy_core3ast9extensionNtB7_17ExtensionFunction8variadic0Bb_
FNDA:120049,_RNCNvMs1_NtNtCsfZPcC2TrjjJ_17cedar_policy_core3ast9extensionNtB7_17ExtensionFunction9ext_types0Bb_
FNDA:0,_RNCNvXsb_NtNtCsfZPcC2TrjjJ_17cedar_policy_core3ast9extensionNtNtNtBb_10extensions6ipaddr6IPAddrNtB7_22InternalExtensionValue12cmp_extvalue0Bb_
FNDA:0,_RNCNvXsb_NtNtCsfZPcC2TrjjJ_17cedar_policy_core3ast9extensionNtNtNtBb_10extensions6ipaddr6IPAddrNtB7_22InternalExtensionValue12cmp_extvalues_0Bb_
FNDA:15,_RNCNvXsb_NtNtCsfZPcC2TrjjJ_17cedar_policy_core3ast9extensionNtNtNtBb_10extensions6ipaddr6IPAddrNtB7_22InternalExtensionValue15equals_extvalue0Bb_
FNDA:0,_RNCNvXsb_NtNtCsfZPcC2TrjjJ_17cedar_policy_core3ast9extensionNtNtNtBb_10extensions7decimal7DecimalNtB7_22InternalExtensionValue12cmp_extvalue0Bb_
FNDA:0,_RNCNvXsb_NtNtCsfZPcC2TrjjJ_17cedar_policy_core3ast9extensionNtNtNtBb_10extensions7decimal7DecimalNtB7_22InternalExtensionValue12cmp_extvalues_0Bb_
FNDA:10,_RNCNvXsb_NtNtCsfZPcC2TrjjJ_17cedar_policy_core3ast9extensionNtNtNtBb_10extensions7decimal7DecimalNtB7_22InternalExtensionValue15equals_extvalue0Bb_
FNDA:10,_RNCNvXsb_NtNtCsfZPcC2TrjjJ_17cedar_policy_core3ast9extensionNtNtNtBb_10extensions8datetime8DateTimeNtB7_22InternalExtensionValue12cmp_extvalue0Bb_
FNDA:0,_RNCNvXsb_NtNtCsfZPcC2TrjjJ_17cedar_policy_core3ast9extensionNtNtNtBb_10extensions8datetime8DateTimeNtB7_22InternalExtensionValue12cmp_extvalues_0Bb_
FNDA:15,_RNCNvXsb_NtNtCsfZPcC2TrjjJ_17cedar_policy_core3ast9extensionNtNtNtBb_10extensions8datetime8DateTimeNtB7_22InternalExtensionValue15equals_extvalue0Bb_
FNDA:8,_RNCNvXsb_NtNtCsfZPcC2TrjjJ_17cedar_policy_core3ast9extensionNtNtNtBb_10extensions8datetime8DurationNtB7_22InternalExtensionValue12cmp_extvalue0Bb_
FNDA:0,_RNCNvXsb_NtNtCsfZPcC2TrjjJ_17cedar_policy_core3ast9extensionNtNtNtBb_10extensions8datetime8DurationNtB7_22InternalExtensionValue12cmp_extvalues_0Bb_
FNDA:7,_RNCNvXsb_NtNtCsfZPcC2TrjjJ_17cedar_policy_core3ast9extensionNtNtNtBb_10extensions8datetime8DurationNtB7_22InternalExtensionValue15equals_extvalue0Bb_
FNDA:482,_RNvXs0_NtNtCsfZPcC2TrjjJ_17cedar_policy_core3ast9extensionNtB5_20ExtensionOutputValueINtNtCsaNl6UpbT7bw_4core7convert4FromNtNtB7_5value5ValueE4fromB9_
FNDA:56,_RNvXs0_NtNtCsfZPcC2TrjjJ_17cedar_policy_core3ast9extensionNtB5_20ExtensionOutputValueINtNtCsaNl6UpbT7bw_4core7convert4FrombE4fromB9_
FNDA:89,_RNvMNtNtCsfZPcC2TrjjJ_17cedar_policy_core3ast9extensionNtB2_9Extension31types_with_operator_overloading
FNDA:14,_RNvMNtNtCsfZPcC2TrjjJ_17cedar_policy_core3ast9extensionNtB2_9Extension4name
FNDA:22625,_RNvMNtNtCsfZPcC2TrjjJ_17cedar_policy_core3ast9extensionNtB2_9Extension5funcs
FNDA:11,_RNvMNtNtCsfZPcC2TrjjJ_17cedar_policy_core3ast9extensionNtB2_9Extension8get_func
FNDA:22533,_RNvMNtNtCsfZPcC2TrjjJ_17cedar_policy_core3ast9extensionNtB2_9Extension9ext_types
FNDA:12,_RNvMs1_NtNtCsfZPcC2TrjjJ_17cedar_policy_core3ast9extensionNtB5_17ExtensionFunction11is_variadic
FNDA:189,_RNvMs1_NtNtCsfZPcC2TrjjJ_17cedar_policy_core3ast9extensionNtB5_17ExtensionFunction11return_type
FNDA:110,_RNvMs1_NtNtCsfZPcC2TrjjJ_17cedar_policy_core3ast9extensionNtB5_17ExtensionFunction25is_single_arg_constructor
FNDA:154,_RNvMs1_NtNtCsfZPcC2TrjjJ_17cedar_policy_core3ast9extensionNtB5_17ExtensionFunction3new
FNDA:585,_RNvMs1_NtNtCsfZPcC2TrjjJ_17cedar_policy_core3ast9extensionNtB5_17ExtensionFunction4call
FNDA:648,_RNvMs1_NtNtCsfZPcC2TrjjJ_17cedar_policy_core3ast9extensionNtB5_17ExtensionFunction4name
FNDA:42,_RNvMs1_NtNtCsfZPcC2TrjjJ_17cedar_policy_core3ast9extensionNtB5_17ExtensionFunction5style
FNDA:93,_RNvMs1_NtNtCsfZPcC2TrjjJ_17cedar_policy_core3ast9extensionNtB5_17ExtensionFunction5unary
FNDA:50,_RNvMs1_NtNtCsfZPcC2TrjjJ_17cedar_policy_core3ast9extensionNtB5_17ExtensionFunction6binary
FNDA:11,_RNvMs1_NtNtCsfZPcC2TrjjJ_17cedar_policy_core3ast9extensionNtB5_17ExtensionFunction8variadic
FNDA:148,_RNvMs1_NtNtCsfZPcC2TrjjJ_17cedar_policy_core3ast9extensionNtB5_17ExtensionFunction9arg_types
FNDA:120049,_RNvMs1_NtNtCsfZPcC2TrjjJ_17cedar_policy_core3ast9extensionNtB5_17ExtensionFunction9ext_types
FNDA:54,_RNvMs4_NtNtCsfZPcC2TrjjJ_17cedar_policy_core3ast9extensionNtB5_27RepresentableExtensionValue29supports_operator_overloading
FNDA:438,_RNvMs4_NtNtCsfZPcC2TrjjJ_17cedar_policy_core3ast9extensionNtB5_27RepresentableExtensionValue3new
FNDA:171,_RNvMs4_NtNtCsfZPcC2TrjjJ_17cedar_policy_core3ast9extensionNtB5_27RepresentableExtensionValue5value
FNDA:216,_RNvMs4_NtNtCsfZPcC2TrjjJ_17cedar_policy_core3ast9extensionNtB5_27RepresentableExtensionValue8typename
FNDA:8,_RNvXs6_NtNtCsfZPcC2TrjjJ_17cedar_policy_core3ast9extensionNtB5_27RepresentableExtensionValueNtNtB7_5types15StaticallyTyped7type_of
FNDA:43,_RNvXs7_NtNtCsfZPcC2TrjjJ_17cedar_policy_core3ast9extensionNtB5_27RepresentableExtensionValueNtNtCsaNl6UpbT7bw_4core3cmp9PartialEq2eq
FNDA:18,_RNvXs9_NtNtCsfZPcC2TrjjJ_17cedar_policy_core3ast9extensionNtB5_27RepresentableExtensionValueNtNtCsaNl6UpbT7bw_4core3cmp10PartialOrd11partial_cmp
FNDA:18,_RNvXsa_NtNtCsfZPcC2TrjjJ_17cedar_policy_core3ast9extensionNtB5_27RepresentableExtensionValueNtNtCsaNl6UpbT7bw_4core3cmp3Ord3cmp
FNDA:43,_RNvXsc_NtNtCsfZPcC2TrjjJ_17cedar_policy_core3ast9extensionDNtB5_22InternalExtensionValueEL_NtNtCsaNl6UpbT7bw_4core3cmp9PartialEq2eq
FNDA:18,_RNvXsf_NtNtCsfZPcC2TrjjJ_17cedar_policy_core3ast9extensionDNtB5_22InternalExtensionValueEL_NtNtCsaNl6UpbT7bw_4core3cmp3Ord3cmp
FNDA:8,_RNvXsg_NtNtCsfZPcC2TrjjJ_17cedar_policy_core3ast9extensionDNtB5_22InternalExtensionValueEL_NtNtB7_5types15StaticallyTyped7type_of
FNDA:36,_RNvXs5_NtNtCsfZPcC2TrjjJ_17cedar_policy_core3ast9extensionNtNtB7_15restricted_expr14RestrictedExprINtNtCsaNl6UpbT7bw_4core7convert4FromNtB5_27RepresentableExtensionValueE4from
FNDA:0,_RNvXsb_NtNtCsfZPcC2TrjjJ_17cedar_policy_core3ast9extensionNtNtNtB9_10extensions6ipaddr6IPAddrNtB5_22InternalExtensionValue12cmp_extvalueB9_
FNDA:15,_RNvXsb_NtNtCsfZPcC2TrjjJ_17cedar_policy_core3ast9extensionNtNtNtB9_10extensions6ipaddr6IPAddrNtB5_22InternalExtensionValue15equals_extvalueB9_
FNDA:105,_RNvXsb_NtNtCsfZPcC2TrjjJ_17cedar_policy_core3ast9extensionNtNtNtB9_10extensions6ipaddr6IPAddrNtB5_22InternalExtensionValue6as_anyB9_
FNDA:10,_RNvXsb_NtNtCsfZPcC2TrjjJ_17cedar_policy_core3ast9extensionNtNtNtB9_10extensions8datetime8DateTimeNtB5_22InternalExtensionValue12cmp_extvalueB9_
FNDA:15,_RNvXsb_NtNtCsfZPcC2TrjjJ_17cedar_policy_core3ast9extensionNtNtNtB9_10extensions8datetime8DateTimeNtB5_22InternalExtensionValue15equals_extvalueB9_
FNDA:40,_RNvXsb_NtNtCsfZPcC2TrjjJ_17cedar_policy_core3ast9extensionNtNtNtB9_10extensions8datetime8DateTimeNtB5_22InternalExtensionValue6as_anyB9_
FNDA:8,_RNvXsb_NtNtCsfZPcC2TrjjJ_17cedar_policy_core3ast9extensionNtNtNtB9_10extensions8datetime8DurationNtB5_22InternalExtensionValue12cmp_extvalueB9_
FNDA:7,_RNvXsb_NtNtCsfZPcC2TrjjJ_17cedar_policy_core3ast9extensionNtNtNtB9_10extensions8datetime8DurationNtB5_22InternalExtensionValue15equals_extvalueB9_
FNDA:30,_RNvXsb_NtNtCsfZPcC2TrjjJ_17cedar_policy_core3ast9extensionNtNtNtB9_10extensions8datetime8DurationNtB5_22InternalExtensionValue6as_anyB9_
FNDA:0,_RNvXsb_NtNtCsfZPcC2TrjjJ_17cedar_policy_core3ast9extensionNtNtNtB9_10extensions7decimal7DecimalNtB5_22InternalExtensionValue12cmp_extvalueB9_
FNDA:10,_RNvXsb_NtNtCsfZPcC2TrjjJ_17cedar_policy_core3ast9extensionNtNtNtB9_10extensions7decimal7DecimalNtB5_22InternalExtensionValue15equals_extvalueB9_
FNDA:57,_RNvXsb_NtNtCsfZPcC2TrjjJ_17cedar_policy_core3ast9extensionNtNtNtB9_10extensions7decimal7DecimalNtB5_22InternalExtensionValue6as_anyB9_
FNF:53
FNH:42
DA:43,25
DA:44,25
DA:45,25
DA:46,25
DA:47,25
DA:49,25
DA:50,154
DA:51,25
DA:53,25
DA:56,14
DA:57,14
DA:58,14
DA:62,11
DA:63,11
DA:64,11
DA:67,22625
DA:68,22625
DA:69,22625
DA:73,22533
DA:74,120049
DA:75,22533
DA:78,89
DA:79,89
DA:80,89
DA:84,0
DA:85,0
DA:86,0
DA:102,538
DA:103,538
DA:104,538
DA:165,154
DA:166,154
DA:167,154
DA:168,154
DA:169,154
DA:170,154
DA:171,154
DA:172,154
DA:173,154
DA:174,154
DA:175,154
DA:176,154
DA:177,154
DA:178,154
DA:179,154
DA:180,154
DA:181,154
DA:184,0
DA:185,0
DA:186,0
DA:187,0
DA:188,0
DA:189,0
DA:190,0
DA:191,0
DA:192,0
DA:193,0
DA:194,0
DA:195,0
DA:197,0
DA:198,0
DA:199,0
DA:200,0
DA:201,0
DA:202,0
DA:204,0
DA:205,0
DA:206,0
DA:209,0
DA:213,0
DA:214,0
DA:215,0
DA:216,0
DA:217,0
DA:218,0
DA:219,0
DA:220,0
DA:221,0
DA:222,0
DA:223,0
DA:224,0
DA:225,0
DA:226,0
DA:227,0
DA:228,0
DA:229,0
DA:230,0
DA:231,0
DA:232,0
DA:235,0
DA:238,93
DA:239,93
DA:240,93
DA:241,93
DA:242,93
DA:243,93
DA:244,93
DA:245,93
DA:246,93
DA:247,93
DA:248,516
DA:249,509
DA:250,7
DA:251,7
DA:252,7
DA:253,7
DA:254,7
DA:255,7
DA:256,516
DA:257,93
DA:258,93
DA:261,93
DA:264,50
DA:265,50
DA:266,50
DA:267,50
DA:268,50
DA:269,50
DA:270,50
DA:271,50
DA:272,50
DA:273,50
DA:274,50
DA:275,33
DA:276,0
DA:277,0
DA:278,0
DA:279,0
DA:280,0
DA:281,0
DA:282,33
DA:283,50
DA:284,50
DA:287,50
DA:290,0
DA:291,0
DA:292,0
DA:293,0
DA:294,0
DA:295,0
DA:296,0
DA:297,0
DA:298,0
DA:299,0
DA:300,0
DA:301,0
DA:302,0
DA:303,0
DA:304,0
DA:305,0
DA:306,0
DA:307,0
DA:308,0
DA:309,0
DA:310,0
DA:313,0
DA:316,11
DA:317,11
DA:318,11
DA:319,11
DA:320,11
DA:321,11
DA:322,11
DA:323,11
DA:324,11
DA:325,11
DA:326,36
DA:330,34
DA:331,2
DA:332,2
DA:333,2
DA:334,2
DA:335,2
DA:336,2
DA:337,36
DA:338,11
DA:339,11
DA:345,11
DA:348,648
DA:349,648
DA:350,648
DA:353,42
DA:354,42
DA:355,42
DA:360,189
DA:361,189
DA:362,189
DA:365,148
DA:366,148
DA:367,148
DA:370,12
DA:371,12
DA:372,12
DA:379,110
DA:381,110
DA:383,24
DA:384,110
DA:387,585
DA:388,585
DA:389,538
DA:390,0
DA:392,585
DA:396,120049
DA:397,120049
DA:398,120049
DA:399,120049
DA:400,120049
DA:404,0
DA:405,0
DA:406,0
DA:426,0
DA:427,0
DA:428,0
DA:429,0
DA:430,0
DA:448,438
DA:449,438
DA:450,438
DA:451,438
DA:452,438
DA:453,438
DA:454,438
DA:457,171
DA:458,171
DA:459,171
DA:462,216
DA:463,216
DA:464,216
DA:467,54
DA:468,54
DA:469,54
DA:473,36
DA:474,36
DA:475,36
DA:479,8
DA:480,8
DA:481,8
DA:485,43
DA:487,43
DA:488,43
DA:494,18
DA:495,18
DA:496,18
DA:500,18
DA:501,18
DA:502,18
DA:529,232
DA:530,232
DA:531,232
DA:533,47
DA:534,47
DA:535,47
DA:536,47
DA:537,47
DA:538,47
DA:539,47
DA:541,18
DA:542,18
DA:543,18
DA:544,18
DA:545,18
DA:546,18
DA:549,0
DA:550,0
DA:551,18
DA:555,43
DA:556,43
DA:557,43
DA:563,0
DA:564,0
DA:565,0
DA:569,18
DA:570,18
DA:571,18
DA:575,8
DA:576,8
DA:577,8
DA:578,8
DA:579,8
BRF:0
BRH:0
LF:291
LH:199
end_of_record
SF:/Users/victornl/repos/cedar-spec/cedar/cedar-policy-core/src/ast/id.rs
FN:422,_RNvNtNtNtCsfZPcC2TrjjJ_17cedar_policy_core3ast2id4tests_13normalized_id
FN:210,_RINvXsc_NtNtCsfZPcC2TrjjJ_17cedar_policy_core3ast2idNtB6_2IdNtNtCsl7c8xoeGAga_10serde_core2de11Deserialize11deserializepEBa_
FN:76,_RNvMNtNtCsfZPcC2TrjjJ_17cedar_policy_core3ast2idNtB2_2Id17is_heap_allocated
FN:316,_RNvMse_NtNtCsfZPcC2TrjjJ_17cedar_policy_core3ast2idNtB5_5AnyId12into_smolstr
FN:146,_RNvXs5_NtNtCsfZPcC2TrjjJ_17cedar_policy_core3ast2idNtB5_12UnreservedIdINtNtCsaNl6UpbT7bw_4core7convert5AsRefNtB5_2IdE6as_ref
FN:194,_RNvXsb_NtNtCsfZPcC2TrjjJ_17cedar_policy_core3ast2idNtB5_9IdVisitorNtNtCsl7c8xoeGAga_10serde_core2de7Visitor9expecting
FN:71,_RNvMNtNtCsfZPcC2TrjjJ_17cedar_policy_core3ast2idNtB2_2Id11is_reserved
FN:64,_RNvMNtNtCsfZPcC2TrjjJ_17cedar_policy_core3ast2idNtB2_2Id12into_smolstr
FN:59,_RNvMNtNtCsfZPcC2TrjjJ_17cedar_policy_core3ast2idNtB2_2Id19new_unchecked_const
FN:184,_RNvMsa_NtNtCsfZPcC2TrjjJ_17cedar_policy_core3ast2idNtB5_12UnreservedId12into_smolstr
FN:178,_RNvMsa_NtNtCsfZPcC2TrjjJ_17cedar_policy_core3ast2idNtB5_12UnreservedId5empty
FN:88,_RNvXs0_NtNtCsfZPcC2TrjjJ_17cedar_policy_core3ast2idNtB5_2IdNtNtCsaNl6UpbT7bw_4core3fmt7Display3fmt
FN:97,_RNvXs1_NtNtCsfZPcC2TrjjJ_17cedar_policy_core3ast2idNtB5_2IdNtNtNtCsaNl6UpbT7bw_4core3str6traits7FromStr8from_str
FN:103,_RNvXs2_NtNtCsfZPcC2TrjjJ_17cedar_policy_core3ast2idNtB5_2IdNtNtB9_19from_normalized_str17FromNormalizedStr13describe_self
FN:109,_RNvXs2_NtNtCsfZPcC2TrjjJ_17cedar_policy_core3ast2idNtB5_2IdNtNtB9_19from_normalized_str17FromNormalizedStr19from_normalized_str
FN:127,_RNvXs3_NtNtCsfZPcC2TrjjJ_17cedar_policy_core3ast2idNtB5_2IdINtNtCsaNl6UpbT7bw_4core7convert4FromNtB5_12UnreservedIdE4from
FN:134,_RNvXs4_NtNtCsfZPcC2TrjjJ_17cedar_policy_core3ast2idNtB5_12UnreservedIdINtNtCsaNl6UpbT7bw_4core7convert7TryFromNtB5_2IdE8try_from
FN:152,_RNvXs6_NtNtCsfZPcC2TrjjJ_17cedar_policy_core3ast2idNtB5_12UnreservedIdINtNtCsaNl6UpbT7bw_4core7convert5AsRefeE6as_ref
FN:158,_RNvXs7_NtNtCsfZPcC2TrjjJ_17cedar_policy_core3ast2idNtB5_12UnreservedIdNtNtCsaNl6UpbT7bw_4core3fmt7Display3fmt
FN:165,_RNvXs8_NtNtCsfZPcC2TrjjJ_17cedar_policy_core3ast2idNtB5_12UnreservedIdNtNtNtCsaNl6UpbT7bw_4core3str6traits7FromStr8from_str
FN:171,_RNvXs9_NtNtCsfZPcC2TrjjJ_17cedar_policy_core3ast2idNtB5_12UnreservedIdNtNtB9_19from_normalized_str17FromNormalizedStr13describe_self
FN:82,_RNvXs_NtNtCsfZPcC2TrjjJ_17cedar_policy_core3ast2idNtB4_2IdINtNtCsaNl6UpbT7bw_4core7convert5AsRefeE6as_ref
FN:326,_RNvXsf_NtNtCsfZPcC2TrjjJ_17cedar_policy_core3ast2idNtB5_12AnyIdVisitorNtNtCsl7c8xoeGAga_10serde_core2de7Visitor9expecting
FN:351,_RNvXsh_NtNtCsfZPcC2TrjjJ_17cedar_policy_core3ast2idNtB5_5AnyIdINtNtCsaNl6UpbT7bw_4core7convert5AsRefeE6as_ref
FN:357,_RNvXsi_NtNtCsfZPcC2TrjjJ_17cedar_policy_core3ast2idNtB5_5AnyIdNtNtCsaNl6UpbT7bw_4core3fmt7Display3fmt
FN:366,_RNvXsj_NtNtCsfZPcC2TrjjJ_17cedar_policy_core3ast2idNtB5_5AnyIdNtNtNtCsaNl6UpbT7bw_4core3str6traits7FromStr8from_str
FN:372,_RNvXsk_NtNtCsfZPcC2TrjjJ_17cedar_policy_core3ast2idNtB5_5AnyIdNtNtB9_19from_normalized_str17FromNormalizedStr13describe_self
FN:52,_RINvMNtNtCsfZPcC2TrjjJ_17cedar_policy_core3ast2idNtB3_2Id13new_uncheckedNtCsbIodQZzabP8_8smol_str7SmolStrEB7_
FN:52,_RINvMNtNtCsfZPcC2TrjjJ_17cedar_policy_core3ast2idNtB3_2Id13new_uncheckedReEB7_
FN:311,_RINvMse_NtNtCsfZPcC2TrjjJ_17cedar_policy_core3ast2idNtB6_5AnyId13new_uncheckedNtCsbIodQZzabP8_8smol_str7SmolStrEBa_
FN:311,_RINvMse_NtNtCsfZPcC2TrjjJ_17cedar_policy_core3ast2idNtB6_5AnyId13new_uncheckedNtNtCsiTraAjBDcu4_5alloc6string6StringEBa_
FN:311,_RINvMse_NtNtCsfZPcC2TrjjJ_17cedar_policy_core3ast2idNtB6_5AnyId13new_uncheckedReEBa_
FN:198,_RINvXsb_NtNtCsfZPcC2TrjjJ_17cedar_policy_core3ast2idNtB6_9IdVisitorNtNtCsl7c8xoeGAga_10serde_core2de7Visitor9visit_strNtNtCseVfDaXV4ykk_10serde_json5error5ErrorEBa_
FN:221,_RINvXsd_NtNtCsfZPcC2TrjjJ_17cedar_policy_core3ast2idNtB6_12UnreservedIdNtNtCsl7c8xoeGAga_10serde_core2de11Deserialize11deserializeINtNtCseVfDaXV4ykk_10serde_json2de6MapKeyNtNtB29_4read7StrReadEEBa_
FN:221,_RINvXsd_NtNtCsfZPcC2TrjjJ_17cedar_policy_core3ast2idNtB6_12UnreservedIdNtNtCsl7c8xoeGAga_10serde_core2de11Deserialize11deserializeNtNtNtCseVfDaXV4ykk_10serde_json5value2de18MapKeyDeserializerEBa_
FN:330,_RINvXsf_NtNtCsfZPcC2TrjjJ_17cedar_policy_core3ast2idNtB6_12AnyIdVisitorNtNtCsl7c8xoeGAga_10serde_core2de7Visitor9visit_strNtNtCseVfDaXV4ykk_10serde_json5error5ErrorEBa_
FN:342,_RINvXsg_NtNtCsfZPcC2TrjjJ_17cedar_policy_core3ast2idNtB6_5AnyIdNtNtCsl7c8xoeGAga_10serde_core2de11Deserialize11deserializeINtNtCseVfDaXV4ykk_10serde_json2de6MapKeyNtNtB21_4read7StrReadEEBa_
FN:342,_RINvXsg_NtNtCsfZPcC2TrjjJ_17cedar_policy_core3ast2idNtB6_5AnyIdNtNtCsl7c8xoeGAga_10serde_core2de11Deserialize11deserializeINtNtNtNtCsdGJlX4LZ2uU_5serde7private2de7content22ContentRefDeserializerNtNtCseVfDaXV4ykk_10serde_json5error5ErrorEEBa_
FN:342,_RINvXsg_NtNtCsfZPcC2TrjjJ_17cedar_policy_core3ast2idNtB6_5AnyIdNtNtCsl7c8xoeGAga_10serde_core2de11Deserialize11deserializeNtNtNtCseVfDaXV4ykk_10serde_json5value2de18MapKeyDeserializerEBa_
FN:203,_RNCINvXsb_NtNtCsfZPcC2TrjjJ_17cedar_policy_core3ast2idNtB8_9IdVisitorNtNtCsl7c8xoeGAga_10serde_core2de7Visitor9visit_strNtNtCseVfDaXV4ykk_10serde_json5error5ErrorE0Bc_
FN:227,_RNCINvXsd_NtNtCsfZPcC2TrjjJ_17cedar_policy_core3ast2idNtB8_12UnreservedIdNtNtCsl7c8xoeGAga_10serde_core2de11Deserialize11deserializeINtNtCseVfDaXV4ykk_10serde_json2de6MapKeyNtNtB2b_4read7StrReadEE0Bc_
FN:227,_RNCINvXsd_NtNtCsfZPcC2TrjjJ_17cedar_policy_core3ast2idNtB8_12UnreservedIdNtNtCsl7c8xoeGAga_10serde_core2de11Deserialize11deserializeNtNtNtCseVfDaXV4ykk_10serde_json5value2de18MapKeyDeserializerE0Bc_
FN:335,_RNCINvXsf_NtNtCsfZPcC2TrjjJ_17cedar_policy_core3ast2idNtB8_12AnyIdVisitorNtNtCsl7c8xoeGAga_10serde_core2de7Visitor9visit_strNtNtCseVfDaXV4ykk_10serde_json5error5ErrorE0Bc_
FN:166,_RNCNvXs8_NtNtCsfZPcC2TrjjJ_17cedar_policy_core3ast2idNtB7_12UnreservedIdNtNtNtCsaNl6UpbT7bw_4core3str6traits7FromStr8from_str0Bb_
FNDA:1,_RNvNtNtNtCsfZPcC2TrjjJ_17cedar_policy_core3ast2id4tests_13normalized_id
FNDA:0,_RINvXsc_NtNtCsfZPcC2TrjjJ_17cedar_policy_core3ast2idNtB6_2IdNtNtCsl7c8xoeGAga_10serde_core2de11Deserialize11deserializepEBa_
FNDA:0,_RNvMNtNtCsfZPcC2TrjjJ_17cedar_policy_core3ast2idNtB2_2Id17is_heap_allocated
FNDA:0,_RNvMse_NtNtCsfZPcC2TrjjJ_17cedar_policy_core3ast2idNtB5_5AnyId12into_smolstr
FNDA:0,_RNvXs5_NtNtCsfZPcC2TrjjJ_17cedar_policy_core3ast2idNtB5_12UnreservedIdINtNtCsaNl6UpbT7bw_4core7convert5AsRefNtB5_2IdE6as_ref
FNDA:0,_RNvXsb_NtNtCsfZPcC2TrjjJ_17cedar_policy_core3ast2idNtB5_9IdVisitorNtNtCsl7c8xoeGAga_10serde_core2de7Visitor9expecting
FNDA:50053,_RNvMNtNtCsfZPcC2TrjjJ_17cedar_policy_core3ast2idNtB2_2Id11is_reserved
FNDA:1079,_RNvMNtNtCsfZPcC2TrjjJ_17cedar_policy_core3ast2idNtB2_2Id12into_smolstr
FNDA:10110,_RNvMNtNtCsfZPcC2TrjjJ_17cedar_policy_core3ast2idNtB2_2Id19new_unchecked_const
FNDA:824,_RNvMsa_NtNtCsfZPcC2TrjjJ_17cedar_policy_core3ast2idNtB5_12UnreservedId12into_smolstr
FNDA:886,_RNvMsa_NtNtCsfZPcC2TrjjJ_17cedar_policy_core3ast2idNtB5_12UnreservedId5empty
FNDA:8403,_RNvXs0_NtNtCsfZPcC2TrjjJ_17cedar_policy_core3ast2idNtB5_2IdNtNtCsaNl6UpbT7bw_4core3fmt7Display3fmt
FNDA:12252,_RNvXs1_NtNtCsfZPcC2TrjjJ_17cedar_policy_core3ast2idNtB5_2IdNtNtNtCsaNl6UpbT7bw_4core3str6traits7FromStr8from_str
FNDA:5,_RNvXs2_NtNtCsfZPcC2TrjjJ_17cedar_policy_core3ast2idNtB5_2IdNtNtB9_19from_normalized_str17FromNormalizedStr13describe_self
FNDA:1346,_RNvXs2_NtNtCsfZPcC2TrjjJ_17cedar_policy_core3ast2idNtB5_2IdNtNtB9_19from_normalized_str17FromNormalizedStr19from_normalized_str
FNDA:15445,_RNvXs3_NtNtCsfZPcC2TrjjJ_17cedar_policy_core3ast2idNtB5_2IdINtNtCsaNl6UpbT7bw_4core7convert4FromNtB5_12UnreservedIdE4from
FNDA:24672,_RNvXs4_NtNtCsfZPcC2TrjjJ_17cedar_policy_core3ast2idNtB5_12UnreservedIdINtNtCsaNl6UpbT7bw_4core7convert7TryFromNtB5_2IdE8try_from
FNDA:912,_RNvXs6_NtNtCsfZPcC2TrjjJ_17cedar_policy_core3ast2idNtB5_12UnreservedIdINtNtCsaNl6UpbT7bw_4core7convert5AsRefeE6as_ref
FNDA:2177,_RNvXs7_NtNtCsfZPcC2TrjjJ_17cedar_policy_core3ast2idNtB5_12UnreservedIdNtNtCsaNl6UpbT7bw_4core3fmt7Display3fmt
FNDA:5943,_RNvXs8_NtNtCsfZPcC2TrjjJ_17cedar_policy_core3ast2idNtB5_12UnreservedIdNtNtNtCsaNl6UpbT7bw_4core3str6traits7FromStr8from_str
FNDA:0,_RNvXs9_NtNtCsfZPcC2TrjjJ_17cedar_policy_core3ast2idNtB5_12UnreservedIdNtNtB9_19from_normalized_str17FromNormalizedStr13describe_self
FNDA:51857,_RNvXs_NtNtCsfZPcC2TrjjJ_17cedar_policy_core3ast2idNtB4_2IdINtNtCsaNl6UpbT7bw_4core7convert5AsRefeE6as_ref
FNDA:0,_RNvXsf_NtNtCsfZPcC2TrjjJ_17cedar_policy_core3ast2idNtB5_12AnyIdVisitorNtNtCsl7c8xoeGAga_10serde_core2de7Visitor9expecting
FNDA:4101,_RNvXsh_NtNtCsfZPcC2TrjjJ_17cedar_policy_core3ast2idNtB5_5AnyIdINtNtCsaNl6UpbT7bw_4core7convert5AsRefeE6as_ref
FNDA:114,_RNvXsi_NtNtCsfZPcC2TrjjJ_17cedar_policy_core3ast2idNtB5_5AnyIdNtNtCsaNl6UpbT7bw_4core3fmt7Display3fmt
FNDA:4254,_RNvXsj_NtNtCsfZPcC2TrjjJ_17cedar_policy_core3ast2idNtB5_5AnyIdNtNtNtCsaNl6UpbT7bw_4core3str6traits7FromStr8from_str
FNDA:0,_RNvXsk_NtNtCsfZPcC2TrjjJ_17cedar_policy_core3ast2idNtB5_5AnyIdNtNtB9_19from_normalized_str17FromNormalizedStr13describe_self
FNDA:21027,_RINvMNtNtCsfZPcC2TrjjJ_17cedar_policy_core3ast2idNtB3_2Id13new_uncheckedNtCsbIodQZzabP8_8smol_str7SmolStrEB7_
FNDA:2351,_RINvMNtNtCsfZPcC2TrjjJ_17cedar_policy_core3ast2idNtB3_2Id13new_uncheckedReEB7_
FNDA:4335,_RINvMse_NtNtCsfZPcC2TrjjJ_17cedar_policy_core3ast2idNtB6_5AnyId13new_uncheckedNtCsbIodQZzabP8_8smol_str7SmolStrEBa_
FNDA:1,_RINvMse_NtNtCsfZPcC2TrjjJ_17cedar_policy_core3ast2idNtB6_5AnyId13new_uncheckedNtNtCsiTraAjBDcu4_5alloc6string6StringEBa_
FNDA:20,_RINvMse_NtNtCsfZPcC2TrjjJ_17cedar_policy_core3ast2idNtB6_5AnyId13new_uncheckedReEBa_
FNDA:1338,_RINvXsb_NtNtCsfZPcC2TrjjJ_17cedar_policy_core3ast2idNtB6_9IdVisitorNtNtCsl7c8xoeGAga_10serde_core2de7Visitor9visit_strNtNtCseVfDaXV4ykk_10serde_json5error5ErrorEBa_
FNDA:117,_RINvXsd_NtNtCsfZPcC2TrjjJ_17cedar_policy_core3ast2idNtB6_12UnreservedIdNtNtCsl7c8xoeGAga_10serde_core2de11Deserialize11deserializeINtNtCseVfDaXV4ykk_10serde_json2de6MapKeyNtNtB29_4read7StrReadEEBa_
FNDA:1221,_RINvXsd_NtNtCsfZPcC2TrjjJ_17cedar_policy_core3ast2idNtB6_12UnreservedIdNtNtCsl7c8xoeGAga_10serde_core2de11Deserialize11deserializeNtNtNtCseVfDaXV4ykk_10serde_json5value2de18MapKeyDeserializerEBa_
FNDA:46,_RINvXsf_NtNtCsfZPcC2TrjjJ_17cedar_policy_core3ast2idNtB6_12AnyIdVisitorNtNtCsl7c8xoeGAga_10serde_core2de7Visitor9visit_strNtNtCseVfDaXV4ykk_10serde_json5error5ErrorEBa_
FNDA:7,_RINvXsg_NtNtCsfZPcC2TrjjJ_17cedar_policy_core3ast2idNtB6_5AnyIdNtNtCsl7c8xoeGAga_10serde_core2de11Deserialize11deserializeINtNtCseVfDaXV4ykk_10serde_json2de6MapKeyNtNtB21_4read7StrReadEEBa_
FNDA:6,_RINvXsg_NtNtCsfZPcC2TrjjJ_17cedar_policy_core3ast2idNtB6_5AnyIdNtNtCsl7c8xoeGAga_10serde_core2de11Deserialize11deserializeINtNtNtNtCsdGJlX4LZ2uU_5serde7private2de7content22ContentRefDeserializerNtNtCseVfDaXV4ykk_10serde_json5error5ErrorEEBa_
FNDA:33,_RINvXsg_NtNtCsfZPcC2TrjjJ_17cedar_policy_core3ast2idNtB6_5AnyIdNtNtCsl7c8xoeGAga_10serde_core2de11Deserialize11deserializeNtNtNtCseVfDaXV4ykk_10serde_json5value2de18MapKeyDeserializerEBa_
FNDA:8,_RNCINvXsb_NtNtCsfZPcC2TrjjJ_17cedar_policy_core3ast2idNtB8_9IdVisitorNtNtCsl7c8xoeGAga_10serde_core2de7Visitor9visit_strNtNtCseVfDaXV4ykk_10serde_json5error5ErrorE0Bc_
FNDA:116,_RNCINvXsd_NtNtCsfZPcC2TrjjJ_17cedar_policy_core3ast2idNtB8_12UnreservedIdNtNtCsl7c8xoeGAga_10serde_core2de11Deserialize11deserializeINtNtCseVfDaXV4ykk_10serde_json2de6MapKeyNtNtB2b_4read7StrReadEE0Bc_
FNDA:1214,_RNCINvXsd_NtNtCsfZPcC2TrjjJ_17cedar_policy_core3ast2idNtB8_12UnreservedIdNtNtCsl7c8xoeGAga_10serde_core2de11Deserialize11deserializeNtNtNtCseVfDaXV4ykk_10serde_json5value2de18MapKeyDeserializerE0Bc_
FNDA:3,_RNCINvXsf_NtNtCsfZPcC2TrjjJ_17cedar_policy_core3ast2idNtB8_12AnyIdVisitorNtNtCsl7c8xoeGAga_10serde_core2de7Visitor9visit_strNtNtCseVfDaXV4ykk_10serde_json5error5ErrorE0Bc_
FNDA:5937,_RNCNvXs8_NtNtCsfZPcC2TrjjJ_17cedar_policy_core3ast2idNtB7_12UnreservedIdNtNtNtCsaNl6UpbT7bw_4core3str6traits7FromStr8from_str0Bb_
FNF:37
FNH:29
DA:52,23378
DA:53,23378
DA:54,23378
DA:59,10110
DA:60,10110
DA:61,10110
DA:64,1079
DA:65,1079
DA:66,1079
DA:71,50053
DA:72,50053
DA:73,50053
DA:76,0
DA:77,0
DA:78,0
DA:82,51857
DA:83,51857
DA:84,51857
DA:88,8403
DA:89,8403
DA:90,8403
DA:97,12252
DA:98,12252
DA:99,12252
DA:103,5
DA:104,5
DA:105,5
DA:109,1346
DA:110,1346
DA:111,1330
DA:115,16
DA:117,1346
DA:127,15445
DA:128,15445
DA:129,15445
DA:134,24672
DA:135,24672
DA:136,6
DA:137,6
DA:138,6
DA:140,24666
DA:142,24672
DA:146,0
DA:147,0
DA:148,0
DA:152,912
DA:153,912
DA:154,912
DA:158,2177
DA:159,2177
DA:160,2177
DA:165,5943
DA:166,5943
DA:167,5943
DA:171,0
DA:172,0
DA:173,0
DA:178,886
DA:180,886
DA:181,886
DA:184,824
DA:185,824
DA:186,824
DA:194,0
DA:195,0
DA:196,0
DA:198,1338
DA:199,1338
DA:200,1338
DA:202,1338
DA:203,1338
DA:204,1338
DA:210,0
DA:211,0
DA:212,0
DA:214,0
DA:215,0
DA:221,1338
DA:222,1338
DA:223,1338
DA:225,1338
DA:226,1338
DA:227,1338
DA:228,1338
DA:311,4356
DA:312,4356
DA:313,4356
DA:316,0
DA:317,0
DA:318,0
DA:326,0
DA:327,0
DA:328,0
DA:330,46
DA:331,46
DA:332,46
DA:334,46
DA:335,46
DA:336,46
DA:342,46
DA:343,46
DA:344,46
DA:346,46
DA:347,46
DA:351,4101
DA:352,4101
DA:353,4101
DA:357,114
DA:358,114
DA:359,114
DA:366,4254
DA:367,4254
DA:368,4254
DA:372,0
DA:373,0
DA:374,0
DA:422,1
DA:423,1
DA:424,1
DA:425,1
DA:426,1
DA:427,1
DA:428,1
DA:429,1
DA:430,1
BRF:0
BRH:0
LF:129
LH:103
end_of_record
SF:/Users/victornl/repos/cedar-spec/cedar/cedar-policy-core/src/ast/literal.rs
FN:132,_RNvMs8_NtNtCsfZPcC2TrjjJ_17cedar_policy_core3ast7literalNtB5_7Literal6is_ref
FN:75,_RNvXs0_NtNtCsfZPcC2TrjjJ_17cedar_policy_core3ast7literalNtB5_7LiteralNtNtNtCsaNl6UpbT7bw_4core3str6traits7FromStr8from_str
FN:48,_RNvXNtNtCsfZPcC2TrjjJ_17cedar_policy_core3ast7literalNtB2_7LiteralNtNtB4_5types15StaticallyTyped7type_of
FN:82,_RNvXs1_NtNtCsfZPcC2TrjjJ_17cedar_policy_core3ast7literalNtB5_7LiteralINtNtCsaNl6UpbT7bw_4core7convert4FrombE4from
FN:89,_RNvXs2_NtNtCsfZPcC2TrjjJ_17cedar_policy_core3ast7literalNtB5_7LiteralINtNtCsaNl6UpbT7bw_4core7convert4FromxE4from
FN:96,_RNvXs3_NtNtCsfZPcC2TrjjJ_17cedar_policy_core3ast7literalNtB5_7LiteralINtNtCsaNl6UpbT7bw_4core7convert4FromNtNtCsiTraAjBDcu4_5alloc6string6StringE4from
FN:103,_RNvXs4_NtNtCsfZPcC2TrjjJ_17cedar_policy_core3ast7literalNtB5_7LiteralINtNtCsaNl6UpbT7bw_4core7convert4FromReE4from
FN:109,_RNvXs5_NtNtCsfZPcC2TrjjJ_17cedar_policy_core3ast7literalNtB5_7LiteralINtNtCsaNl6UpbT7bw_4core7convert4FromNtCsbIodQZzabP8_8smol_str7SmolStrE4from
FN:116,_RNvXs6_NtNtCsfZPcC2TrjjJ_17cedar_policy_core3ast7literalNtB5_7LiteralINtNtCsaNl6UpbT7bw_4core7convert4FromNtNtB7_6entity9EntityUIDE4from
FN:122,_RNvXs7_NtNtCsfZPcC2TrjjJ_17cedar_policy_core3ast7literalNtB5_7LiteralINtNtCsaNl6UpbT7bw_4core7convert4FromINtNtCsiTraAjBDcu4_5alloc4sync3ArcNtNtB7_6entity9EntityUIDEE4from
FN:59,_RNvXs_NtNtCsfZPcC2TrjjJ_17cedar_policy_core3ast7literalNtB4_7LiteralNtNtCsaNl6UpbT7bw_4core3fmt7Display3fmt
FNDA:0,_RNvMs8_NtNtCsfZPcC2TrjjJ_17cedar_policy_core3ast7literalNtB5_7Literal6is_ref
FNDA:0,_RNvXs0_NtNtCsfZPcC2TrjjJ_17cedar_policy_core3ast7literalNtB5_7LiteralNtNtNtCsaNl6UpbT7bw_4core3str6traits7FromStr8from_str
FNDA:148,_RNvXNtNtCsfZPcC2TrjjJ_17cedar_policy_core3ast7literalNtB2_7LiteralNtNtB4_5types15StaticallyTyped7type_of
FNDA:12606,_RNvXs1_NtNtCsfZPcC2TrjjJ_17cedar_policy_core3ast7literalNtB5_7LiteralINtNtCsaNl6UpbT7bw_4core7convert4FrombE4from
FNDA:2093,_RNvXs2_NtNtCsfZPcC2TrjjJ_17cedar_policy_core3ast7literalNtB5_7LiteralINtNtCsaNl6UpbT7bw_4core7convert4FromxE4from
FNDA:13,_RNvXs3_NtNtCsfZPcC2TrjjJ_17cedar_policy_core3ast7literalNtB5_7LiteralINtNtCsaNl6UpbT7bw_4core7convert4FromNtNtCsiTraAjBDcu4_5alloc6string6StringE4from
FNDA:669,_RNvXs4_NtNtCsfZPcC2TrjjJ_17cedar_policy_core3ast7literalNtB5_7LiteralINtNtCsaNl6UpbT7bw_4core7convert4FromReE4from
FNDA:1674,_RNvXs5_NtNtCsfZPcC2TrjjJ_17cedar_policy_core3ast7literalNtB5_7LiteralINtNtCsaNl6UpbT7bw_4core7convert4FromNtCsbIodQZzabP8_8smol_str7SmolStrE4from
FNDA:1753,_RNvXs6_NtNtCsfZPcC2TrjjJ_17cedar_policy_core3ast7literalNtB5_7LiteralINtNtCsaNl6UpbT7bw_4core7convert4FromNtNtB7_6entity9EntityUIDE4from
FNDA:6684,_RNvXs7_NtNtCsfZPcC2TrjjJ_17cedar_policy_core3ast7literalNtB5_7LiteralINtNtCsaNl6UpbT7bw_4core7convert4FromINtNtCsiTraAjBDcu4_5alloc4sync3ArcNtNtB7_6entity9EntityUIDEE4from
FNDA:17,_RNvXs_NtNtCsfZPcC2TrjjJ_17cedar_policy_core3ast7literalNtB4_7LiteralNtNtCsaNl6UpbT7bw_4core3fmt7Display3fmt
FNF:11
FNH:9
DA:48,148
DA:49,148
DA:50,20
DA:51,44
DA:52,71
DA:53,13
DA:55,148
DA:59,17
DA:60,17
DA:61,5
DA:62,3
DA:66,8
DA:67,1
DA:69,17
DA:75,0
DA:76,0
DA:77,0
DA:82,12606
DA:83,12606
DA:84,12606
DA:89,2093
DA:90,2093
DA:91,2093
DA:96,13
DA:97,13
DA:98,13
DA:103,669
DA:104,669
DA:105,669
DA:109,1674
DA:110,1674
DA:111,1674
DA:116,1753
DA:117,1753
DA:118,1753
DA:122,6684
DA:123,6684
DA:124,6684
DA:132,0
DA:133,0
DA:134,0
BRF:0
BRH:0
LF:41
LH:35
end_of_record
SF:/Users/victornl/repos/cedar-spec/cedar/cedar-policy-core/src/ast/name.rs
FN:539,_RNCNvMsh_NtNtCsfZPcC2TrjjJ_17cedar_policy_core3ast4nameNtB7_4Name17qualify_with_name0Bb_
FN:114,_RNvMs0_NtNtCsfZPcC2TrjjJ_17cedar_policy_core3ast4nameNtB5_12InternalName17type_in_namespace
FN:145,_RNvMs0_NtNtCsfZPcC2TrjjJ_17cedar_policy_core3ast4nameNtB5_12InternalName9namespace
FN:528,_RNvMsh_NtNtCsfZPcC2TrjjJ_17cedar_policy_core3ast4nameNtB5_4Name12qualify_with
FN:536,_RNvMsh_NtNtCsfZPcC2TrjjJ_17cedar_policy_core3ast4nameNtB5_4Name17qualify_with_name
FN:68,_RNvXs_NtNtCsfZPcC2TrjjJ_17cedar_policy_core3ast4nameNtNtB6_2id2IdINtNtCsaNl6UpbT7bw_4core7convert7TryFromNtB4_12InternalNameE8try_from
FN:390,_RNvXsb_NtNtCsfZPcC2TrjjJ_17cedar_policy_core3ast4nameNtB5_4NameINtNtCsaNl6UpbT7bw_4core7convert4FromNtNtB7_2id12UnreservedIdE4from
FN:397,_RNvXsc_NtNtCsfZPcC2TrjjJ_17cedar_policy_core3ast4nameNtNtB7_2id12UnreservedIdINtNtCsaNl6UpbT7bw_4core7convert7TryFromNtB5_4NameE8try_from
FN:610,_RNvXsl_NtNtCsfZPcC2TrjjJ_17cedar_policy_core3ast4nameRNtB5_4NameINtNtCsaNl6UpbT7bw_4core7convert7TryFromRNtB5_12InternalNameE8try_from
FN:198,_RNvMs0_NtNtCsfZPcC2TrjjJ_17cedar_policy_core3ast4nameNtB5_12InternalName11is_reserved
FN:167,_RNvMs0_NtNtCsfZPcC2TrjjJ_17cedar_policy_core3ast4nameNtB5_12InternalName12qualify_with
FN:192,_RNvMs0_NtNtCsfZPcC2TrjjJ_17cedar_policy_core3ast4nameNtB5_12InternalName14is_unqualified
FN:88,_RNvMs0_NtNtCsfZPcC2TrjjJ_17cedar_policy_core3ast4nameNtB5_12InternalName16unqualified_name
FN:186,_RNvMs0_NtNtCsfZPcC2TrjjJ_17cedar_policy_core3ast4nameNtB5_12InternalName17qualify_with_name
FN:135,_RNvMs0_NtNtCsfZPcC2TrjjJ_17cedar_policy_core3ast4nameNtB5_12InternalName20namespace_components
FN:104,_RNvMs0_NtNtCsfZPcC2TrjjJ_17cedar_policy_core3ast4nameNtB5_12InternalName22parse_unqualified_name
FN:125,_RNvMs0_NtNtCsfZPcC2TrjjJ_17cedar_policy_core3ast4nameNtB5_12InternalName3loc
FN:97,_RNvMs0_NtNtCsfZPcC2TrjjJ_17cedar_policy_core3ast4nameNtB5_12InternalName7___cedar
FN:130,_RNvMs0_NtNtCsfZPcC2TrjjJ_17cedar_policy_core3ast4nameNtB5_12InternalName8basename
FN:312,_RNvMs7_NtNtCsfZPcC2TrjjJ_17cedar_policy_core3ast4nameNtB5_6SlotId11is_resource
FN:307,_RNvMs7_NtNtCsfZPcC2TrjjJ_17cedar_policy_core3ast4nameNtB5_6SlotId12is_principal
FN:302,_RNvMs7_NtNtCsfZPcC2TrjjJ_17cedar_policy_core3ast4nameNtB5_6SlotId8resource
FN:297,_RNvMs7_NtNtCsfZPcC2TrjjJ_17cedar_policy_core3ast4nameNtB5_6SlotId9principal
FN:521,_RNvMsh_NtNtCsfZPcC2TrjjJ_17cedar_policy_core3ast4nameNtB5_4Name14is_unqualified
FN:506,_RNvMsh_NtNtCsfZPcC2TrjjJ_17cedar_policy_core3ast4nameNtB5_4Name15basename_as_ref
FN:499,_RNvMsh_NtNtCsfZPcC2TrjjJ_17cedar_policy_core3ast4nameNtB5_4Name16unqualified_name
FN:547,_RNvMsh_NtNtCsfZPcC2TrjjJ_17cedar_policy_core3ast4nameNtB5_4Name18parse_err_from_str
FN:493,_RNvMsh_NtNtCsfZPcC2TrjjJ_17cedar_policy_core3ast4nameNtB5_4Name22parse_unqualified_name
FN:543,_RNvMsh_NtNtCsfZPcC2TrjjJ_17cedar_policy_core3ast4nameNtB5_4Name3loc
FN:512,_RNvMsh_NtNtCsfZPcC2TrjjJ_17cedar_policy_core3ast4nameNtB5_4Name8basename
FN:580,_RNvMsi_NtNtCsfZPcC2TrjjJ_17cedar_policy_core3ast4nameNtB5_17ReservedNameError4name
FN:446,_RNvNtNtCsfZPcC2TrjjJ_17cedar_policy_core3ast4name19is_normalized_ident
FN:58,_RNvXNtNtCsfZPcC2TrjjJ_17cedar_policy_core3ast4nameNtB2_12InternalNameINtNtCsaNl6UpbT7bw_4core7convert4FromNtNtB4_2id2IdE4from
FN:207,_RNvXs1_NtNtCsfZPcC2TrjjJ_17cedar_policy_core3ast4nameNtB5_12InternalNameNtNtCsaNl6UpbT7bw_4core3fmt7Display3fmt
FN:231,_RNvXs3_NtNtCsfZPcC2TrjjJ_17cedar_policy_core3ast4nameNtB5_12InternalNameNtNtNtCsaNl6UpbT7bw_4core3str6traits7FromStr8from_str
FN:237,_RNvXs4_NtNtCsfZPcC2TrjjJ_17cedar_policy_core3ast4nameNtB5_12InternalNameNtNtB9_19from_normalized_str17FromNormalizedStr13describe_self
FN:263,_RNvXs5_NtNtCsfZPcC2TrjjJ_17cedar_policy_core3ast4nameNtB5_11NameVisitorNtNtCsl7c8xoeGAga_10serde_core2de7Visitor9expecting
FN:318,_RNvXs8_NtNtCsfZPcC2TrjjJ_17cedar_policy_core3ast4nameNtB5_6SlotIdINtNtCsaNl6UpbT7bw_4core7convert4FromNtNtB7_6policy19PrincipalOrResourceE4from
FN:327,_RNvXs9_NtNtCsfZPcC2TrjjJ_17cedar_policy_core3ast4nameNtB5_6SlotIdNtNtCsaNl6UpbT7bw_4core3fmt7Display3fmt
FN:342,_RNvXsa_NtNtCsfZPcC2TrjjJ_17cedar_policy_core3ast4nameNtB5_11ValidSlotIdNtNtCsaNl6UpbT7bw_4core3fmt7Display3fmt
FN:407,_RNvXsd_NtNtCsfZPcC2TrjjJ_17cedar_policy_core3ast4nameNtB5_4NameNtNtCsaNl6UpbT7bw_4core3fmt7Display3fmt
FN:414,_RNvXse_NtNtCsfZPcC2TrjjJ_17cedar_policy_core3ast4nameNtB5_4NameNtNtNtCsaNl6UpbT7bw_4core3str6traits7FromStr8from_str
FN:472,_RNvXsf_NtNtCsfZPcC2TrjjJ_17cedar_policy_core3ast4nameNtB5_4NameNtNtB9_19from_normalized_str17FromNormalizedStr13describe_self
FN:451,_RNvXsf_NtNtCsfZPcC2TrjjJ_17cedar_policy_core3ast4nameNtB5_4NameNtNtB9_19from_normalized_str17FromNormalizedStr19from_normalized_str
FN:599,_RNvXsk_NtNtCsfZPcC2TrjjJ_17cedar_policy_core3ast4nameNtB5_4NameINtNtCsaNl6UpbT7bw_4core7convert7TryFromNtB5_12InternalNameE8try_from
FN:620,_RNvXsm_NtNtCsfZPcC2TrjjJ_17cedar_policy_core3ast4nameNtB5_12InternalNameINtNtCsaNl6UpbT7bw_4core7convert4FromNtB5_4NameE4from
FN:626,_RNvXsn_NtNtCsfZPcC2TrjjJ_17cedar_policy_core3ast4nameNtB5_4NameINtNtCsaNl6UpbT7bw_4core7convert5AsRefNtB5_12InternalNameE6as_ref
FN:79,_RINvMs0_NtNtCsfZPcC2TrjjJ_17cedar_policy_core3ast4nameNtB6_12InternalName3newINtNtCsiTraAjBDcu4_5alloc3vec3VecNtNtB8_2id2IdEEBa_
FN:79,_RINvMs0_NtNtCsfZPcC2TrjjJ_17cedar_policy_core3ast4nameNtB6_12InternalName3newINtNtNtNtCsaNl6UpbT7bw_4core4iter8adapters3map3MapINtNtNtB1m_5slice4iter4IterReENCNvXsf_B6_NtB6_4NameNtNtBa_19from_normalized_str17FromNormalizedStr19from_normalized_strs_0EEBa_
FN:79,_RINvMs0_NtNtCsfZPcC2TrjjJ_17cedar_policy_core3ast4nameNtB6_12InternalName3newINtNtNtNtCsaNl6UpbT7bw_4core4iter8adapters6cloned6ClonedINtNtB1i_5chain5ChainINtNtNtB1m_5slice4iter4IterNtNtB8_2id2IdEINtNtNtB1k_7sources4once4OnceRB2T_EEEEBa_
FN:219,_RINvXs2_NtNtCsfZPcC2TrjjJ_17cedar_policy_core3ast4nameNtB6_12InternalNameNtNtCsl7c8xoeGAga_10serde_core3ser9Serialize9serializeNtNtNtCseVfDaXV4ykk_10serde_json5value3ser10SerializerEBa_
FN:219,_RINvXs2_NtNtCsfZPcC2TrjjJ_17cedar_policy_core3ast4nameNtB6_12InternalNameNtNtCsl7c8xoeGAga_10serde_core3ser9Serialize9serializeQINtNtCseVfDaXV4ykk_10serde_json3ser10SerializerQINtNtCsiTraAjBDcu4_5alloc3vec3VechEEEBa_
FN:267,_RINvXs5_NtNtCsfZPcC2TrjjJ_17cedar_policy_core3ast4nameNtB6_11NameVisitorNtNtCsl7c8xoeGAga_10serde_core2de7Visitor9visit_strNtNtCseVfDaXV4ykk_10serde_json5error5ErrorEBa_
FN:279,_RINvXs6_NtNtCsfZPcC2TrjjJ_17cedar_policy_core3ast4nameNtB6_12InternalNameNtNtCsl7c8xoeGAga_10serde_core2de11Deserialize11deserializeNtNtCseVfDaXV4ykk_10serde_json5value5ValueEBa_
FN:279,_RINvXs6_NtNtCsfZPcC2TrjjJ_17cedar_policy_core3ast4nameNtB6_12InternalNameNtNtCsl7c8xoeGAga_10serde_core2de11Deserialize11deserializeQINtNtCseVfDaXV4ykk_10serde_json2de12DeserializerNtNtB2c_4read7StrReadEEBa_
FN:480,_RINvXsg_NtNtCsfZPcC2TrjjJ_17cedar_policy_core3ast4nameNtB6_4NameNtNtCsl7c8xoeGAga_10serde_core2de11Deserialize11deserializeQINtNtCseVfDaXV4ykk_10serde_json2de12DeserializerNtNtB23_4read7StrReadEEBa_
FN:272,_RNCINvXs5_NtNtCsfZPcC2TrjjJ_17cedar_policy_core3ast4nameNtB8_11NameVisitorNtNtCsl7c8xoeGAga_10serde_core2de7Visitor9visit_strNtNtCseVfDaXV4ykk_10serde_json5error5ErrorE0Bc_
FN:486,_RNCINvXsg_NtNtCsfZPcC2TrjjJ_17cedar_policy_core3ast4nameNtB8_4NameNtNtCsl7c8xoeGAga_10serde_core2de11Deserialize11deserializeQINtNtCseVfDaXV4ykk_10serde_json2de12DeserializerNtNtB25_4read7StrReadEE0Bc_
FN:202,_RNCNvMs0_NtNtCsfZPcC2TrjjJ_17cedar_policy_core3ast4nameNtB7_12InternalName11is_reserved0Bb_
FN:556,_RNCNvMsh_NtNtCsfZPcC2TrjjJ_17cedar_policy_core3ast4nameNtB7_4Name18parse_err_from_str0Bb_
FN:558,_RNCNvMsh_NtNtCsfZPcC2TrjjJ_17cedar_policy_core3ast4nameNtB7_4Name18parse_err_from_strs0_0Bb_
FN:495,_RNCNvMsh_NtNtCsfZPcC2TrjjJ_17cedar_policy_core3ast4nameNtB7_4Name22parse_unqualified_name0Bb_
FN:431,_RNCNvNtNtCsfZPcC2TrjjJ_17cedar_policy_core3ast4name12RESERVED_IDS0B7_
FN:425,_RNCNvNtNtCsfZPcC2TrjjJ_17cedar_policy_core3ast4name16VALID_NAME_REGEX0B7_
FN:422,_RNCNvNtNtCsfZPcC2TrjjJ_17cedar_policy_core3ast4name21VALID_ANY_IDENT_REGEX0B7_
FN:457,_RNCNvXsf_NtNtCsfZPcC2TrjjJ_17cedar_policy_core3ast4nameNtB7_4NameNtNtBb_19from_normalized_str17FromNormalizedStr19from_normalized_str0Bb_
FN:464,_RNCNvXsf_NtNtCsfZPcC2TrjjJ_17cedar_policy_core3ast4nameNtB7_4NameNtNtBb_19from_normalized_str17FromNormalizedStr19from_normalized_strs_0Bb_
FN:589,_RNCNvXsj_NtNtCsfZPcC2TrjjJ_17cedar_policy_core3ast4nameNtNtNtBb_6parser3err10ParseErrorINtNtCsaNl6UpbT7bw_4core7convert4FromNtB7_17ReservedNameErrorE4from0Bb_
FN:586,_RNvXsj_NtNtCsfZPcC2TrjjJ_17cedar_policy_core3ast4nameNtNtNtB9_6parser3err10ParseErrorINtNtCsaNl6UpbT7bw_4core7convert4FromNtB5_17ReservedNameErrorE4from
FN:671,_RNvNtNtNtCsfZPcC2TrjjJ_17cedar_policy_core3ast4name4tests_12qualify_with
FN:710,_RNvNtNtNtCsfZPcC2TrjjJ_17cedar_policy_core3ast4name4tests_13test_reserved
FN:660,_RNvNtNtNtCsfZPcC2TrjjJ_17cedar_policy_core3ast4name4tests_15normalized_name
FN:727,_RNvNtNtNtCsfZPcC2TrjjJ_17cedar_policy_core3ast4name4tests_33test_name_identifier_intersection
FN:368,_RNvNtNtNtCsfZPcC2TrjjJ_17cedar_policy_core3ast4name9vars_tests_12vars_correct
FN:374,_RNvNtNtNtCsfZPcC2TrjjJ_17cedar_policy_core3ast4name9vars_tests_7display
FNDA:0,_RNCNvMsh_NtNtCsfZPcC2TrjjJ_17cedar_policy_core3ast4nameNtB7_4Name17qualify_with_name0Bb_
FNDA:0,_RNvMs0_NtNtCsfZPcC2TrjjJ_17cedar_policy_core3ast4nameNtB5_12InternalName17type_in_namespace
FNDA:0,_RNvMs0_NtNtCsfZPcC2TrjjJ_17cedar_policy_core3ast4nameNtB5_12InternalName9namespace
FNDA:0,_RNvMsh_NtNtCsfZPcC2TrjjJ_17cedar_policy_core3ast4nameNtB5_4Name12qualify_with
FNDA:0,_RNvMsh_NtNtCsfZPcC2TrjjJ_17cedar_policy_core3ast4nameNtB5_4Name17qualify_with_name
FNDA:0,_RNvXs_NtNtCsfZPcC2TrjjJ_17cedar_policy_core3ast4nameNtNtB6_2id2IdINtNtCsaNl6UpbT7bw_4core7convert7TryFromNtB4_12InternalNameE8try_from
FNDA:0,_RNvXsb_NtNtCsfZPcC2TrjjJ_17cedar_policy_core3ast4nameNtB5_4NameINtNtCsaNl6UpbT7bw_4core7convert4FromNtNtB7_2id12UnreservedIdE4from
FNDA:0,_RNvXsc_NtNtCsfZPcC2TrjjJ_17cedar_policy_core3ast4nameNtNtB7_2id12UnreservedIdINtNtCsaNl6UpbT7bw_4core7convert7TryFromNtB5_4NameE8try_from
FNDA:0,_RNvXsl_NtNtCsfZPcC2TrjjJ_17cedar_policy_core3ast4nameRNtB5_4NameINtNtCsaNl6UpbT7bw_4core7convert7TryFromRNtB5_12InternalNameE8try_from
FNDA:22165,_RNvMs0_NtNtCsfZPcC2TrjjJ_17cedar_policy_core3ast4nameNtB5_12InternalName11is_reserved
FNDA:29550,_RNvMs0_NtNtCsfZPcC2TrjjJ_17cedar_policy_core3ast4nameNtB5_12InternalName12qualify_with
FNDA:80773,_RNvMs0_NtNtCsfZPcC2TrjjJ_17cedar_policy_core3ast4nameNtB5_12InternalName14is_unqualified
FNDA:32412,_RNvMs0_NtNtCsfZPcC2TrjjJ_17cedar_policy_core3ast4nameNtB5_12InternalName16unqualified_name
FNDA:9,_RNvMs0_NtNtCsfZPcC2TrjjJ_17cedar_policy_core3ast4nameNtB5_12InternalName17qualify_with_name
FNDA:15657,_RNvMs0_NtNtCsfZPcC2TrjjJ_17cedar_policy_core3ast4nameNtB5_12InternalName20namespace_components
FNDA:2090,_RNvMs0_NtNtCsfZPcC2TrjjJ_17cedar_policy_core3ast4nameNtB5_12InternalName22parse_unqualified_name
FNDA:3570,_RNvMs0_NtNtCsfZPcC2TrjjJ_17cedar_policy_core3ast4nameNtB5_12InternalName3loc
FNDA:7535,_RNvMs0_NtNtCsfZPcC2TrjjJ_17cedar_policy_core3ast4nameNtB5_12InternalName7___cedar
FNDA:55672,_RNvMs0_NtNtCsfZPcC2TrjjJ_17cedar_policy_core3ast4nameNtB5_12InternalName8basename
FNDA:71,_RNvMs7_NtNtCsfZPcC2TrjjJ_17cedar_policy_core3ast4nameNtB5_6SlotId11is_resource
FNDA:130,_RNvMs7_NtNtCsfZPcC2TrjjJ_17cedar_policy_core3ast4nameNtB5_6SlotId12is_principal
FNDA:3686,_RNvMs7_NtNtCsfZPcC2TrjjJ_17cedar_policy_core3ast4nameNtB5_6SlotId8resource
FNDA:3759,_RNvMs7_NtNtCsfZPcC2TrjjJ_17cedar_policy_core3ast4nameNtB5_6SlotId9principal
FNDA:18581,_RNvMsh_NtNtCsfZPcC2TrjjJ_17cedar_policy_core3ast4nameNtB5_4Name14is_unqualified
FNDA:6368,_RNvMsh_NtNtCsfZPcC2TrjjJ_17cedar_policy_core3ast4nameNtB5_4Name15basename_as_ref
FNDA:9425,_RNvMsh_NtNtCsfZPcC2TrjjJ_17cedar_policy_core3ast4nameNtB5_4Name16unqualified_name
FNDA:25,_RNvMsh_NtNtCsfZPcC2TrjjJ_17cedar_policy_core3ast4nameNtB5_4Name18parse_err_from_str
FNDA:2085,_RNvMsh_NtNtCsfZPcC2TrjjJ_17cedar_policy_core3ast4nameNtB5_4Name22parse_unqualified_name
FNDA:6,_RNvMsh_NtNtCsfZPcC2TrjjJ_17cedar_policy_core3ast4nameNtB5_4Name3loc
FNDA:14670,_RNvMsh_NtNtCsfZPcC2TrjjJ_17cedar_policy_core3ast4nameNtB5_4Name8basename
FNDA:5,_RNvMsi_NtNtCsfZPcC2TrjjJ_17cedar_policy_core3ast4nameNtB5_17ReservedNameError4name
FNDA:1549,_RNvNtNtCsfZPcC2TrjjJ_17cedar_policy_core3ast4name19is_normalized_ident
FNDA:1,_RNvXNtNtCsfZPcC2TrjjJ_17cedar_policy_core3ast4nameNtB2_12InternalNameINtNtCsaNl6UpbT7bw_4core7convert4FromNtNtB4_2id2IdE4from
FNDA:4726,_RNvXs1_NtNtCsfZPcC2TrjjJ_17cedar_policy_core3ast4nameNtB5_12InternalNameNtNtCsaNl6UpbT7bw_4core3fmt7Display3fmt
FNDA:5068,_RNvXs3_NtNtCsfZPcC2TrjjJ_17cedar_policy_core3ast4nameNtB5_12InternalNameNtNtNtCsaNl6UpbT7bw_4core3str6traits7FromStr8from_str
FNDA:4,_RNvXs4_NtNtCsfZPcC2TrjjJ_17cedar_policy_core3ast4nameNtB5_12InternalNameNtNtB9_19from_normalized_str17FromNormalizedStr13describe_self
FNDA:0,_RNvXs5_NtNtCsfZPcC2TrjjJ_17cedar_policy_core3ast4nameNtB5_11NameVisitorNtNtCsl7c8xoeGAga_10serde_core2de7Visitor9expecting
FNDA:5003,_RNvXs8_NtNtCsfZPcC2TrjjJ_17cedar_policy_core3ast4nameNtB5_6SlotIdINtNtCsaNl6UpbT7bw_4core7convert4FromNtNtB7_6policy19PrincipalOrResourceE4from
FNDA:266,_RNvXs9_NtNtCsfZPcC2TrjjJ_17cedar_policy_core3ast4nameNtB5_6SlotIdNtNtCsaNl6UpbT7bw_4core3fmt7Display3fmt
FNDA:266,_RNvXsa_NtNtCsfZPcC2TrjjJ_17cedar_policy_core3ast4nameNtB5_11ValidSlotIdNtNtCsaNl6UpbT7bw_4core3fmt7Display3fmt
FNDA:1806,_RNvXsd_NtNtCsfZPcC2TrjjJ_17cedar_policy_core3ast4nameNtB5_4NameNtNtCsaNl6UpbT7bw_4core3fmt7Display3fmt
FNDA:998,_RNvXse_NtNtCsfZPcC2TrjjJ_17cedar_policy_core3ast4nameNtB5_4NameNtNtNtCsaNl6UpbT7bw_4core3str6traits7FromStr8from_str
FNDA:1,_RNvXsf_NtNtCsfZPcC2TrjjJ_17cedar_policy_core3ast4nameNtB5_4NameNtNtB9_19from_normalized_str17FromNormalizedStr13describe_self
FNDA:945,_RNvXsf_NtNtCsfZPcC2TrjjJ_17cedar_policy_core3ast4nameNtB5_4NameNtNtB9_19from_normalized_str17FromNormalizedStr19from_normalized_str
FNDA:13237,_RNvXsk_NtNtCsfZPcC2TrjjJ_17cedar_policy_core3ast4nameNtB5_4NameINtNtCsaNl6UpbT7bw_4core7convert7TryFromNtB5_12InternalNameE8try_from
FNDA:7032,_RNvXsm_NtNtCsfZPcC2TrjjJ_17cedar_policy_core3ast4nameNtB5_12InternalNameINtNtCsaNl6UpbT7bw_4core7convert4FromNtB5_4NameE4from
FNDA:43777,_RNvXsn_NtNtCsfZPcC2TrjjJ_17cedar_policy_core3ast4nameNtB5_4NameINtNtCsaNl6UpbT7bw_4core7convert5AsRefNtB5_12InternalNameE6as_ref
FNDA:2131,_RINvMs0_NtNtCsfZPcC2TrjjJ_17cedar_policy_core3ast4nameNtB6_12InternalName3newINtNtCsiTraAjBDcu4_5alloc3vec3VecNtNtB8_2id2IdEEBa_
FNDA:920,_RINvMs0_NtNtCsfZPcC2TrjjJ_17cedar_policy_core3ast4nameNtB6_12InternalName3newINtNtNtNtCsaNl6UpbT7bw_4core4iter8adapters3map3MapINtNtNtB1m_5slice4iter4IterReENCNvXsf_B6_NtB6_4NameNtNtBa_19from_normalized_str17FromNormalizedStr19from_normalized_strs_0EEBa_
FNDA:15640,_RINvMs0_NtNtCsfZPcC2TrjjJ_17cedar_policy_core3ast4nameNtB6_12InternalName3newINtNtNtNtCsaNl6UpbT7bw_4core4iter8adapters6cloned6ClonedINtNtB1i_5chain5ChainINtNtNtB1m_5slice4iter4IterNtNtB8_2id2IdEINtNtNtB1k_7sources4once4OnceRB2T_EEEEBa_
FNDA:27,_RINvXs2_NtNtCsfZPcC2TrjjJ_17cedar_policy_core3ast4nameNtB6_12InternalNameNtNtCsl7c8xoeGAga_10serde_core3ser9Serialize9serializeNtNtNtCseVfDaXV4ykk_10serde_json5value3ser10SerializerEBa_
FNDA:1,_RINvXs2_NtNtCsfZPcC2TrjjJ_17cedar_policy_core3ast4nameNtB6_12InternalNameNtNtCsl7c8xoeGAga_10serde_core3ser9Serialize9serializeQINtNtCseVfDaXV4ykk_10serde_json3ser10SerializerQINtNtCsiTraAjBDcu4_5alloc3vec3VechEEEBa_
FNDA:1444,_RINvXs5_NtNtCsfZPcC2TrjjJ_17cedar_policy_core3ast4nameNtB6_11NameVisitorNtNtCsl7c8xoeGAga_10serde_core2de7Visitor9visit_strNtNtCseVfDaXV4ykk_10serde_json5error5ErrorEBa_
FNDA:1296,_RINvXs6_NtNtCsfZPcC2TrjjJ_17cedar_policy_core3ast4nameNtB6_12InternalNameNtNtCsl7c8xoeGAga_10serde_core2de11Deserialize11deserializeNtNtCseVfDaXV4ykk_10serde_json5value5ValueEBa_
FNDA:147,_RINvXs6_NtNtCsfZPcC2TrjjJ_17cedar_policy_core3ast4nameNtB6_12InternalNameNtNtCsl7c8xoeGAga_10serde_core2de11Deserialize11deserializeQINtNtCseVfDaXV4ykk_10serde_json2de12DeserializerNtNtB2c_4read7StrReadEEBa_
FNDA:1,_RINvXsg_NtNtCsfZPcC2TrjjJ_17cedar_policy_core3ast4nameNtB6_4NameNtNtCsl7c8xoeGAga_10serde_core2de11Deserialize11deserializeQINtNtCseVfDaXV4ykk_10serde_json2de12DeserializerNtNtB23_4read7StrReadEEBa_
FNDA:12,_RNCINvXs5_NtNtCsfZPcC2TrjjJ_17cedar_policy_core3ast4nameNtB8_11NameVisitorNtNtCsl7c8xoeGAga_10serde_core2de7Visitor9visit_strNtNtCseVfDaXV4ykk_10serde_json5error5ErrorE0Bc_
FNDA:1,_RNCINvXsg_NtNtCsfZPcC2TrjjJ_17cedar_policy_core3ast4nameNtB8_4NameNtNtCsl7c8xoeGAga_10serde_core2de11Deserialize11deserializeQINtNtCseVfDaXV4ykk_10serde_json2de12DeserializerNtNtB25_4read7StrReadEE0Bc_
FNDA:25381,_RNCNvMs0_NtNtCsfZPcC2TrjjJ_17cedar_policy_core3ast4nameNtB7_12InternalName11is_reserved0Bb_
FNDA:4,_RNCNvMsh_NtNtCsfZPcC2TrjjJ_17cedar_policy_core3ast4nameNtB7_4Name18parse_err_from_str0Bb_
FNDA:0,_RNCNvMsh_NtNtCsfZPcC2TrjjJ_17cedar_policy_core3ast4nameNtB7_4Name18parse_err_from_strs0_0Bb_
FNDA:2085,_RNCNvMsh_NtNtCsfZPcC2TrjjJ_17cedar_policy_core3ast4nameNtB7_4Name22parse_unqualified_name0Bb_
FNDA:1,_RNCNvNtNtCsfZPcC2TrjjJ_17cedar_policy_core3ast4name12RESERVED_IDS0B7_
FNDA:1,_RNCNvNtNtCsfZPcC2TrjjJ_17cedar_policy_core3ast4name16VALID_NAME_REGEX0B7_
FNDA:1,_RNCNvNtNtCsfZPcC2TrjjJ_17cedar_policy_core3ast4name21VALID_ANY_IDENT_REGEX0B7_
FNDA:1049,_RNCNvXsf_NtNtCsfZPcC2TrjjJ_17cedar_policy_core3ast4nameNtB7_4NameNtNtBb_19from_normalized_str17FromNormalizedStr19from_normalized_str0Bb_
FNDA:101,_RNCNvXsf_NtNtCsfZPcC2TrjjJ_17cedar_policy_core3ast4nameNtB7_4NameNtNtBb_19from_normalized_str17FromNormalizedStr19from_normalized_strs_0Bb_
FNDA:0,_RNCNvXsj_NtNtCsfZPcC2TrjjJ_17cedar_policy_core3ast4nameNtNtNtBb_6parser3err10ParseErrorINtNtCsaNl6UpbT7bw_4core7convert4FromNtB7_17ReservedNameErrorE4from0Bb_
FNDA:16,_RNvXsj_NtNtCsfZPcC2TrjjJ_17cedar_policy_core3ast4nameNtNtNtB9_6parser3err10ParseErrorINtNtCsaNl6UpbT7bw_4core7convert4FromNtB5_17ReservedNameErrorE4from
FNDA:1,_RNvNtNtNtCsfZPcC2TrjjJ_17cedar_policy_core3ast4name4tests_12qualify_with
FNDA:1,_RNvNtNtNtCsfZPcC2TrjjJ_17cedar_policy_core3ast4name4tests_13test_reserved
FNDA:1,_RNvNtNtNtCsfZPcC2TrjjJ_17cedar_policy_core3ast4name4tests_15normalized_name
FNDA:1,_RNvNtNtNtCsfZPcC2TrjjJ_17cedar_policy_core3ast4name4tests_33test_name_identifier_intersection
FNDA:1,_RNvNtNtNtCsfZPcC2TrjjJ_17cedar_policy_core3ast4name9vars_tests_12vars_correct
FNDA:1,_RNvNtNtNtCsfZPcC2TrjjJ_17cedar_policy_core3ast4name9vars_tests_7display
FNF:71
FNH:59
DA:58,1
DA:59,1
DA:60,1
DA:68,0
DA:69,0
DA:70,0
DA:72,0
DA:74,0
DA:79,18691
DA:80,18691
DA:81,18691
DA:82,18691
DA:83,18691
DA:84,18691
DA:85,18691
DA:88,32412
DA:89,32412
DA:90,32412
DA:91,32412
DA:92,32412
DA:93,32412
DA:94,32412
DA:97,7535
DA:99,7535
DA:100,7535
DA:104,2090
DA:106,2090
DA:107,2090
DA:108,2090
DA:110,2090
DA:114,0
DA:115,0
DA:116,0
DA:117,0
DA:118,0
DA:119,0
DA:120,0
DA:121,0
DA:122,0
DA:125,3570
DA:126,3570
DA:127,3570
DA:130,55672
DA:131,55672
DA:132,55672
DA:135,15657
DA:136,15657
DA:137,15657
DA:145,0
DA:146,0
DA:147,0
DA:167,29550
DA:168,29550
DA:169,29151
DA:170,15640
DA:171,15640
DA:172,15640
DA:173,15640
DA:174,15640
DA:175,15640
DA:176,15640
DA:178,13511
DA:181,399
DA:183,29550
DA:186,9
DA:187,9
DA:188,9
DA:189,9
DA:192,80773
DA:193,80773
DA:194,80773
DA:198,22165
DA:199,22165
DA:200,22165
DA:201,22165
DA:202,25381
DA:203,22165
DA:207,4726
DA:208,4726
DA:209,463
DA:211,4726
DA:212,4726
DA:213,4726
DA:219,28
DA:220,28
DA:221,28
DA:223,28
DA:224,28
DA:231,5068
DA:232,5068
DA:233,5068
DA:237,4
DA:238,4
DA:239,4
DA:263,0
DA:264,0
DA:265,0
DA:267,1444
DA:268,1444
DA:269,1444
DA:271,1444
DA:272,1444
DA:273,1444
DA:279,1443
DA:280,1443
DA:281,1443
DA:283,1443
DA:284,1443
DA:297,3759
DA:298,3759
DA:299,3759
DA:302,3686
DA:303,3686
DA:304,3686
DA:307,130
DA:308,130
DA:309,130
DA:312,71
DA:313,71
DA:314,71
DA:318,5003
DA:319,5003
DA:320,2535
DA:321,2468
DA:323,5003
DA:327,266
DA:328,266
DA:329,266
DA:342,266
DA:343,266
DA:344,125
DA:345,141
DA:347,266
DA:348,266
DA:368,1
DA:369,1
DA:370,1
DA:371,1
DA:374,1
DA:375,1
DA:376,1
DA:390,0
DA:391,0
DA:392,0
DA:397,0
DA:398,0
DA:399,0
DA:401,0
DA:403,0
DA:407,1806
DA:408,1806
DA:409,1806
DA:414,998
DA:415,998
DA:416,983
DA:417,998
DA:422,1
DA:425,1
DA:426,1
DA:427,1
DA:431,1
DA:432,1
DA:433,1
DA:435,1
DA:437,1
DA:438,1
DA:439,1
DA:446,1549
DA:447,1549
DA:448,1549
DA:451,945
DA:452,945
DA:453,7
DA:454,938
DA:456,938
DA:457,1049
DA:458,18
DA:459,920
DA:461,920
DA:462,920
DA:463,920
DA:464,920
DA:465,920
DA:468,0
DA:470,945
DA:472,1
DA:473,1
DA:474,1
DA:480,1
DA:481,1
DA:482,1
DA:484,1
DA:485,1
DA:486,1
DA:487,1
DA:493,2085
DA:494,2085
DA:495,2085
DA:496,2085
DA:499,9425
DA:501,9425
DA:502,9425
DA:506,6368
DA:507,6368
DA:508,6368
DA:512,14670
DA:517,14670
DA:518,14670
DA:521,18581
DA:522,18581
DA:523,18581
DA:528,0
DA:529,0
DA:530,0
DA:536,0
DA:539,0
DA:540,0
DA:543,6
DA:544,6
DA:545,6
DA:547,25
DA:548,25
DA:549,24
DA:550,1
DA:551,1
DA:552,1
DA:553,1
DA:554,1
DA:555,1
DA:556,4
DA:557,1
DA:558,1
DA:560,1
DA:561,1
DA:562,1
DA:563,1
DA:564,1
DA:565,1
DA:566,1
DA:567,1
DA:570,25
DA:580,5
DA:581,5
DA:582,5
DA:586,16
DA:587,16
DA:588,16
DA:589,16
DA:590,0
DA:591,0
DA:592,0
DA:594,16
DA:599,13237
DA:600,13237
DA:601,20
DA:603,13217
DA:605,13237
DA:610,0
DA:611,0
DA:612,0
DA:614,0
DA:616,0
DA:620,7032
DA:621,7032
DA:622,7032
DA:626,43777
DA:627,43777
DA:628,43777
DA:660,1
DA:661,1
DA:662,1
DA:663,1
DA:664,1
DA:665,1
DA:666,1
DA:667,1
DA:668,1
DA:671,1
DA:672,1
DA:674,1
DA:675,1
DA:676,1
DA:677,1
DA:679,1
DA:681,1
DA:682,1
DA:683,1
DA:684,1
DA:686,1
DA:688,1
DA:689,1
DA:690,1
DA:691,1
DA:693,1
DA:695,1
DA:696,1
DA:697,1
DA:698,1
DA:700,1
DA:702,1
DA:703,1
DA:704,1
DA:705,1
DA:707,1
DA:710,1
DA:711,5
DA:713,1
DA:714,1
DA:715,1
DA:716,1
DA:718,5
DA:721,3
DA:722,3
DA:724,1
DA:727,1
DA:728,1
DA:729,1
DA:730,1
DA:731,1
DA:732,1
DA:733,1
DA:734,1
DA:735,1
DA:736,1
DA:737,1
DA:739,9
DA:740,8
DA:741,8
DA:743,10
DA:744,10
DA:745,10
DA:746,1
BRF:0
BRH:0
LF:342
LH:296
end_of_record
SF:/Users/victornl/repos/cedar-spec/cedar/cedar-policy-core/src/ast/ops.rs
FN:36,_RNvXNtNtCsfZPcC2TrjjJ_17cedar_policy_core3ast3opsNtB2_7UnaryOpNtNtCsaNl6UpbT7bw_4core3fmt7Display3fmt
FN:116,_RNvXs_NtNtCsfZPcC2TrjjJ_17cedar_policy_core3ast3opsNtB4_8BinaryOpNtNtCsaNl6UpbT7bw_4core3fmt7Display3fmt
FNDA:9,_RNvXNtNtCsfZPcC2TrjjJ_17cedar_policy_core3ast3opsNtB2_7UnaryOpNtNtCsaNl6UpbT7bw_4core3fmt7Display3fmt
FNDA:30,_RNvXs_NtNtCsfZPcC2TrjjJ_17cedar_policy_core3ast3opsNtB4_8BinaryOpNtNtCsaNl6UpbT7bw_4core3fmt7Display3fmt
FNF:2
FNH:2
DA:36,9
DA:37,9
DA:38,4
DA:39,3
DA:40,2
DA:42,9
DA:116,30
DA:117,30
DA:118,4
DA:119,3
DA:120,3
DA:121,3
DA:122,2
DA:123,2
DA:124,3
DA:125,2
DA:126,2
DA:127,2
DA:128,2
DA:129,2
DA:131,30
BRF:0
BRH:0
LF:21
LH:21
end_of_record
SF:/Users/victornl/repos/cedar-spec/cedar/cedar-policy-core/src/ast/partial_value.rs
FN:85,_RNvXs1_NtNtCsfZPcC2TrjjJ_17cedar_policy_core3ast13partial_valueNtNtB7_5value5ValueINtNtCsaNl6UpbT7bw_4core7convert7TryFromNtB5_12PartialValueE8try_from
FN:94,_RNvXs2_NtNtCsfZPcC2TrjjJ_17cedar_policy_core3ast13partial_valueNtB5_12PartialValueNtNtCsaNl6UpbT7bw_4core3fmt7Display3fmt
FN:152,_RNvNtNtNtCsfZPcC2TrjjJ_17cedar_policy_core3ast13partial_value4tests_12split_values
FN:166,_RNvNtNtNtCsfZPcC2TrjjJ_17cedar_policy_core3ast13partial_value4tests_15split_residuals
FN:183,_RNvNtNtNtCsfZPcC2TrjjJ_17cedar_policy_core3ast13partial_value4tests_16split_residuals2
FN:200,_RNvNtNtNtCsfZPcC2TrjjJ_17cedar_policy_core3ast13partial_value4tests_16split_residuals3
FN:115,_RINvNtNtCsfZPcC2TrjjJ_17cedar_policy_core3ast13partial_value5splitANtB2_12PartialValuej2_EB6_
FN:115,_RINvNtNtCsfZPcC2TrjjJ_17cedar_policy_core3ast13partial_value5splitANtB2_12PartialValuej4_EB6_
FN:115,_RINvNtNtCsfZPcC2TrjjJ_17cedar_policy_core3ast13partial_value5splitINtNtCsiTraAjBDcu4_5alloc3vec3VecNtB2_12PartialValueEEB6_
FN:103,_RINvXs3_NtNtCsfZPcC2TrjjJ_17cedar_policy_core3ast13partial_valueNtB6_12PartialValueNtNtB8_5value14BoundedDisplay3fmtNtNtCsiTraAjBDcu4_5alloc6string6StringEBa_
FN:140,_RNCINvNtNtCsfZPcC2TrjjJ_17cedar_policy_core3ast13partial_value5splitANtB4_12PartialValuej2_E0B8_
FN:140,_RNCINvNtNtCsfZPcC2TrjjJ_17cedar_policy_core3ast13partial_value5splitANtB4_12PartialValuej4_E0B8_
FN:140,_RNCINvNtNtCsfZPcC2TrjjJ_17cedar_policy_core3ast13partial_value5splitINtNtCsiTraAjBDcu4_5alloc3vec3VecNtB4_12PartialValueEE0B8_
FN:49,_RNvXs_NtNtCsfZPcC2TrjjJ_17cedar_policy_core3ast13partial_valueNtB4_12PartialValueINtNtCsaNl6UpbT7bw_4core7convert4FromINtNtCsiTraAjBDcu4_5alloc3vec3VecNtNtB6_5value5ValueEE4fromB8_
FN:49,_RNvXs_NtNtCsfZPcC2TrjjJ_17cedar_policy_core3ast13partial_valueNtB4_12PartialValueINtNtCsaNl6UpbT7bw_4core7convert4FromNtNtB6_5value5ValueE4fromB8_
FN:49,_RNvXs_NtNtCsfZPcC2TrjjJ_17cedar_policy_core3ast13partial_valueNtB4_12PartialValueINtNtCsaNl6UpbT7bw_4core7convert4FromNtNtB6_6entity9EntityUIDE4fromB8_
FN:49,_RNvXs_NtNtCsfZPcC2TrjjJ_17cedar_policy_core3ast13partial_valueNtB4_12PartialValueINtNtCsaNl6UpbT7bw_4core7convert4FromNtNtB6_7literal7LiteralE4fromB8_
FN:49,_RNvXs_NtNtCsfZPcC2TrjjJ_17cedar_policy_core3ast13partial_valueNtB4_12PartialValueINtNtCsaNl6UpbT7bw_4core7convert4FromReE4fromB8_
FN:49,_RNvXs_NtNtCsfZPcC2TrjjJ_17cedar_policy_core3ast13partial_valueNtB4_12PartialValueINtNtCsaNl6UpbT7bw_4core7convert4FrombE4fromB8_
FN:49,_RNvXs_NtNtCsfZPcC2TrjjJ_17cedar_policy_core3ast13partial_valueNtB4_12PartialValueINtNtCsaNl6UpbT7bw_4core7convert4FromxE4fromB8_
FN:40,_RNvMNtNtCsfZPcC2TrjjJ_17cedar_policy_core3ast13partial_valueNtB2_12PartialValue21with_maybe_source_loc
FN:35,_RNvMNtNtCsfZPcC2TrjjJ_17cedar_policy_core3ast13partial_valueNtB2_12PartialValue7unknown
FN:55,_RNvXs0_NtNtCsfZPcC2TrjjJ_17cedar_policy_core3ast13partial_valueNtB5_12PartialValueINtNtCsaNl6UpbT7bw_4core7convert4FromNtNtB7_4expr4ExprE4from
FNDA:0,_RNvXs1_NtNtCsfZPcC2TrjjJ_17cedar_policy_core3ast13partial_valueNtNtB7_5value5ValueINtNtCsaNl6UpbT7bw_4core7convert7TryFromNtB5_12PartialValueE8try_from
FNDA:0,_RNvXs2_NtNtCsfZPcC2TrjjJ_17cedar_policy_core3ast13partial_valueNtB5_12PartialValueNtNtCsaNl6UpbT7bw_4core3fmt7Display3fmt
FNDA:1,_RNvNtNtNtCsfZPcC2TrjjJ_17cedar_policy_core3ast13partial_value4tests_12split_values
FNDA:1,_RNvNtNtNtCsfZPcC2TrjjJ_17cedar_policy_core3ast13partial_value4tests_15split_residuals
FNDA:1,_RNvNtNtNtCsfZPcC2TrjjJ_17cedar_policy_core3ast13partial_value4tests_16split_residuals2
FNDA:1,_RNvNtNtNtCsfZPcC2TrjjJ_17cedar_policy_core3ast13partial_value4tests_16split_residuals3
FNDA:1,_RINvNtNtCsfZPcC2TrjjJ_17cedar_policy_core3ast13partial_value5splitANtB2_12PartialValuej2_EB6_
FNDA:3,_RINvNtNtCsfZPcC2TrjjJ_17cedar_policy_core3ast13partial_value5splitANtB2_12PartialValuej4_EB6_
FNDA:1120,_RINvNtNtCsfZPcC2TrjjJ_17cedar_policy_core3ast13partial_value5splitINtNtCsiTraAjBDcu4_5alloc3vec3VecNtB2_12PartialValueEEB6_
FNDA:5,_RINvXs3_NtNtCsfZPcC2TrjjJ_17cedar_policy_core3ast13partial_valueNtB6_12PartialValueNtNtB8_5value14BoundedDisplay3fmtNtNtCsiTraAjBDcu4_5alloc6string6StringEBa_
FNDA:0,_RNCINvNtNtCsfZPcC2TrjjJ_17cedar_policy_core3ast13partial_value5splitANtB4_12PartialValuej2_E0B8_
FNDA:3,_RNCINvNtNtCsfZPcC2TrjjJ_17cedar_policy_core3ast13partial_value5splitANtB4_12PartialValuej4_E0B8_
FNDA:6,_RNCINvNtNtCsfZPcC2TrjjJ_17cedar_policy_core3ast13partial_value5splitINtNtCsiTraAjBDcu4_5alloc3vec3VecNtB4_12PartialValueEE0B8_
FNDA:1,_RNvXs_NtNtCsfZPcC2TrjjJ_17cedar_policy_core3ast13partial_valueNtB4_12PartialValueINtNtCsaNl6UpbT7bw_4core7convert4FromINtNtCsiTraAjBDcu4_5alloc3vec3VecNtNtB6_5value5ValueEE4fromB8_
FNDA:862,_RNvXs_NtNtCsfZPcC2TrjjJ_17cedar_policy_core3ast13partial_valueNtB4_12PartialValueINtNtCsaNl6UpbT7bw_4core7convert4FromNtNtB6_5value5ValueE4fromB8_
FNDA:4,_RNvXs_NtNtCsfZPcC2TrjjJ_17cedar_policy_core3ast13partial_valueNtB4_12PartialValueINtNtCsaNl6UpbT7bw_4core7convert4FromNtNtB6_6entity9EntityUIDE4fromB8_
FNDA:1992,_RNvXs_NtNtCsfZPcC2TrjjJ_17cedar_policy_core3ast13partial_valueNtB4_12PartialValueINtNtCsaNl6UpbT7bw_4core7convert4FromNtNtB6_7literal7LiteralE4fromB8_
FNDA:2,_RNvXs_NtNtCsfZPcC2TrjjJ_17cedar_policy_core3ast13partial_valueNtB4_12PartialValueINtNtCsaNl6UpbT7bw_4core7convert4FromReE4fromB8_
FNDA:180,_RNvXs_NtNtCsfZPcC2TrjjJ_17cedar_policy_core3ast13partial_valueNtB4_12PartialValueINtNtCsaNl6UpbT7bw_4core7convert4FrombE4fromB8_
FNDA:13,_RNvXs_NtNtCsfZPcC2TrjjJ_17cedar_policy_core3ast13partial_valueNtB4_12PartialValueINtNtCsaNl6UpbT7bw_4core7convert4FromxE4fromB8_
FNDA:3800,_RNvMNtNtCsfZPcC2TrjjJ_17cedar_policy_core3ast13partial_valueNtB2_12PartialValue21with_maybe_source_loc
FNDA:16,_RNvMNtNtCsfZPcC2TrjjJ_17cedar_policy_core3ast13partial_valueNtB2_12PartialValue7unknown
FNDA:44,_RNvXs0_NtNtCsfZPcC2TrjjJ_17cedar_policy_core3ast13partial_valueNtB5_12PartialValueINtNtCsaNl6UpbT7bw_4core7convert4FromNtNtB7_4expr4ExprE4from
FNF:13
FNH:11
DA:35,16
DA:36,16
DA:37,16
DA:40,3800
DA:41,3800
DA:42,3525
DA:43,275
DA:45,3800
DA:49,3054
DA:50,3054
DA:51,3054
DA:55,44
DA:56,44
DA:57,44
DA:58,44
DA:85,0
DA:86,0
DA:87,0
DA:88,0
DA:90,0
DA:94,0
DA:95,0
DA:96,0
DA:97,0
DA:99,0
DA:103,5
DA:104,5
DA:105,5
DA:106,0
DA:108,5
DA:115,1124
DA:116,1124
DA:117,1124
DA:119,1124
DA:120,1124
DA:122,1645
DA:123,1645
DA:124,1603
DA:125,1603
DA:126,1589
DA:128,14
DA:131,42
DA:132,42
DA:133,42
DA:137,1124
DA:138,1091
DA:140,33
DA:141,33
DA:142,33
DA:144,1124
DA:152,1
DA:153,1
DA:154,1
DA:155,1
DA:156,1
DA:157,1
DA:158,0
DA:159,1
DA:160,1
DA:163,1
DA:166,1
DA:167,1
DA:168,1
DA:169,1
DA:170,1
DA:171,1
DA:172,1
DA:173,1
DA:174,1
DA:175,0
DA:176,1
DA:177,1
DA:180,1
DA:183,1
DA:184,1
DA:185,1
DA:186,1
DA:187,1
DA:188,1
DA:189,1
DA:190,1
DA:191,1
DA:192,0
DA:193,1
DA:194,1
DA:197,1
DA:200,1
DA:201,1
DA:202,1
DA:203,1
DA:204,1
DA:205,1
DA:206,1
DA:207,1
DA:208,1
DA:209,0
DA:210,1
DA:211,1
DA:214,1
BRF:0
BRH:0
LF:100
LH:85
end_of_record
SF:/Users/victornl/repos/cedar-spec/cedar/cedar-policy-core/src/ast/pattern.rs
FN:54,_RNvMNtNtCsfZPcC2TrjjJ_17cedar_policy_core3ast7patternNtB2_7Pattern3len
FN:59,_RNvMNtNtCsfZPcC2TrjjJ_17cedar_policy_core3ast7patternNtB2_7Pattern8is_empty
FN:65,_RNvXs_NtNtCsfZPcC2TrjjJ_17cedar_policy_core3ast7patternNtB4_7PatternINtNtCsaNl6UpbT7bw_4core7convert4FromINtNtCsiTraAjBDcu4_5alloc4sync3ArcINtNtB1K_3vec3VecNtB4_11PatternElemEEE4from
FN:181,_RNvNtNtNtCsfZPcC2TrjjJ_17cedar_policy_core3ast7pattern4test10string_map
FN:186,_RNvNtNtNtCsfZPcC2TrjjJ_17cedar_policy_core3ast7pattern4test4star
FN:191,_RNvNtNtNtCsfZPcC2TrjjJ_17cedar_policy_core3ast7pattern4test5empty
FN:196,_RNvNtNtNtCsfZPcC2TrjjJ_17cedar_policy_core3ast7pattern4tests_25test_wildcard_match_basic
FN:230,_RNvNtNtNtCsfZPcC2TrjjJ_17cedar_policy_core3ast7pattern4tests_27test_wildcard_match_unicode
FN:39,_RNvMNtNtCsfZPcC2TrjjJ_17cedar_policy_core3ast7patternNtB2_7Pattern3new
FN:49,_RNvMNtNtCsfZPcC2TrjjJ_17cedar_policy_core3ast7patternNtB2_7Pattern4iter
FN:44,_RNvMNtNtCsfZPcC2TrjjJ_17cedar_policy_core3ast7patternNtB2_7Pattern9get_elems
FN:96,_RNvMs3_NtNtCsfZPcC2TrjjJ_17cedar_policy_core3ast7patternNtB5_11PatternElem10match_char
FN:102,_RNvMs3_NtNtCsfZPcC2TrjjJ_17cedar_policy_core3ast7patternNtB5_11PatternElem11is_wildcard
FN:109,_RNvMs4_NtNtCsfZPcC2TrjjJ_17cedar_policy_core3ast7patternNtB5_7Pattern14wildcard_match
FN:174,_RNvXNtNtNtCsfZPcC2TrjjJ_17cedar_policy_core3ast7pattern4testNtB4_7PatternNtNtNtCsaNl6UpbT7bw_4core3ops5arith3Add3add
FN:71,_RNvXs0_NtNtCsfZPcC2TrjjJ_17cedar_policy_core3ast7patternNtB5_7PatternINtNtCsaNl6UpbT7bw_4core7convert4FromINtNtCsiTraAjBDcu4_5alloc3vec3VecNtB5_11PatternElemEE4from
FN:83,_RNvXs2_NtNtCsfZPcC2TrjjJ_17cedar_policy_core3ast7patternNtB5_7PatternNtNtCsaNl6UpbT7bw_4core3fmt7Display3fmt
FN:77,_RINvXs1_NtNtCsfZPcC2TrjjJ_17cedar_policy_core3ast7patternNtB6_7PatternINtNtNtNtCsaNl6UpbT7bw_4core4iter6traits7collect12FromIteratorNtB6_11PatternElemE9from_iterINtNtNtB1d_8adapters3map3MapINtNtNtCsiTraAjBDcu4_5alloc3vec9into_iter8IntoIterNtNtNtBa_3pst4expr11PatternElemENCINvNtB3T_15ast_conversions25elements_into_ast_patternINtB36_3VecB3P_EE0EEBa_
FN:77,_RINvXs1_NtNtCsfZPcC2TrjjJ_17cedar_policy_core3ast7patternNtB6_7PatternINtNtNtNtCsaNl6UpbT7bw_4core4iter6traits7collect12FromIteratorNtB6_11PatternElemE9from_iterINtNtNtB1d_8adapters3map3MapNtNtNtB1f_3str4iter5CharsNcNtB26_4Char0EEBa_
FNDA:0,_RNvMNtNtCsfZPcC2TrjjJ_17cedar_policy_core3ast7patternNtB2_7Pattern3len
FNDA:0,_RNvMNtNtCsfZPcC2TrjjJ_17cedar_policy_core3ast7patternNtB2_7Pattern8is_empty
FNDA:0,_RNvXs_NtNtCsfZPcC2TrjjJ_17cedar_policy_core3ast7patternNtB4_7PatternINtNtCsaNl6UpbT7bw_4core7convert4FromINtNtCsiTraAjBDcu4_5alloc4sync3ArcINtNtB1K_3vec3VecNtB4_11PatternElemEEE4from
FNDA:24,_RNvNtNtNtCsfZPcC2TrjjJ_17cedar_policy_core3ast7pattern4test10string_map
FNDA:30,_RNvNtNtNtCsfZPcC2TrjjJ_17cedar_policy_core3ast7pattern4test4star
FNDA:2,_RNvNtNtNtCsfZPcC2TrjjJ_17cedar_policy_core3ast7pattern4test5empty
FNDA:1,_RNvNtNtNtCsfZPcC2TrjjJ_17cedar_policy_core3ast7pattern4tests_25test_wildcard_match_basic
FNDA:1,_RNvNtNtNtCsfZPcC2TrjjJ_17cedar_policy_core3ast7pattern4tests_27test_wildcard_match_unicode
FNDA:187,_RNvMNtNtCsfZPcC2TrjjJ_17cedar_policy_core3ast7patternNtB2_7Pattern3new
FNDA:28,_RNvMNtNtCsfZPcC2TrjjJ_17cedar_policy_core3ast7patternNtB2_7Pattern4iter
FNDA:118,_RNvMNtNtCsfZPcC2TrjjJ_17cedar_policy_core3ast7patternNtB2_7Pattern9get_elems
FNDA:341,_RNvMs3_NtNtCsfZPcC2TrjjJ_17cedar_policy_core3ast7patternNtB5_11PatternElem10match_char
FNDA:407,_RNvMs3_NtNtCsfZPcC2TrjjJ_17cedar_policy_core3ast7patternNtB5_11PatternElem11is_wildcard
FNDA:54,_RNvMs4_NtNtCsfZPcC2TrjjJ_17cedar_policy_core3ast7patternNtB5_7Pattern14wildcard_match
FNDA:31,_RNvXNtNtNtCsfZPcC2TrjjJ_17cedar_policy_core3ast7pattern4testNtB4_7PatternNtNtNtCsaNl6UpbT7bw_4core3ops5arith3Add3add
FNDA:157,_RNvXs0_NtNtCsfZPcC2TrjjJ_17cedar_policy_core3ast7patternNtB5_7PatternINtNtCsaNl6UpbT7bw_4core7convert4FromINtNtCsiTraAjBDcu4_5alloc3vec3VecNtB5_11PatternElemEE4from
FNDA:18,_RNvXs2_NtNtCsfZPcC2TrjjJ_17cedar_policy_core3ast7patternNtB5_7PatternNtNtCsaNl6UpbT7bw_4core3fmt7Display3fmt
FNDA:6,_RINvXs1_NtNtCsfZPcC2TrjjJ_17cedar_policy_core3ast7patternNtB6_7PatternINtNtNtNtCsaNl6UpbT7bw_4core4iter6traits7collect12FromIteratorNtB6_11PatternElemE9from_iterINtNtNtB1d_8adapters3map3MapINtNtNtCsiTraAjBDcu4_5alloc3vec9into_iter8IntoIterNtNtNtBa_3pst4expr11PatternElemENCINvNtB3T_15ast_conversions25elements_into_ast_patternINtB36_3VecB3P_EE0EEBa_
FNDA:24,_RINvXs1_NtNtCsfZPcC2TrjjJ_17cedar_policy_core3ast7patternNtB6_7PatternINtNtNtNtCsaNl6UpbT7bw_4core4iter6traits7collect12FromIteratorNtB6_11PatternElemE9from_iterINtNtNtB1d_8adapters3map3MapNtNtNtB1f_3str4iter5CharsNcNtB26_4Char0EEBa_
FNF:18
FNH:15
DA:39,187
DA:40,187
DA:41,187
DA:44,118
DA:45,118
DA:46,118
DA:49,28
DA:50,28
DA:51,28
DA:54,0
DA:55,0
DA:56,0
DA:59,0
DA:60,0
DA:61,0
DA:65,0
DA:66,0
DA:67,0
DA:71,157
DA:72,157
DA:73,157
DA:77,30
DA:78,30
DA:79,30
DA:83,18
DA:84,241
DA:85,241
DA:86,16
DA:87,219
DA:88,6
DA:91,18
DA:92,18
DA:96,341
DA:97,341
DA:98,341
DA:99,0
DA:101,341
DA:102,407
DA:103,407
DA:104,407
DA:109,54
DA:110,54
DA:111,54
DA:112,2
DA:113,52
DA:123,52
DA:125,52
DA:126,52
DA:127,52
DA:128,52
DA:129,52
DA:131,52
DA:132,52
DA:134,439
DA:139,397
DA:140,52
DA:141,52
DA:142,52
DA:143,52
DA:144,345
DA:145,192
DA:146,192
DA:147,192
DA:148,143
DA:149,143
DA:150,143
DA:151,143
DA:152,10
DA:160,45
DA:161,3
DA:162,3
DA:164,42
DA:165,54
DA:174,31
DA:175,31
DA:176,31
DA:177,31
DA:181,24
DA:182,24
DA:183,24
DA:186,30
DA:187,30
DA:188,30
DA:191,2
DA:192,2
DA:193,2
DA:196,1
DA:198,1
DA:199,1
DA:200,1
DA:201,1
DA:202,1
DA:203,1
DA:206,1
DA:207,1
DA:208,1
DA:209,1
DA:210,1
DA:211,1
DA:214,1
DA:215,1
DA:218,1
DA:221,1
DA:222,1
DA:225,1
DA:226,1
DA:227,1
DA:230,1
DA:232,1
DA:233,1
DA:236,1
DA:239,1
DA:240,1
DA:243,1
DA:244,1
BRF:0
BRH:0
LF:115
LH:105
end_of_record
SF:/Users/victornl/repos/cedar-spec/cedar/cedar-policy-core/src/ast/policy.rs
FN:2267,_RNvNtNtNtCsfZPcC2TrjjJ_17cedar_policy_core3ast6policy4tests_10ir_binding
FN:2382,_RNvNtNtNtCsfZPcC2TrjjJ_17cedar_policy_core3ast6policy4tests_11action_iter
FN:2434,_RNvNtNtNtCsfZPcC2TrjjJ_17cedar_policy_core3ast6policy4tests_14euid_into_expr
FN:2168,_RNvNtNtNtCsfZPcC2TrjjJ_17cedar_policy_core3ast6policy4tests_14link_templates
FN:2487,_RNvNtNtNtCsfZPcC2TrjjJ_17cedar_policy_core3ast6policy4tests_14policy_to_expr
FN:2415,_RNvNtNtNtCsfZPcC2TrjjJ_17cedar_policy_core3ast6policy4tests_14test_iter_mult
FN:2397,_RNvNtNtNtCsfZPcC2TrjjJ_17cedar_policy_core3ast6policy4tests_14test_iter_none
FN:2403,_RNvNtNtNtCsfZPcC2TrjjJ_17cedar_policy_core3ast6policy4tests_14test_iter_once
FN:2319,_RNvNtNtNtCsfZPcC2TrjjJ_17cedar_policy_core3ast6policy4tests_16non_template_iso
FN:2340,_RNvNtNtNtCsfZPcC2TrjjJ_17cedar_policy_core3ast6policy4tests_17template_por_iter
FN:2241,_RNvNtNtNtCsfZPcC2TrjjJ_17cedar_policy_core3ast6policy4tests_18ir_binding_too_few
FN:2329,_RNvNtNtNtCsfZPcC2TrjjJ_17cedar_policy_core3ast6policy4tests_18template_into_expr
FN:2219,_RNvNtNtNtCsfZPcC2TrjjJ_17cedar_policy_core3ast6policy4tests_19ir_binding_too_many
FN:2460,_RNvNtNtNtCsfZPcC2TrjjJ_17cedar_policy_core3ast6policy4tests_20unexpected_templates
FN:2181,_RNvNtNtNtCsfZPcC2TrjjJ_17cedar_policy_core3ast6policy4tests_21test_template_rebuild
FN:2448,_RNvNtNtNtCsfZPcC2TrjjJ_17cedar_policy_core3ast6policy4tests_22por_constraint_display
FN:2195,_RNvNtNtNtCsfZPcC2TrjjJ_17cedar_policy_core3ast6policy4tests_26test_static_policy_rebuild
FN:2307,_RNvNtNtNtCsfZPcC2TrjjJ_17cedar_policy_core3ast6policy4tests_30is_template_implies_from_fails
FN:2298,_RNvNtNtNtCsfZPcC2TrjjJ_17cedar_policy_core3ast6policy4tests_35isnt_template_implies_from_succeeds
FN:521,_RNvMs3_NtNtCsfZPcC2TrjjJ_17cedar_policy_core3ast6policyNtB5_6Policy10annotation
FN:526,_RNvMs3_NtNtCsfZPcC2TrjjJ_17cedar_policy_core3ast6policyNtB5_6Policy11annotations
FN:511,_RNvMs3_NtNtCsfZPcC2TrjjJ_17cedar_policy_core3ast6policyNtB5_6Policy12template_arc
FN:531,_RNvMs3_NtNtCsfZPcC2TrjjJ_17cedar_policy_core3ast6policyNtB5_6Policy15annotations_arc
FN:501,_RNvMs3_NtNtCsfZPcC2TrjjJ_17cedar_policy_core3ast6policyNtB5_6Policy15into_components
FN:610,_RNvMs3_NtNtCsfZPcC2TrjjJ_17cedar_policy_core3ast6policyNtB5_6Policy15new_template_id
FN:470,_RNvMs3_NtNtCsfZPcC2TrjjJ_17cedar_policy_core3ast6policyNtB5_6Policy16from_when_clause
FN:549,_RNvMs3_NtNtCsfZPcC2TrjjJ_17cedar_policy_core3ast6policyNtB5_6Policy17action_constraint
FN:558,_RNvMs3_NtNtCsfZPcC2TrjjJ_17cedar_policy_core3ast6policyNtB5_6Policy19resource_constraint
FN:540,_RNvMs3_NtNtCsfZPcC2TrjjJ_17cedar_policy_core3ast6policyNtB5_6Policy20principal_constraint
FN:567,_RNvMs3_NtNtCsfZPcC2TrjjJ_17cedar_policy_core3ast6policyNtB5_6Policy21non_scope_constraints
FN:481,_RNvMs3_NtNtCsfZPcC2TrjjJ_17cedar_policy_core3ast6policyNtB5_6Policy22from_when_clause_annos
FN:588,_RNvMs3_NtNtCsfZPcC2TrjjJ_17cedar_policy_core3ast6policyNtB5_6Policy2id
FN:583,_RNvMs3_NtNtCsfZPcC2TrjjJ_17cedar_policy_core3ast6policyNtB5_6Policy3env
FN:619,_RNvMs3_NtNtCsfZPcC2TrjjJ_17cedar_policy_core3ast6policyNtB5_6Policy3loc
FN:453,_RNvMs3_NtNtCsfZPcC2TrjjJ_17cedar_policy_core3ast6policyNtB5_6Policy3new
FN:516,_RNvMs3_NtNtCsfZPcC2TrjjJ_17cedar_policy_core3ast6policyNtB5_6Policy6effect
FN:593,_RNvMs3_NtNtCsfZPcC2TrjjJ_17cedar_policy_core3ast6policyNtB5_6Policy6new_id
FN:506,_RNvMs3_NtNtCsfZPcC2TrjjJ_17cedar_policy_core3ast6policyNtB5_6Policy8template
FN:577,_RNvMs3_NtNtCsfZPcC2TrjjJ_17cedar_policy_core3ast6policyNtB5_6Policy9condition
FN:624,_RNvMs3_NtNtCsfZPcC2TrjjJ_17cedar_policy_core3ast6policyNtB5_6Policy9is_static
FN:251,_RNvMs_NtNtCsfZPcC2TrjjJ_17cedar_policy_core3ast6policyNtB4_8Template10annotation
FN:159,_RNvMs_NtNtCsfZPcC2TrjjJ_17cedar_policy_core3ast6policyNtB4_8Template10new_shared
FN:256,_RNvMs_NtNtCsfZPcC2TrjjJ_17cedar_policy_core3ast6policyNtB4_8Template11annotations
FN:290,_RNvMs_NtNtCsfZPcC2TrjjJ_17cedar_policy_core3ast6policyNtB4_8Template13check_binding
FN:261,_RNvMs_NtNtCsfZPcC2TrjjJ_17cedar_policy_core3ast6policyNtB4_8Template15annotations_arc
FN:105,_RNvMs_NtNtCsfZPcC2TrjjJ_17cedar_policy_core3ast6policyNtB4_8Template15check_invariant
FN:208,_RNvMs_NtNtCsfZPcC2TrjjJ_17cedar_policy_core3ast6policyNtB4_8Template17action_constraint
FN:341,_RNvMs_NtNtCsfZPcC2TrjjJ_17cedar_policy_core3ast6policyNtB4_8Template18link_static_policy
FN:213,_RNvMs_NtNtCsfZPcC2TrjjJ_17cedar_policy_core3ast6policyNtB4_8Template19resource_constraint
FN:203,_RNvMs_NtNtCsfZPcC2TrjjJ_17cedar_policy_core3ast6policyNtB4_8Template20principal_constraint
FN:218,_RNvMs_NtNtCsfZPcC2TrjjJ_17cedar_policy_core3ast6policyNtB4_8Template21non_scope_constraints
FN:188,_RNvMs_NtNtCsfZPcC2TrjjJ_17cedar_policy_core3ast6policyNtB4_8Template28into_template_components_opt
FN:228,_RNvMs_NtNtCsfZPcC2TrjjJ_17cedar_policy_core3ast6policyNtB4_8Template2id
FN:241,_RNvMs_NtNtCsfZPcC2TrjjJ_17cedar_policy_core3ast6policyNtB4_8Template3loc
FN:122,_RNvMs_NtNtCsfZPcC2TrjjJ_17cedar_policy_core3ast6policyNtB4_8Template3new
FN:329,_RNvMs_NtNtCsfZPcC2TrjjJ_17cedar_policy_core3ast6policyNtB4_8Template4link
FN:275,_RNvMs_NtNtCsfZPcC2TrjjJ_17cedar_policy_core3ast6policyNtB4_8Template5slots
FN:246,_RNvMs_NtNtCsfZPcC2TrjjJ_17cedar_policy_core3ast6policyNtB4_8Template6effect
FN:233,_RNvMs_NtNtCsfZPcC2TrjjJ_17cedar_policy_core3ast6policyNtB4_8Template6new_id
FN:270,_RNvMs_NtNtCsfZPcC2TrjjJ_17cedar_policy_core3ast6policyNtB4_8Template9condition
FN:283,_RNvMs_NtNtCsfZPcC2TrjjJ_17cedar_policy_core3ast6policyNtB4_8Template9is_static
FN:878,_RNvMsa_NtNtCsfZPcC2TrjjJ_17cedar_policy_core3ast6policyNtB5_12StaticPolicy10annotation
FN:883,_RNvMsa_NtNtCsfZPcC2TrjjJ_17cedar_policy_core3ast6policyNtB5_12StaticPolicy11annotations
FN:900,_RNvMsa_NtNtCsfZPcC2TrjjJ_17cedar_policy_core3ast6policyNtB5_12StaticPolicy17action_constraint
FN:912,_RNvMsa_NtNtCsfZPcC2TrjjJ_17cedar_policy_core3ast6policyNtB5_12StaticPolicy19resource_constraint
FN:888,_RNvMsa_NtNtCsfZPcC2TrjjJ_17cedar_policy_core3ast6policyNtB5_12StaticPolicy20principal_constraint
FN:927,_RNvMsa_NtNtCsfZPcC2TrjjJ_17cedar_policy_core3ast6policyNtB5_12StaticPolicy21non_scope_constraints
FN:858,_RNvMsa_NtNtCsfZPcC2TrjjJ_17cedar_policy_core3ast6policyNtB5_12StaticPolicy2id
FN:868,_RNvMsa_NtNtCsfZPcC2TrjjJ_17cedar_policy_core3ast6policyNtB5_12StaticPolicy3loc
FN:945,_RNvMsa_NtNtCsfZPcC2TrjjJ_17cedar_policy_core3ast6policyNtB5_12StaticPolicy3new
FN:873,_RNvMsa_NtNtCsfZPcC2TrjjJ_17cedar_policy_core3ast6policyNtB5_12StaticPolicy6effect
FN:936,_RNvMsa_NtNtCsfZPcC2TrjjJ_17cedar_policy_core3ast6policyNtB5_12StaticPolicy9condition
FN:1098,_RNvMse_NtNtCsfZPcC2TrjjJ_17cedar_policy_core3ast6policyNtB5_12TemplateBody10annotation
FN:1303,_RNvMse_NtNtCsfZPcC2TrjjJ_17cedar_policy_core3ast6policyNtB5_12TemplateBody10new_shared
FN:1118,_RNvMse_NtNtCsfZPcC2TrjjJ_17cedar_policy_core3ast6policyNtB5_12TemplateBody11annotations
FN:1109,_RNvMse_NtNtCsfZPcC2TrjjJ_17cedar_policy_core3ast6policyNtB5_12TemplateBody15annotations_arc
FN:1155,_RNvMse_NtNtCsfZPcC2TrjjJ_17cedar_policy_core3ast6policyNtB5_12TemplateBody17action_constraint
FN:1233,_RNvMse_NtNtCsfZPcC2TrjjJ_17cedar_policy_core3ast6policyNtB5_12TemplateBody19into_components_opt
FN:1179,_RNvMse_NtNtCsfZPcC2TrjjJ_17cedar_policy_core3ast6policyNtB5_12TemplateBody19resource_constraint
FN:1127,_RNvMse_NtNtCsfZPcC2TrjjJ_17cedar_policy_core3ast6policyNtB5_12TemplateBody20principal_constraint
FN:1208,_RNvMse_NtNtCsfZPcC2TrjjJ_17cedar_policy_core3ast6policyNtB5_12TemplateBody21non_scope_constraints
FN:1168,_RNvMse_NtNtCsfZPcC2TrjjJ_17cedar_policy_core3ast6policyNtB5_12TemplateBody22action_constraint_expr
FN:1193,_RNvMse_NtNtCsfZPcC2TrjjJ_17cedar_policy_core3ast6policyNtB5_12TemplateBody24resource_constraint_expr
FN:1143,_RNvMse_NtNtCsfZPcC2TrjjJ_17cedar_policy_core3ast6policyNtB5_12TemplateBody25principal_constraint_expr
FN:1050,_RNvMse_NtNtCsfZPcC2TrjjJ_17cedar_policy_core3ast6policyNtB5_12TemplateBody2id
FN:1059,_RNvMse_NtNtCsfZPcC2TrjjJ_17cedar_policy_core3ast6policyNtB5_12TemplateBody3loc
FN:1330,_RNvMse_NtNtCsfZPcC2TrjjJ_17cedar_policy_core3ast6policyNtB5_12TemplateBody3new
FN:1089,_RNvMse_NtNtCsfZPcC2TrjjJ_17cedar_policy_core3ast6policyNtB5_12TemplateBody6effect
FN:1068,_RNvMse_NtNtCsfZPcC2TrjjJ_17cedar_policy_core3ast6policyNtB5_12TemplateBody6new_id
FN:1273,_RNvMse_NtNtCsfZPcC2TrjjJ_17cedar_policy_core3ast6policyNtB5_12TemplateBody9condition
FN:1404,_RNvMsh_NtNtCsfZPcC2TrjjJ_17cedar_policy_core3ast6policyNtB5_19PrincipalConstraint10into_inner
FN:1428,_RNvMsh_NtNtCsfZPcC2TrjjJ_17cedar_policy_core3ast6policyNtB5_19PrincipalConstraint10is_eq_slot
FN:1442,_RNvMsh_NtNtCsfZPcC2TrjjJ_17cedar_policy_core3ast6policyNtB5_19PrincipalConstraint10is_in_slot
FN:1463,_RNvMsh_NtNtCsfZPcC2TrjjJ_17cedar_policy_core3ast6policyNtB5_19PrincipalConstraint14is_entity_type
FN:1470,_RNvMsh_NtNtCsfZPcC2TrjjJ_17cedar_policy_core3ast6policyNtB5_19PrincipalConstraint16with_filled_slot
FN:1456,_RNvMsh_NtNtCsfZPcC2TrjjJ_17cedar_policy_core3ast6policyNtB5_19PrincipalConstraint17is_entity_type_in
FN:1449,_RNvMsh_NtNtCsfZPcC2TrjjJ_17cedar_policy_core3ast6policyNtB5_19PrincipalConstraint22is_entity_type_in_slot
FN:1414,_RNvMsh_NtNtCsfZPcC2TrjjJ_17cedar_policy_core3ast6policyNtB5_19PrincipalConstraint3any
FN:1394,_RNvMsh_NtNtCsfZPcC2TrjjJ_17cedar_policy_core3ast6policyNtB5_19PrincipalConstraint3new
FN:1421,_RNvMsh_NtNtCsfZPcC2TrjjJ_17cedar_policy_core3ast6policyNtB5_19PrincipalConstraint5is_eq
FN:1435,_RNvMsh_NtNtCsfZPcC2TrjjJ_17cedar_policy_core3ast6policyNtB5_19PrincipalConstraint5is_in
FN:1409,_RNvMsh_NtNtCsfZPcC2TrjjJ_17cedar_policy_core3ast6policyNtB5_19PrincipalConstraint7as_expr
FN:1399,_RNvMsh_NtNtCsfZPcC2TrjjJ_17cedar_policy_core3ast6policyNtB5_19PrincipalConstraint8as_inner
FN:1522,_RNvMsj_NtNtCsfZPcC2TrjjJ_17cedar_policy_core3ast6policyNtB5_18ResourceConstraint10into_inner
FN:1546,_RNvMsj_NtNtCsfZPcC2TrjjJ_17cedar_policy_core3ast6policyNtB5_18ResourceConstraint10is_eq_slot
FN:1553,_RNvMsj_NtNtCsfZPcC2TrjjJ_17cedar_policy_core3ast6policyNtB5_18ResourceConstraint10is_in_slot
FN:1581,_RNvMsj_NtNtCsfZPcC2TrjjJ_17cedar_policy_core3ast6policyNtB5_18ResourceConstraint14is_entity_type
FN:1588,_RNvMsj_NtNtCsfZPcC2TrjjJ_17cedar_policy_core3ast6policyNtB5_18ResourceConstraint16with_filled_slot
FN:1574,_RNvMsj_NtNtCsfZPcC2TrjjJ_17cedar_policy_core3ast6policyNtB5_18ResourceConstraint17is_entity_type_in
FN:1567,_RNvMsj_NtNtCsfZPcC2TrjjJ_17cedar_policy_core3ast6policyNtB5_18ResourceConstraint22is_entity_type_in_slot
FN:1532,_RNvMsj_NtNtCsfZPcC2TrjjJ_17cedar_policy_core3ast6policyNtB5_18ResourceConstraint3any
FN:1512,_RNvMsj_NtNtCsfZPcC2TrjjJ_17cedar_policy_core3ast6policyNtB5_18ResourceConstraint3new
FN:1539,_RNvMsj_NtNtCsfZPcC2TrjjJ_17cedar_policy_core3ast6policyNtB5_18ResourceConstraint5is_eq
FN:1560,_RNvMsj_NtNtCsfZPcC2TrjjJ_17cedar_policy_core3ast6policyNtB5_18ResourceConstraint5is_in
FN:1527,_RNvMsj_NtNtCsfZPcC2TrjjJ_17cedar_policy_core3ast6policyNtB5_18ResourceConstraint7as_expr
FN:1517,_RNvMsj_NtNtCsfZPcC2TrjjJ_17cedar_policy_core3ast6policyNtB5_18ResourceConstraint8as_inner
FN:1639,_RNvMsl_NtNtCsfZPcC2TrjjJ_17cedar_policy_core3ast6policyNtB5_15EntityReference4euid
FN:1648,_RNvMsl_NtNtCsfZPcC2TrjjJ_17cedar_policy_core3ast6policyNtB5_15EntityReference9into_expr
FN:1745,_RNvMsq_NtNtCsfZPcC2TrjjJ_17cedar_policy_core3ast6policyNtB5_29PrincipalOrResourceConstraint10is_eq_slot
FN:1750,_RNvMsq_NtNtCsfZPcC2TrjjJ_17cedar_policy_core3ast6policyNtB5_29PrincipalOrResourceConstraint10is_in_slot
FN:1770,_RNvMsq_NtNtCsfZPcC2TrjjJ_17cedar_policy_core3ast6policyNtB5_29PrincipalOrResourceConstraint14is_entity_type
FN:1765,_RNvMsq_NtNtCsfZPcC2TrjjJ_17cedar_policy_core3ast6policyNtB5_29PrincipalOrResourceConstraint17is_entity_type_in
FN:1760,_RNvMsq_NtNtCsfZPcC2TrjjJ_17cedar_policy_core3ast6policyNtB5_29PrincipalOrResourceConstraint22is_entity_type_in_slot
FN:1832,_RNvMsq_NtNtCsfZPcC2TrjjJ_17cedar_policy_core3ast6policyNtB5_29PrincipalOrResourceConstraint22iter_entity_type_names
FN:1735,_RNvMsq_NtNtCsfZPcC2TrjjJ_17cedar_policy_core3ast6policyNtB5_29PrincipalOrResourceConstraint3any
FN:1740,_RNvMsq_NtNtCsfZPcC2TrjjJ_17cedar_policy_core3ast6policyNtB5_29PrincipalOrResourceConstraint5is_eq
FN:1755,_RNvMsq_NtNtCsfZPcC2TrjjJ_17cedar_policy_core3ast6policyNtB5_29PrincipalOrResourceConstraint5is_in
FN:1777,_RNvMsq_NtNtCsfZPcC2TrjjJ_17cedar_policy_core3ast6policyNtB5_29PrincipalOrResourceConstraint7as_expr
FN:1799,_RNvMsq_NtNtCsfZPcC2TrjjJ_17cedar_policy_core3ast6policyNtB5_29PrincipalOrResourceConstraint7display
FN:1818,_RNvMsq_NtNtCsfZPcC2TrjjJ_17cedar_policy_core3ast6policyNtB5_29PrincipalOrResourceConstraint8get_euid
FN:1920,_RNvMss_NtNtCsfZPcC2TrjjJ_17cedar_policy_core3ast6policyNtB5_16ActionConstraint10iter_euids
FN:1933,_RNvMss_NtNtCsfZPcC2TrjjJ_17cedar_policy_core3ast6policyNtB5_16ActionConstraint22iter_entity_type_names
FN:1939,_RNvMss_NtNtCsfZPcC2TrjjJ_17cedar_policy_core3ast6policyNtB5_16ActionConstraint26contains_only_action_types
FN:1877,_RNvMss_NtNtCsfZPcC2TrjjJ_17cedar_policy_core3ast6policyNtB5_16ActionConstraint3any
FN:1887,_RNvMss_NtNtCsfZPcC2TrjjJ_17cedar_policy_core3ast6policyNtB5_16ActionConstraint5is_eq
FN:1896,_RNvMss_NtNtCsfZPcC2TrjjJ_17cedar_policy_core3ast6policyNtB5_16ActionConstraint7as_expr
FN:2005,_RNvMsu_NtNtCsfZPcC2TrjjJ_17cedar_policy_core3ast6policyNtB5_8PolicyID12from_smolstr
FN:819,_RNvNtNtCsfZPcC2TrjjJ_17cedar_policy_core3ast6policy16display_slot_env
FN:411,_RNvNtNtCsfZPcC2TrjjJ_17cedar_policy_core3ast6policy20describe_arity_error
FN:357,_RNvXs0_NtNtCsfZPcC2TrjjJ_17cedar_policy_core3ast6policyNtB5_8TemplateINtNtCsaNl6UpbT7bw_4core7convert4FromNtB5_12TemplateBodyE4from
FN:366,_RNvXs1_NtNtCsfZPcC2TrjjJ_17cedar_policy_core3ast6policyNtB5_8TemplateNtNtCsaNl6UpbT7bw_4core3fmt7Display3fmt
FN:649,_RNvXs4_NtNtCsfZPcC2TrjjJ_17cedar_policy_core3ast6policyNtB5_6PolicyNtNtCsaNl6UpbT7bw_4core3fmt7Display3fmt
FN:977,_RNvXsb_NtNtCsfZPcC2TrjjJ_17cedar_policy_core3ast6policyNtB5_12StaticPolicyINtNtCsaNl6UpbT7bw_4core7convert7TryFromNtB5_8TemplateE8try_from
FN:988,_RNvXsc_NtNtCsfZPcC2TrjjJ_17cedar_policy_core3ast6policyNtB5_6PolicyINtNtCsaNl6UpbT7bw_4core7convert4FromNtB5_12StaticPolicyE4from
FN:1354,_RNvXsf_NtNtCsfZPcC2TrjjJ_17cedar_policy_core3ast6policyNtB5_12TemplateBodyINtNtCsaNl6UpbT7bw_4core7convert4FromNtB5_12StaticPolicyE4from
FN:1360,_RNvXsg_NtNtCsfZPcC2TrjjJ_17cedar_policy_core3ast6policyNtB5_12TemplateBodyNtNtCsaNl6UpbT7bw_4core3fmt7Display3fmt
FN:1495,_RNvXsi_NtNtCsfZPcC2TrjjJ_17cedar_policy_core3ast6policyNtB5_19PrincipalConstraintNtNtCsaNl6UpbT7bw_4core3fmt7Display3fmt
FN:1613,_RNvXsk_NtNtCsfZPcC2TrjjJ_17cedar_policy_core3ast6policyNtB5_18ResourceConstraintNtNtCsaNl6UpbT7bw_4core3fmt7Display3fmt
FN:1698,_RNvXso_NtNtCsfZPcC2TrjjJ_17cedar_policy_core3ast6policyNtB5_19PrincipalOrResourceNtNtCsaNl6UpbT7bw_4core3fmt7Display3fmt
FN:1860,_RNvXsr_NtNtCsfZPcC2TrjjJ_17cedar_policy_core3ast6policyNtB5_16ActionConstraintNtNtCsaNl6UpbT7bw_4core3fmt7Display3fmt
FN:1965,_RNvXst_NtNtCsfZPcC2TrjjJ_17cedar_policy_core3ast6policyNtB5_12StaticPolicyNtNtCsaNl6UpbT7bw_4core3fmt7Display3fmt
FN:2011,_RNvXsv_NtNtCsfZPcC2TrjjJ_17cedar_policy_core3ast6policyNtB5_8PolicyIDNtNtCsaNl6UpbT7bw_4core3fmt7Display3fmt
FN:2017,_RNvXsw_NtNtCsfZPcC2TrjjJ_17cedar_policy_core3ast6policyNtB5_8PolicyIDINtNtCsaNl6UpbT7bw_4core7convert5AsRefeE6as_ref
FN:2047,_RNvXsx_NtNtCsfZPcC2TrjjJ_17cedar_policy_core3ast6policyNtB5_6EffectNtNtCsaNl6UpbT7bw_4core3fmt7Display3fmt
FN:2064,_RNvXsy_NtNtCsfZPcC2TrjjJ_17cedar_policy_core3ast6policyNtB5_14EntityIteratorNtNtNtNtCsaNl6UpbT7bw_4core4iter6traits8iterator8Iterator4next
FN:995,_RNvXsd_NtNtCsfZPcC2TrjjJ_17cedar_policy_core3ast6policyINtNtCsiTraAjBDcu4_5alloc4sync3ArcNtB5_8TemplateEINtNtCsaNl6UpbT7bw_4core7convert4FromNtB5_12StaticPolicyE4from
FN:636,_RNCNvMs3_NtNtCsfZPcC2TrjjJ_17cedar_policy_core3ast6policyNtB7_6Policy16unknown_entities0Bb_
FN:790,_RNCNvMs7_NtNtCsfZPcC2TrjjJ_17cedar_policy_core3ast6policyNtB7_13LiteralPolicy5reify0Bb_
FN:1676,_RNCNvXsm_NtNtCsfZPcC2TrjjJ_17cedar_policy_core3ast6policyNtB7_19UnexpectedSlotErrorNtNtCsdupp4Rg7VfC_6miette8protocol10Diagnostic11source_code0Bb_
FN:1667,_RNCNvXsm_NtNtCsfZPcC2TrjjJ_17cedar_policy_core3ast6policyNtB7_19UnexpectedSlotErrorNtNtCsdupp4Rg7VfC_6miette8protocol10Diagnostic6labels0Bb_
FN:629,_RNvMs3_NtNtCsfZPcC2TrjjJ_17cedar_policy_core3ast6policyNtB5_6Policy16unknown_entities
FN:572,_RNvMs3_NtNtCsfZPcC2TrjjJ_17cedar_policy_core3ast6policyNtB5_6Policy25non_scope_constraints_arc
FN:688,_RNvMs5_NtNtCsfZPcC2TrjjJ_17cedar_policy_core3ast6policyNtB5_13LiteralPolicy13static_policy
FN:699,_RNvMs5_NtNtCsfZPcC2TrjjJ_17cedar_policy_core3ast6policyNtB5_13LiteralPolicy22template_linked_policy
FN:712,_RNvMs5_NtNtCsfZPcC2TrjjJ_17cedar_policy_core3ast6policyNtB5_13LiteralPolicy5value
FN:809,_RNvMs7_NtNtCsfZPcC2TrjjJ_17cedar_policy_core3ast6policyNtB5_13LiteralPolicy11template_id
FN:802,_RNvMs7_NtNtCsfZPcC2TrjjJ_17cedar_policy_core3ast6policyNtB5_13LiteralPolicy2id
FN:797,_RNvMs7_NtNtCsfZPcC2TrjjJ_17cedar_policy_core3ast6policyNtB5_13LiteralPolicy3get
FN:784,_RNvMs7_NtNtCsfZPcC2TrjjJ_17cedar_policy_core3ast6policyNtB5_13LiteralPolicy5reify
FN:814,_RNvMs7_NtNtCsfZPcC2TrjjJ_17cedar_policy_core3ast6policyNtB5_13LiteralPolicy9is_static
FN:223,_RNvMs_NtNtCsfZPcC2TrjjJ_17cedar_policy_core3ast6policyNtB4_8Template25non_scope_constraints_arc
FN:907,_RNvMsa_NtNtCsfZPcC2TrjjJ_17cedar_policy_core3ast6policyNtB5_12StaticPolicy22action_constraint_expr
FN:919,_RNvMsa_NtNtCsfZPcC2TrjjJ_17cedar_policy_core3ast6policyNtB5_12StaticPolicy24resource_constraint_expr
FN:895,_RNvMsa_NtNtCsfZPcC2TrjjJ_17cedar_policy_core3ast6policyNtB5_12StaticPolicy25principal_constraint_expr
FN:863,_RNvMsa_NtNtCsfZPcC2TrjjJ_17cedar_policy_core3ast6policyNtB5_12StaticPolicy6new_id
FN:1220,_RNvMse_NtNtCsfZPcC2TrjjJ_17cedar_policy_core3ast6policyNtB5_12TemplateBody25non_scope_constraints_arc
FN:96,_RNvXNtNtCsfZPcC2TrjjJ_17cedar_policy_core3ast6policyNtB2_12TemplateBodyINtNtCsaNl6UpbT7bw_4core7convert4FromNtB2_8TemplateE4from
FN:826,_RNvXs8_NtNtCsfZPcC2TrjjJ_17cedar_policy_core3ast6policyNtB5_13LiteralPolicyNtNtCsaNl6UpbT7bw_4core3fmt7Display3fmt
FN:841,_RNvXs9_NtNtCsfZPcC2TrjjJ_17cedar_policy_core3ast6policyNtB5_13LiteralPolicyINtNtCsaNl6UpbT7bw_4core7convert4FromNtB5_6PolicyE4from
FN:1674,_RNvXsm_NtNtCsfZPcC2TrjjJ_17cedar_policy_core3ast6policyNtB5_19UnexpectedSlotErrorNtNtCsdupp4Rg7VfC_6miette8protocol10Diagnostic11source_code
FN:1665,_RNvXsm_NtNtCsfZPcC2TrjjJ_17cedar_policy_core3ast6policyNtB5_19UnexpectedSlotErrorNtNtCsdupp4Rg7VfC_6miette8protocol10Diagnostic6labels
FN:1682,_RNvXsn_NtNtCsfZPcC2TrjjJ_17cedar_policy_core3ast6policyNtB5_15EntityReferenceINtNtCsaNl6UpbT7bw_4core7convert4FromNtNtB7_6entity9EntityUIDE4from
FN:1707,_RNvXsp_NtNtCsfZPcC2TrjjJ_17cedar_policy_core3ast6policyNtB5_19PrincipalOrResourceINtNtCsaNl6UpbT7bw_4core7convert7TryFromNtNtB7_4expr3VarE8try_from
FN:742,_RNvNtNtNtCsfZPcC2TrjjJ_17cedar_policy_core3ast6policy13hashing_tests12compute_hash
FN:748,_RNvNtNtNtCsfZPcC2TrjjJ_17cedar_policy_core3ast6policy13hashing_tests28build_template_linked_policy
FN:759,_RNvNtNtNtCsfZPcC2TrjjJ_17cedar_policy_core3ast6policy13hashing_testss_23hash_property_instances
FN:2117,_RNvNtNtNtCsfZPcC2TrjjJ_17cedar_policy_core3ast6policy15test_generators13all_templates
FN:2082,_RNvNtNtNtCsfZPcC2TrjjJ_17cedar_policy_core3ast6policy15test_generators19all_por_constraints
FN:2103,_RNvNtNtNtCsfZPcC2TrjjJ_17cedar_policy_core3ast6policy15test_generators23all_actions_constraints
FN:2099,_RNvNtNtNtCsfZPcC2TrjjJ_17cedar_policy_core3ast6policy15test_generators24all_resource_constraints
FN:2095,_RNvNtNtNtCsfZPcC2TrjjJ_17cedar_policy_core3ast6policy15test_generators25all_principal_constraints
FN:2174,_RNCNvNtNtNtCsfZPcC2TrjjJ_17cedar_policy_core3ast6policy4tests_14link_templates0B9_
FN:2202,_RNCNvNtNtNtCsfZPcC2TrjjJ_17cedar_policy_core3ast6policy4tests_26test_static_policy_rebuild0B9_
FN:400,_RINvMs2_NtNtCsfZPcC2TrjjJ_17cedar_policy_core3ast6policyNtB6_12LinkingError23from_unbound_and_extrasINtNtNtNtCsaNl6UpbT7bw_4core4iter8adapters3map3MapINtNtNtCsiTraAjBDcu4_5alloc3vec9into_iter8IntoIterRNtNtB8_4name4SlotENCNvMs_B6_NtB6_8Template13check_bindings0_0EINtNtB1F_6copied6CopiedIB2p_RNtB3f_6SlotIdEEEBa_
FN:1891,_RINvMss_NtNtCsfZPcC2TrjjJ_17cedar_policy_core3ast6policyNtB6_16ActionConstraint15euids_into_exprINtNtNtNtCsaNl6UpbT7bw_4core4iter8adapters6cloned6ClonedINtNtNtB1F_5slice4iter4IterINtNtCsiTraAjBDcu4_5alloc4sync3ArcNtNtB8_6entity9EntityUIDEEEEBa_
FN:1882,_RINvMss_NtNtCsfZPcC2TrjjJ_17cedar_policy_core3ast6policyNtB6_16ActionConstraint5is_inANtNtB8_6entity9EntityUIDj1_EBa_
FN:1882,_RINvMss_NtNtCsfZPcC2TrjjJ_17cedar_policy_core3ast6policyNtB6_16ActionConstraint5is_inANtNtB8_6entity9EntityUIDj2_EBa_
FN:1882,_RINvMss_NtNtCsfZPcC2TrjjJ_17cedar_policy_core3ast6policyNtB6_16ActionConstraint5is_inINtNtCsiTraAjBDcu4_5alloc3vec3VecNtNtB8_6entity9EntityUIDEEBa_
FN:2000,_RINvMsu_NtNtCsfZPcC2TrjjJ_17cedar_policy_core3ast6policyNtB6_8PolicyID11from_stringNtNtCsiTraAjBDcu4_5alloc6string6StringEBa_
FN:2000,_RINvMsu_NtNtCsfZPcC2TrjjJ_17cedar_policy_core3ast6policyNtB6_8PolicyID11from_stringRBS_EBa_
FN:2000,_RINvMsu_NtNtCsfZPcC2TrjjJ_17cedar_policy_core3ast6policyNtB6_8PolicyID11from_stringReEBa_
FN:720,_RINvXs6_NtNtCsfZPcC2TrjjJ_17cedar_policy_core3ast6policyNtB6_13LiteralPolicyNtNtCsaNl6UpbT7bw_4core4hash4Hash4hashNtNtNtCsht3nMU9UgFu_3std4hash6random13DefaultHasherEBa_
FN:307,_RNCNCNvMs_NtNtCsfZPcC2TrjjJ_17cedar_policy_core3ast6policyNtB8_8Template13check_bindings_00Bc_
FN:1862,_RNCNCNvXsr_NtNtCsfZPcC2TrjjJ_17cedar_policy_core3ast6policyNtB9_16ActionConstraintNtNtCsaNl6UpbT7bw_4core3fmt7Display3fmt00Bd_
FN:612,_RNCNvMs3_NtNtCsfZPcC2TrjjJ_17cedar_policy_core3ast6policyNtB7_6Policy15new_template_id0Bb_
FN:589,_RNCNvMs3_NtNtCsfZPcC2TrjjJ_17cedar_policy_core3ast6policyNtB7_6Policy2id0Bb_
FN:298,_RNCNvMs_NtNtCsfZPcC2TrjjJ_17cedar_policy_core3ast6policyNtB6_8Template13check_binding0Ba_
FN:303,_RNCNvMs_NtNtCsfZPcC2TrjjJ_17cedar_policy_core3ast6policyNtB6_8Template13check_bindings_0Ba_
FN:336,_RNCNvMs_NtNtCsfZPcC2TrjjJ_17cedar_policy_core3ast6policyNtB6_8Template4link0Ba_
FN:1213,_RNCNvMse_NtNtCsfZPcC2TrjjJ_17cedar_policy_core3ast6policyNtB7_12TemplateBody21non_scope_constraints0Bb_
FN:1285,_RNCNvMse_NtNtCsfZPcC2TrjjJ_17cedar_policy_core3ast6policyNtB7_12TemplateBody9condition0Bb_
FN:1835,_RNCNvMsq_NtNtCsfZPcC2TrjjJ_17cedar_policy_core3ast6policyNtB7_29PrincipalOrResourceConstraint22iter_entity_type_names0Bb_
FN:1934,_RNCNvMss_NtNtCsfZPcC2TrjjJ_17cedar_policy_core3ast6policyNtB7_16ActionConstraint22iter_entity_type_names0Bb_
FN:1944,_RNCNvMss_NtNtCsfZPcC2TrjjJ_17cedar_policy_core3ast6policyNtB7_16ActionConstraint26contains_only_action_types0Bb_
FN:821,_RNCNvNtNtCsfZPcC2TrjjJ_17cedar_policy_core3ast6policy16display_slot_env0B7_
FN:1862,_RNCNvXsr_NtNtCsfZPcC2TrjjJ_17cedar_policy_core3ast6policyNtB7_16ActionConstraintNtNtCsaNl6UpbT7bw_4core3fmt7Display3fmt0Bb_
FN:2100,_RNCNvNtNtNtCsfZPcC2TrjjJ_17cedar_policy_core3ast6policy15test_generators24all_resource_constraints0B9_
FN:2096,_RNCNvNtNtNtCsfZPcC2TrjjJ_17cedar_policy_core3ast6policy15test_generators25all_principal_constraints0B9_
FNDA:1,_RNvNtNtNtCsfZPcC2TrjjJ_17cedar_policy_core3ast6policy4tests_10ir_binding
FNDA:1,_RNvNtNtNtCsfZPcC2TrjjJ_17cedar_policy_core3ast6policy4tests_11action_iter
FNDA:1,_RNvNtNtNtCsfZPcC2TrjjJ_17cedar_policy_core3ast6policy4tests_14euid_into_expr
FNDA:1,_RNvNtNtNtCsfZPcC2TrjjJ_17cedar_policy_core3ast6policy4tests_14link_templates
FNDA:1,_RNvNtNtNtCsfZPcC2TrjjJ_17cedar_policy_core3ast6policy4tests_14policy_to_expr
FNDA:1,_RNvNtNtNtCsfZPcC2TrjjJ_17cedar_policy_core3ast6policy4tests_14test_iter_mult
FNDA:1,_RNvNtNtNtCsfZPcC2TrjjJ_17cedar_policy_core3ast6policy4tests_14test_iter_none
FNDA:1,_RNvNtNtNtCsfZPcC2TrjjJ_17cedar_policy_core3ast6policy4tests_14test_iter_once
FNDA:1,_RNvNtNtNtCsfZPcC2TrjjJ_17cedar_policy_core3ast6policy4tests_16non_template_iso
FNDA:1,_RNvNtNtNtCsfZPcC2TrjjJ_17cedar_policy_core3ast6policy4tests_17template_por_iter
FNDA:1,_RNvNtNtNtCsfZPcC2TrjjJ_17cedar_policy_core3ast6policy4tests_18ir_binding_too_few
FNDA:1,_RNvNtNtNtCsfZPcC2TrjjJ_17cedar_policy_core3ast6policy4tests_18template_into_expr
FNDA:1,_RNvNtNtNtCsfZPcC2TrjjJ_17cedar_policy_core3ast6policy4tests_19ir_binding_too_many
FNDA:1,_RNvNtNtNtCsfZPcC2TrjjJ_17cedar_policy_core3ast6policy4tests_20unexpected_templates
FNDA:1,_RNvNtNtNtCsfZPcC2TrjjJ_17cedar_policy_core3ast6policy4tests_21test_template_rebuild
FNDA:1,_RNvNtNtNtCsfZPcC2TrjjJ_17cedar_policy_core3ast6policy4tests_22por_constraint_display
FNDA:1,_RNvNtNtNtCsfZPcC2TrjjJ_17cedar_policy_core3ast6policy4tests_26test_static_policy_rebuild
FNDA:1,_RNvNtNtNtCsfZPcC2TrjjJ_17cedar_policy_core3ast6policy4tests_30is_template_implies_from_fails
FNDA:1,_RNvNtNtNtCsfZPcC2TrjjJ_17cedar_policy_core3ast6policy4tests_35isnt_template_implies_from_succeeds
FNDA:16,_RNvMs3_NtNtCsfZPcC2TrjjJ_17cedar_policy_core3ast6policyNtB5_6Policy10annotation
FNDA:36,_RNvMs3_NtNtCsfZPcC2TrjjJ_17cedar_policy_core3ast6policyNtB5_6Policy11annotations
FNDA:11,_RNvMs3_NtNtCsfZPcC2TrjjJ_17cedar_policy_core3ast6policyNtB5_6Policy12template_arc
FNDA:15,_RNvMs3_NtNtCsfZPcC2TrjjJ_17cedar_policy_core3ast6policyNtB5_6Policy15annotations_arc
FNDA:17,_RNvMs3_NtNtCsfZPcC2TrjjJ_17cedar_policy_core3ast6policyNtB5_6Policy15into_components
FNDA:0,_RNvMs3_NtNtCsfZPcC2TrjjJ_17cedar_policy_core3ast6policyNtB5_6Policy15new_template_id
FNDA:7,_RNvMs3_NtNtCsfZPcC2TrjjJ_17cedar_policy_core3ast6policyNtB5_6Policy16from_when_clause
FNDA:42,_RNvMs3_NtNtCsfZPcC2TrjjJ_17cedar_policy_core3ast6policyNtB5_6Policy17action_constraint
FNDA:42,_RNvMs3_NtNtCsfZPcC2TrjjJ_17cedar_policy_core3ast6policyNtB5_6Policy19resource_constraint
FNDA:42,_RNvMs3_NtNtCsfZPcC2TrjjJ_17cedar_policy_core3ast6policyNtB5_6Policy20principal_constraint
FNDA:35,_RNvMs3_NtNtCsfZPcC2TrjjJ_17cedar_policy_core3ast6policyNtB5_6Policy21non_scope_constraints
FNDA:44,_RNvMs3_NtNtCsfZPcC2TrjjJ_17cedar_policy_core3ast6policyNtB5_6Policy22from_when_clause_annos
FNDA:114,_RNvMs3_NtNtCsfZPcC2TrjjJ_17cedar_policy_core3ast6policyNtB5_6Policy2id
FNDA:30,_RNvMs3_NtNtCsfZPcC2TrjjJ_17cedar_policy_core3ast6policyNtB5_6Policy3env
FNDA:7,_RNvMs3_NtNtCsfZPcC2TrjjJ_17cedar_policy_core3ast6policyNtB5_6Policy3loc
FNDA:724,_RNvMs3_NtNtCsfZPcC2TrjjJ_17cedar_policy_core3ast6policyNtB5_6Policy3new
FNDA:51,_RNvMs3_NtNtCsfZPcC2TrjjJ_17cedar_policy_core3ast6policyNtB5_6Policy6effect
FNDA:2,_RNvMs3_NtNtCsfZPcC2TrjjJ_17cedar_policy_core3ast6policyNtB5_6Policy6new_id
FNDA:77,_RNvMs3_NtNtCsfZPcC2TrjjJ_17cedar_policy_core3ast6policyNtB5_6Policy8template
FNDA:18,_RNvMs3_NtNtCsfZPcC2TrjjJ_17cedar_policy_core3ast6policyNtB5_6Policy9condition
FNDA:159,_RNvMs3_NtNtCsfZPcC2TrjjJ_17cedar_policy_core3ast6policyNtB5_6Policy9is_static
FNDA:16,_RNvMs_NtNtCsfZPcC2TrjjJ_17cedar_policy_core3ast6policyNtB4_8Template10annotation
FNDA:44,_RNvMs_NtNtCsfZPcC2TrjjJ_17cedar_policy_core3ast6policyNtB4_8Template10new_shared
FNDA:39,_RNvMs_NtNtCsfZPcC2TrjjJ_17cedar_policy_core3ast6policyNtB4_8Template11annotations
FNDA:947,_RNvMs_NtNtCsfZPcC2TrjjJ_17cedar_policy_core3ast6policyNtB4_8Template13check_binding
FNDA:15,_RNvMs_NtNtCsfZPcC2TrjjJ_17cedar_policy_core3ast6policyNtB4_8Template15annotations_arc
FNDA:660,_RNvMs_NtNtCsfZPcC2TrjjJ_17cedar_policy_core3ast6policyNtB4_8Template15check_invariant
FNDA:1375,_RNvMs_NtNtCsfZPcC2TrjjJ_17cedar_policy_core3ast6policyNtB4_8Template17action_constraint
FNDA:460,_RNvMs_NtNtCsfZPcC2TrjjJ_17cedar_policy_core3ast6policyNtB4_8Template18link_static_policy
FNDA:2415,_RNvMs_NtNtCsfZPcC2TrjjJ_17cedar_policy_core3ast6policyNtB4_8Template19resource_constraint
FNDA:2407,_RNvMs_NtNtCsfZPcC2TrjjJ_17cedar_policy_core3ast6policyNtB4_8Template20principal_constraint
FNDA:1179,_RNvMs_NtNtCsfZPcC2TrjjJ_17cedar_policy_core3ast6policyNtB4_8Template21non_scope_constraints
FNDA:25,_RNvMs_NtNtCsfZPcC2TrjjJ_17cedar_policy_core3ast6policyNtB4_8Template28into_template_components_opt
FNDA:2675,_RNvMs_NtNtCsfZPcC2TrjjJ_17cedar_policy_core3ast6policyNtB4_8Template2id
FNDA:271,_RNvMs_NtNtCsfZPcC2TrjjJ_17cedar_policy_core3ast6policyNtB4_8Template3loc
FNDA:2567,_RNvMs_NtNtCsfZPcC2TrjjJ_17cedar_policy_core3ast6policyNtB4_8Template3new
FNDA:223,_RNvMs_NtNtCsfZPcC2TrjjJ_17cedar_policy_core3ast6policyNtB4_8Template4link
FNDA:4884,_RNvMs_NtNtCsfZPcC2TrjjJ_17cedar_policy_core3ast6policyNtB4_8Template5slots
FNDA:727,_RNvMs_NtNtCsfZPcC2TrjjJ_17cedar_policy_core3ast6policyNtB4_8Template6effect
FNDA:3,_RNvMs_NtNtCsfZPcC2TrjjJ_17cedar_policy_core3ast6policyNtB4_8Template6new_id
FNDA:676,_RNvMs_NtNtCsfZPcC2TrjjJ_17cedar_policy_core3ast6policyNtB4_8Template9condition
FNDA:6,_RNvMs_NtNtCsfZPcC2TrjjJ_17cedar_policy_core3ast6policyNtB4_8Template9is_static
FNDA:4,_RNvMsa_NtNtCsfZPcC2TrjjJ_17cedar_policy_core3ast6policyNtB5_12StaticPolicy10annotation
FNDA:72,_RNvMsa_NtNtCsfZPcC2TrjjJ_17cedar_policy_core3ast6policyNtB5_12StaticPolicy11annotations
FNDA:72,_RNvMsa_NtNtCsfZPcC2TrjjJ_17cedar_policy_core3ast6policyNtB5_12StaticPolicy17action_constraint
FNDA:72,_RNvMsa_NtNtCsfZPcC2TrjjJ_17cedar_policy_core3ast6policyNtB5_12StaticPolicy19resource_constraint
FNDA:72,_RNvMsa_NtNtCsfZPcC2TrjjJ_17cedar_policy_core3ast6policyNtB5_12StaticPolicy20principal_constraint
FNDA:72,_RNvMsa_NtNtCsfZPcC2TrjjJ_17cedar_policy_core3ast6policyNtB5_12StaticPolicy21non_scope_constraints
FNDA:91,_RNvMsa_NtNtCsfZPcC2TrjjJ_17cedar_policy_core3ast6policyNtB5_12StaticPolicy2id
FNDA:41,_RNvMsa_NtNtCsfZPcC2TrjjJ_17cedar_policy_core3ast6policyNtB5_12StaticPolicy3loc
FNDA:78,_RNvMsa_NtNtCsfZPcC2TrjjJ_17cedar_policy_core3ast6policyNtB5_12StaticPolicy3new
FNDA:144,_RNvMsa_NtNtCsfZPcC2TrjjJ_17cedar_policy_core3ast6policyNtB5_12StaticPolicy6effect
FNDA:73,_RNvMsa_NtNtCsfZPcC2TrjjJ_17cedar_policy_core3ast6policyNtB5_12StaticPolicy9condition
FNDA:20,_RNvMse_NtNtCsfZPcC2TrjjJ_17cedar_policy_core3ast6policyNtB5_12TemplateBody10annotation
FNDA:44,_RNvMse_NtNtCsfZPcC2TrjjJ_17cedar_policy_core3ast6policyNtB5_12TemplateBody10new_shared
FNDA:111,_RNvMse_NtNtCsfZPcC2TrjjJ_17cedar_policy_core3ast6policyNtB5_12TemplateBody11annotations
FNDA:15,_RNvMse_NtNtCsfZPcC2TrjjJ_17cedar_policy_core3ast6policyNtB5_12TemplateBody15annotations_arc
FNDA:1730,_RNvMse_NtNtCsfZPcC2TrjjJ_17cedar_policy_core3ast6policyNtB5_12TemplateBody17action_constraint
FNDA:25,_RNvMse_NtNtCsfZPcC2TrjjJ_17cedar_policy_core3ast6policyNtB5_12TemplateBody19into_components_opt
FNDA:2770,_RNvMse_NtNtCsfZPcC2TrjjJ_17cedar_policy_core3ast6policyNtB5_12TemplateBody19resource_constraint
FNDA:2762,_RNvMse_NtNtCsfZPcC2TrjjJ_17cedar_policy_core3ast6policyNtB5_12TemplateBody20principal_constraint
FNDA:5792,_RNvMse_NtNtCsfZPcC2TrjjJ_17cedar_policy_core3ast6policyNtB5_12TemplateBody21non_scope_constraints
FNDA:4258,_RNvMse_NtNtCsfZPcC2TrjjJ_17cedar_policy_core3ast6policyNtB5_12TemplateBody22action_constraint_expr
FNDA:4258,_RNvMse_NtNtCsfZPcC2TrjjJ_17cedar_policy_core3ast6policyNtB5_12TemplateBody24resource_constraint_expr
FNDA:4258,_RNvMse_NtNtCsfZPcC2TrjjJ_17cedar_policy_core3ast6policyNtB5_12TemplateBody25principal_constraint_expr
FNDA:2766,_RNvMse_NtNtCsfZPcC2TrjjJ_17cedar_policy_core3ast6policyNtB5_12TemplateBody2id
FNDA:4570,_RNvMse_NtNtCsfZPcC2TrjjJ_17cedar_policy_core3ast6policyNtB5_12TemplateBody3loc
FNDA:2645,_RNvMse_NtNtCsfZPcC2TrjjJ_17cedar_policy_core3ast6policyNtB5_12TemplateBody3new
FNDA:1154,_RNvMse_NtNtCsfZPcC2TrjjJ_17cedar_policy_core3ast6policyNtB5_12TemplateBody6effect
FNDA:3,_RNvMse_NtNtCsfZPcC2TrjjJ_17cedar_policy_core3ast6policyNtB5_12TemplateBody6new_id
FNDA:4258,_RNvMse_NtNtCsfZPcC2TrjjJ_17cedar_policy_core3ast6policyNtB5_12TemplateBody9condition
FNDA:25,_RNvMsh_NtNtCsfZPcC2TrjjJ_17cedar_policy_core3ast6policyNtB5_19PrincipalConstraint10into_inner
FNDA:9,_RNvMsh_NtNtCsfZPcC2TrjjJ_17cedar_policy_core3ast6policyNtB5_19PrincipalConstraint10is_eq_slot
FNDA:2,_RNvMsh_NtNtCsfZPcC2TrjjJ_17cedar_policy_core3ast6policyNtB5_19PrincipalConstraint10is_in_slot
FNDA:4,_RNvMsh_NtNtCsfZPcC2TrjjJ_17cedar_policy_core3ast6policyNtB5_19PrincipalConstraint14is_entity_type
FNDA:3,_RNvMsh_NtNtCsfZPcC2TrjjJ_17cedar_policy_core3ast6policyNtB5_19PrincipalConstraint16with_filled_slot
FNDA:4,_RNvMsh_NtNtCsfZPcC2TrjjJ_17cedar_policy_core3ast6policyNtB5_19PrincipalConstraint17is_entity_type_in
FNDA:2,_RNvMsh_NtNtCsfZPcC2TrjjJ_17cedar_policy_core3ast6policyNtB5_19PrincipalConstraint22is_entity_type_in_slot
FNDA:75,_RNvMsh_NtNtCsfZPcC2TrjjJ_17cedar_policy_core3ast6policyNtB5_19PrincipalConstraint3any
FNDA:1031,_RNvMsh_NtNtCsfZPcC2TrjjJ_17cedar_policy_core3ast6policyNtB5_19PrincipalConstraint3new
FNDA:7,_RNvMsh_NtNtCsfZPcC2TrjjJ_17cedar_policy_core3ast6policyNtB5_19PrincipalConstraint5is_eq
FNDA:1,_RNvMsh_NtNtCsfZPcC2TrjjJ_17cedar_policy_core3ast6policyNtB5_19PrincipalConstraint5is_in
FNDA:4258,_RNvMsh_NtNtCsfZPcC2TrjjJ_17cedar_policy_core3ast6policyNtB5_19PrincipalConstraint7as_expr
FNDA:1949,_RNvMsh_NtNtCsfZPcC2TrjjJ_17cedar_policy_core3ast6policyNtB5_19PrincipalConstraint8as_inner
FNDA:25,_RNvMsj_NtNtCsfZPcC2TrjjJ_17cedar_policy_core3ast6policyNtB5_18ResourceConstraint10into_inner
FNDA:3,_RNvMsj_NtNtCsfZPcC2TrjjJ_17cedar_policy_core3ast6policyNtB5_18ResourceConstraint10is_eq_slot
FNDA:4,_RNvMsj_NtNtCsfZPcC2TrjjJ_17cedar_policy_core3ast6policyNtB5_18ResourceConstraint10is_in_slot
FNDA:2,_RNvMsj_NtNtCsfZPcC2TrjjJ_17cedar_policy_core3ast6policyNtB5_18ResourceConstraint14is_entity_type
FNDA:8,_RNvMsj_NtNtCsfZPcC2TrjjJ_17cedar_policy_core3ast6policyNtB5_18ResourceConstraint16with_filled_slot
FNDA:2,_RNvMsj_NtNtCsfZPcC2TrjjJ_17cedar_policy_core3ast6policyNtB5_18ResourceConstraint17is_entity_type_in
FNDA:2,_RNvMsj_NtNtCsfZPcC2TrjjJ_17cedar_policy_core3ast6policyNtB5_18ResourceConstraint22is_entity_type_in_slot
FNDA:81,_RNvMsj_NtNtCsfZPcC2TrjjJ_17cedar_policy_core3ast6policyNtB5_18ResourceConstraint3any
FNDA:1033,_RNvMsj_NtNtCsfZPcC2TrjjJ_17cedar_policy_core3ast6policyNtB5_18ResourceConstraint3new
FNDA:3,_RNvMsj_NtNtCsfZPcC2TrjjJ_17cedar_policy_core3ast6policyNtB5_18ResourceConstraint5is_eq
FNDA:4,_RNvMsj_NtNtCsfZPcC2TrjjJ_17cedar_policy_core3ast6policyNtB5_18ResourceConstraint5is_in
FNDA:4258,_RNvMsj_NtNtCsfZPcC2TrjjJ_17cedar_policy_core3ast6policyNtB5_18ResourceConstraint7as_expr
FNDA:2237,_RNvMsj_NtNtCsfZPcC2TrjjJ_17cedar_policy_core3ast6policyNtB5_18ResourceConstraint8as_inner
FNDA:624,_RNvMsl_NtNtCsfZPcC2TrjjJ_17cedar_policy_core3ast6policyNtB5_15EntityReference4euid
FNDA:5005,_RNvMsl_NtNtCsfZPcC2TrjjJ_17cedar_policy_core3ast6policyNtB5_15EntityReference9into_expr
FNDA:12,_RNvMsq_NtNtCsfZPcC2TrjjJ_17cedar_policy_core3ast6policyNtB5_29PrincipalOrResourceConstraint10is_eq_slot
FNDA:6,_RNvMsq_NtNtCsfZPcC2TrjjJ_17cedar_policy_core3ast6policyNtB5_29PrincipalOrResourceConstraint10is_in_slot
FNDA:10,_RNvMsq_NtNtCsfZPcC2TrjjJ_17cedar_policy_core3ast6policyNtB5_29PrincipalOrResourceConstraint14is_entity_type
FNDA:8,_RNvMsq_NtNtCsfZPcC2TrjjJ_17cedar_policy_core3ast6policyNtB5_29PrincipalOrResourceConstraint17is_entity_type_in
FNDA:6,_RNvMsq_NtNtCsfZPcC2TrjjJ_17cedar_policy_core3ast6policyNtB5_29PrincipalOrResourceConstraint22is_entity_type_in_slot
FNDA:362,_RNvMsq_NtNtCsfZPcC2TrjjJ_17cedar_policy_core3ast6policyNtB5_29PrincipalOrResourceConstraint22iter_entity_type_names
FNDA:324,_RNvMsq_NtNtCsfZPcC2TrjjJ_17cedar_policy_core3ast6policyNtB5_29PrincipalOrResourceConstraint3any
FNDA:178,_RNvMsq_NtNtCsfZPcC2TrjjJ_17cedar_policy_core3ast6policyNtB5_29PrincipalOrResourceConstraint5is_eq
FNDA:173,_RNvMsq_NtNtCsfZPcC2TrjjJ_17cedar_policy_core3ast6policyNtB5_29PrincipalOrResourceConstraint5is_in
FNDA:8516,_RNvMsq_NtNtCsfZPcC2TrjjJ_17cedar_policy_core3ast6policyNtB5_29PrincipalOrResourceConstraint7as_expr
FNDA:568,_RNvMsq_NtNtCsfZPcC2TrjjJ_17cedar_policy_core3ast6policyNtB5_29PrincipalOrResourceConstraint7display
FNDA:1088,_RNvMsq_NtNtCsfZPcC2TrjjJ_17cedar_policy_core3ast6policyNtB5_29PrincipalOrResourceConstraint8get_euid
FNDA:543,_RNvMss_NtNtCsfZPcC2TrjjJ_17cedar_policy_core3ast6policyNtB5_16ActionConstraint10iter_euids
FNDA:181,_RNvMss_NtNtCsfZPcC2TrjjJ_17cedar_policy_core3ast6policyNtB5_16ActionConstraint22iter_entity_type_names
FNDA:374,_RNvMss_NtNtCsfZPcC2TrjjJ_17cedar_policy_core3ast6policyNtB5_16ActionConstraint26contains_only_action_types
FNDA:130,_RNvMss_NtNtCsfZPcC2TrjjJ_17cedar_policy_core3ast6policyNtB5_16ActionConstraint3any
FNDA:215,_RNvMss_NtNtCsfZPcC2TrjjJ_17cedar_policy_core3ast6policyNtB5_16ActionConstraint5is_eq
FNDA:4258,_RNvMss_NtNtCsfZPcC2TrjjJ_17cedar_policy_core3ast6policyNtB5_16ActionConstraint7as_expr
FNDA:55,_RNvMsu_NtNtCsfZPcC2TrjjJ_17cedar_policy_core3ast6policyNtB5_8PolicyID12from_smolstr
FNDA:0,_RNvNtNtCsfZPcC2TrjjJ_17cedar_policy_core3ast6policy16display_slot_env
FNDA:0,_RNvNtNtCsfZPcC2TrjjJ_17cedar_policy_core3ast6policy20describe_arity_error
FNDA:2611,_RNvXs0_NtNtCsfZPcC2TrjjJ_17cedar_policy_core3ast6policyNtB5_8TemplateINtNtCsaNl6UpbT7bw_4core7convert4FromNtB5_12TemplateBodyE4from
FNDA:283,_RNvXs1_NtNtCsfZPcC2TrjjJ_17cedar_policy_core3ast6policyNtB5_8TemplateNtNtCsaNl6UpbT7bw_4core3fmt7Display3fmt
FNDA:64,_RNvXs4_NtNtCsfZPcC2TrjjJ_17cedar_policy_core3ast6policyNtB5_6PolicyNtNtCsaNl6UpbT7bw_4core3fmt7Display3fmt
FNDA:1122,_RNvXsb_NtNtCsfZPcC2TrjjJ_17cedar_policy_core3ast6policyNtB5_12StaticPolicyINtNtCsaNl6UpbT7bw_4core7convert7TryFromNtB5_8TemplateE8try_from
FNDA:107,_RNvXsc_NtNtCsfZPcC2TrjjJ_17cedar_policy_core3ast6policyNtB5_6PolicyINtNtCsaNl6UpbT7bw_4core7convert4FromNtB5_12StaticPolicyE4from
FNDA:460,_RNvXsf_NtNtCsfZPcC2TrjjJ_17cedar_policy_core3ast6policyNtB5_12TemplateBodyINtNtCsaNl6UpbT7bw_4core7convert4FromNtB5_12StaticPolicyE4from
FNDA:283,_RNvXsg_NtNtCsfZPcC2TrjjJ_17cedar_policy_core3ast6policyNtB5_12TemplateBodyNtNtCsaNl6UpbT7bw_4core3fmt7Display3fmt
FNDA:283,_RNvXsi_NtNtCsfZPcC2TrjjJ_17cedar_policy_core3ast6policyNtB5_19PrincipalConstraintNtNtCsaNl6UpbT7bw_4core3fmt7Display3fmt
FNDA:283,_RNvXsk_NtNtCsfZPcC2TrjjJ_17cedar_policy_core3ast6policyNtB5_18ResourceConstraintNtNtCsaNl6UpbT7bw_4core3fmt7Display3fmt
FNDA:568,_RNvXso_NtNtCsfZPcC2TrjjJ_17cedar_policy_core3ast6policyNtB5_19PrincipalOrResourceNtNtCsaNl6UpbT7bw_4core3fmt7Display3fmt
FNDA:283,_RNvXsr_NtNtCsfZPcC2TrjjJ_17cedar_policy_core3ast6policyNtB5_16ActionConstraintNtNtCsaNl6UpbT7bw_4core3fmt7Display3fmt
FNDA:0,_RNvXst_NtNtCsfZPcC2TrjjJ_17cedar_policy_core3ast6policyNtB5_12StaticPolicyNtNtCsaNl6UpbT7bw_4core3fmt7Display3fmt
FNDA:219,_RNvXsv_NtNtCsfZPcC2TrjjJ_17cedar_policy_core3ast6policyNtB5_8PolicyIDNtNtCsaNl6UpbT7bw_4core3fmt7Display3fmt
FNDA:200,_RNvXsw_NtNtCsfZPcC2TrjjJ_17cedar_policy_core3ast6policyNtB5_8PolicyIDINtNtCsaNl6UpbT7bw_4core7convert5AsRefeE6as_ref
FNDA:319,_RNvXsx_NtNtCsfZPcC2TrjjJ_17cedar_policy_core3ast6policyNtB5_6EffectNtNtCsaNl6UpbT7bw_4core3fmt7Display3fmt
FNDA:563,_RNvXsy_NtNtCsfZPcC2TrjjJ_17cedar_policy_core3ast6policyNtB5_14EntityIteratorNtNtNtNtCsaNl6UpbT7bw_4core4iter6traits8iterator8Iterator4next
FNDA:159,_RNvXsd_NtNtCsfZPcC2TrjjJ_17cedar_policy_core3ast6policyINtNtCsiTraAjBDcu4_5alloc4sync3ArcNtB5_8TemplateEINtNtCsaNl6UpbT7bw_4core7convert4FromNtB5_12StaticPolicyE4from
FNDA:0,_RNCNvMs3_NtNtCsfZPcC2TrjjJ_17cedar_policy_core3ast6policyNtB7_6Policy16unknown_entities0Bb_
FNDA:0,_RNCNvMs7_NtNtCsfZPcC2TrjjJ_17cedar_policy_core3ast6policyNtB7_13LiteralPolicy5reify0Bb_
FNDA:0,_RNCNvXsm_NtNtCsfZPcC2TrjjJ_17cedar_policy_core3ast6policyNtB7_19UnexpectedSlotErrorNtNtCsdupp4Rg7VfC_6miette8protocol10Diagnostic11source_code0Bb_
FNDA:0,_RNCNvXsm_NtNtCsfZPcC2TrjjJ_17cedar_policy_core3ast6policyNtB7_19UnexpectedSlotErrorNtNtCsdupp4Rg7VfC_6miette8protocol10Diagnostic6labels0Bb_
FNDA:0,_RNvMs3_NtNtCsfZPcC2TrjjJ_17cedar_policy_core3ast6policyNtB5_6Policy16unknown_entities
FNDA:0,_RNvMs3_NtNtCsfZPcC2TrjjJ_17cedar_policy_core3ast6policyNtB5_6Policy25non_scope_constraints_arc
FNDA:0,_RNvMs5_NtNtCsfZPcC2TrjjJ_17cedar_policy_core3ast6policyNtB5_13LiteralPolicy13static_policy
FNDA:0,_RNvMs5_NtNtCsfZPcC2TrjjJ_17cedar_policy_core3ast6policyNtB5_13LiteralPolicy22template_linked_policy
FNDA:0,_RNvMs5_NtNtCsfZPcC2TrjjJ_17cedar_policy_core3ast6policyNtB5_13LiteralPolicy5value
FNDA:0,_RNvMs7_NtNtCsfZPcC2TrjjJ_17cedar_policy_core3ast6policyNtB5_13LiteralPolicy11template_id
FNDA:0,_RNvMs7_NtNtCsfZPcC2TrjjJ_17cedar_policy_core3ast6policyNtB5_13LiteralPolicy2id
FNDA:0,_RNvMs7_NtNtCsfZPcC2TrjjJ_17cedar_policy_core3ast6policyNtB5_13LiteralPolicy3get
FNDA:0,_RNvMs7_NtNtCsfZPcC2TrjjJ_17cedar_policy_core3ast6policyNtB5_13LiteralPolicy5reify
FNDA:0,_RNvMs7_NtNtCsfZPcC2TrjjJ_17cedar_policy_core3ast6policyNtB5_13LiteralPolicy9is_static
FNDA:0,_RNvMs_NtNtCsfZPcC2TrjjJ_17cedar_policy_core3ast6policyNtB4_8Template25non_scope_constraints_arc
FNDA:0,_RNvMsa_NtNtCsfZPcC2TrjjJ_17cedar_policy_core3ast6policyNtB5_12StaticPolicy22action_constraint_expr
FNDA:0,_RNvMsa_NtNtCsfZPcC2TrjjJ_17cedar_policy_core3ast6policyNtB5_12StaticPolicy24resource_constraint_expr
FNDA:0,_RNvMsa_NtNtCsfZPcC2TrjjJ_17cedar_policy_core3ast6policyNtB5_12StaticPolicy25principal_constraint_expr
FNDA:0,_RNvMsa_NtNtCsfZPcC2TrjjJ_17cedar_policy_core3ast6policyNtB5_12StaticPolicy6new_id
FNDA:0,_RNvMse_NtNtCsfZPcC2TrjjJ_17cedar_policy_core3ast6policyNtB5_12TemplateBody25non_scope_constraints_arc
FNDA:0,_RNvXNtNtCsfZPcC2TrjjJ_17cedar_policy_core3ast6policyNtB2_12TemplateBodyINtNtCsaNl6UpbT7bw_4core7convert4FromNtB2_8TemplateE4from
FNDA:0,_RNvXs8_NtNtCsfZPcC2TrjjJ_17cedar_policy_core3ast6policyNtB5_13LiteralPolicyNtNtCsaNl6UpbT7bw_4core3fmt7Display3fmt
FNDA:0,_RNvXs9_NtNtCsfZPcC2TrjjJ_17cedar_policy_core3ast6policyNtB5_13LiteralPolicyINtNtCsaNl6UpbT7bw_4core7convert4FromNtB5_6PolicyE4from
FNDA:0,_RNvXsm_NtNtCsfZPcC2TrjjJ_17cedar_policy_core3ast6policyNtB5_19UnexpectedSlotErrorNtNtCsdupp4Rg7VfC_6miette8protocol10Diagnostic11source_code
FNDA:0,_RNvXsm_NtNtCsfZPcC2TrjjJ_17cedar_policy_core3ast6policyNtB5_19UnexpectedSlotErrorNtNtCsdupp4Rg7VfC_6miette8protocol10Diagnostic6labels
FNDA:0,_RNvXsn_NtNtCsfZPcC2TrjjJ_17cedar_policy_core3ast6policyNtB5_15EntityReferenceINtNtCsaNl6UpbT7bw_4core7convert4FromNtNtB7_6entity9EntityUIDE4from
FNDA:0,_RNvXsp_NtNtCsfZPcC2TrjjJ_17cedar_policy_core3ast6policyNtB5_19PrincipalOrResourceINtNtCsaNl6UpbT7bw_4core7convert7TryFromNtNtB7_4expr3VarE8try_from
FNDA:2,_RNvNtNtNtCsfZPcC2TrjjJ_17cedar_policy_core3ast6policy13hashing_tests12compute_hash
FNDA:2,_RNvNtNtNtCsfZPcC2TrjjJ_17cedar_policy_core3ast6policy13hashing_tests28build_template_linked_policy
FNDA:1,_RNvNtNtNtCsfZPcC2TrjjJ_17cedar_policy_core3ast6policy13hashing_testss_23hash_property_instances
FNDA:8,_RNvNtNtNtCsfZPcC2TrjjJ_17cedar_policy_core3ast6policy15test_generators13all_templates
FNDA:168,_RNvNtNtNtCsfZPcC2TrjjJ_17cedar_policy_core3ast6policy15test_generators19all_por_constraints
FNDA:40,_RNvNtNtNtCsfZPcC2TrjjJ_17cedar_policy_core3ast6policy15test_generators23all_actions_constraints
FNDA:160,_RNvNtNtNtCsfZPcC2TrjjJ_17cedar_policy_core3ast6policy15test_generators24all_resource_constraints
FNDA:8,_RNvNtNtNtCsfZPcC2TrjjJ_17cedar_policy_core3ast6policy15test_generators25all_principal_constraints
FNDA:160,_RNCNvNtNtNtCsfZPcC2TrjjJ_17cedar_policy_core3ast6policy4tests_14link_templates0B9_
FNDA:0,_RNCNvNtNtNtCsfZPcC2TrjjJ_17cedar_policy_core3ast6policy4tests_26test_static_policy_rebuild0B9_
FNDA:3,_RINvMs2_NtNtCsfZPcC2TrjjJ_17cedar_policy_core3ast6policyNtB6_12LinkingError23from_unbound_and_extrasINtNtNtNtCsaNl6UpbT7bw_4core4iter8adapters3map3MapINtNtNtCsiTraAjBDcu4_5alloc3vec9into_iter8IntoIterRNtNtB8_4name4SlotENCNvMs_B6_NtB6_8Template13check_bindings0_0EINtNtB1F_6copied6CopiedIB2p_RNtB3f_6SlotIdEEEBa_
FNDA:1432,_RINvMss_NtNtCsfZPcC2TrjjJ_17cedar_policy_core3ast6policyNtB6_16ActionConstraint15euids_into_exprINtNtNtNtCsaNl6UpbT7bw_4core4iter8adapters6cloned6ClonedINtNtNtB1F_5slice4iter4IterINtNtCsiTraAjBDcu4_5alloc4sync3ArcNtNtB8_6entity9EntityUIDEEEEBa_
FNDA:53,_RINvMss_NtNtCsfZPcC2TrjjJ_17cedar_policy_core3ast6policyNtB6_16ActionConstraint5is_inANtNtB8_6entity9EntityUIDj1_EBa_
FNDA:41,_RINvMss_NtNtCsfZPcC2TrjjJ_17cedar_policy_core3ast6policyNtB6_16ActionConstraint5is_inANtNtB8_6entity9EntityUIDj2_EBa_
FNDA:118,_RINvMss_NtNtCsfZPcC2TrjjJ_17cedar_policy_core3ast6policyNtB6_16ActionConstraint5is_inINtNtCsiTraAjBDcu4_5alloc3vec3VecNtNtB8_6entity9EntityUIDEEBa_
FNDA:4,_RINvMsu_NtNtCsfZPcC2TrjjJ_17cedar_policy_core3ast6policyNtB6_8PolicyID11from_stringNtNtCsiTraAjBDcu4_5alloc6string6StringEBa_
FNDA:200,_RINvMsu_NtNtCsfZPcC2TrjjJ_17cedar_policy_core3ast6policyNtB6_8PolicyID11from_stringRBS_EBa_
FNDA:1510,_RINvMsu_NtNtCsfZPcC2TrjjJ_17cedar_policy_core3ast6policyNtB6_8PolicyID11from_stringReEBa_
FNDA:2,_RINvXs6_NtNtCsfZPcC2TrjjJ_17cedar_policy_core3ast6policyNtB6_13LiteralPolicyNtNtCsaNl6UpbT7bw_4core4hash4Hash4hashNtNtNtCsht3nMU9UgFu_3std4hash6random13DefaultHasherEBa_
FNDA:445,_RNCNCNvMs_NtNtCsfZPcC2TrjjJ_17cedar_policy_core3ast6policyNtB8_8Template13check_bindings_00Bc_
FNDA:154,_RNCNCNvXsr_NtNtCsfZPcC2TrjjJ_17cedar_policy_core3ast6policyNtB9_16ActionConstraintNtNtCsaNl6UpbT7bw_4core3fmt7Display3fmt00Bd_
FNDA:0,_RNCNvMs3_NtNtCsfZPcC2TrjjJ_17cedar_policy_core3ast6policyNtB7_6Policy15new_template_id0Bb_
FNDA:89,_RNCNvMs3_NtNtCsfZPcC2TrjjJ_17cedar_policy_core3ast6policyNtB7_6Policy2id0Bb_
FNDA:373,_RNCNvMs_NtNtCsfZPcC2TrjjJ_17cedar_policy_core3ast6policyNtB6_8Template13check_binding0Ba_
FNDA:370,_RNCNvMs_NtNtCsfZPcC2TrjjJ_17cedar_policy_core3ast6policyNtB6_8Template13check_bindings_0Ba_
FNDA:220,_RNCNvMs_NtNtCsfZPcC2TrjjJ_17cedar_policy_core3ast6policyNtB6_8Template4link0Ba_
FNDA:1597,_RNCNvMse_NtNtCsfZPcC2TrjjJ_17cedar_policy_core3ast6policyNtB7_12TemplateBody21non_scope_constraints0Bb_
FNDA:3133,_RNCNvMse_NtNtCsfZPcC2TrjjJ_17cedar_policy_core3ast6policyNtB7_12TemplateBody9condition0Bb_
FNDA:26,_RNCNvMsq_NtNtCsfZPcC2TrjjJ_17cedar_policy_core3ast6policyNtB7_29PrincipalOrResourceConstraint22iter_entity_type_names0Bb_
FNDA:16,_RNCNvMss_NtNtCsfZPcC2TrjjJ_17cedar_policy_core3ast6policyNtB7_16ActionConstraint22iter_entity_type_names0Bb_
FNDA:194,_RNCNvMss_NtNtCsfZPcC2TrjjJ_17cedar_policy_core3ast6policyNtB7_16ActionConstraint26contains_only_action_types0Bb_
FNDA:0,_RNCNvNtNtCsfZPcC2TrjjJ_17cedar_policy_core3ast6policy16display_slot_env0B7_
FNDA:103,_RNCNvXsr_NtNtCsfZPcC2TrjjJ_17cedar_policy_core3ast6policyNtB7_16ActionConstraintNtNtCsaNl6UpbT7bw_4core3fmt7Display3fmt0Bb_
FNDA:800,_RNCNvNtNtNtCsfZPcC2TrjjJ_17cedar_policy_core3ast6policy15test_generators24all_resource_constraints0B9_
FNDA:40,_RNCNvNtNtNtCsfZPcC2TrjjJ_17cedar_policy_core3ast6policy15test_generators25all_principal_constraints0B9_
FNF:214
FNH:180
DA:96,0
DA:97,0
DA:98,0
DA:105,660
DA:108,660
DA:109,160
DA:111,660
DA:112,160
DA:115,660
DA:122,2567
DA:123,2567
DA:124,2567
DA:125,2567
DA:126,2567
DA:127,2567
DA:128,2567
DA:129,2567
DA:130,2567
DA:131,2567
DA:132,2567
DA:133,2567
DA:134,2567
DA:135,2567
DA:136,2567
DA:137,2567
DA:138,2567
DA:139,2567
DA:140,2567
DA:144,2567
DA:145,2567
DA:159,44
DA:160,44
DA:161,44
DA:162,44
DA:163,44
DA:164,44
DA:165,44
DA:166,44
DA:167,44
DA:168,44
DA:169,44
DA:170,44
DA:171,44
DA:172,44
DA:173,44
DA:174,44
DA:175,44
DA:176,44
DA:177,44
DA:181,44
DA:182,44
DA:188,25
DA:189,25
DA:190,25
DA:191,25
DA:192,25
DA:193,25
DA:194,25
DA:195,25
DA:196,25
DA:197,25
DA:198,25
DA:199,25
DA:200,25
DA:203,2407
DA:204,2407
DA:205,2407
DA:208,1375
DA:209,1375
DA:210,1375
DA:213,2415
DA:214,2415
DA:215,2415
DA:218,1179
DA:219,1179
DA:220,1179
DA:223,0
DA:224,0
DA:225,0
DA:228,2675
DA:229,2675
DA:230,2675
DA:233,3
DA:234,3
DA:235,3
DA:236,3
DA:237,3
DA:238,3
DA:241,271
DA:242,271
DA:243,271
DA:246,727
DA:247,727
DA:248,727
DA:251,16
DA:252,16
DA:253,16
DA:256,39
DA:257,39
DA:258,39
DA:261,15
DA:262,15
DA:263,15
DA:270,676
DA:271,676
DA:272,676
DA:275,4884
DA:276,4884
DA:277,4884
DA:283,6
DA:284,6
DA:285,6
DA:290,947
DA:291,947
DA:292,947
DA:293,947
DA:295,947
DA:296,947
DA:297,947
DA:298,947
DA:299,947
DA:301,947
DA:302,947
DA:303,947
DA:304,370
DA:305,370
DA:306,370
DA:307,445
DA:309,1
DA:311,369
DA:313,370
DA:314,947
DA:316,947
DA:317,944
DA:319,3
DA:320,3
DA:321,3
DA:324,947
DA:329,223
DA:330,223
DA:331,223
DA:332,223
DA:333,223
DA:335,223
DA:336,223
DA:337,223
DA:341,460
DA:342,460
DA:346,460
DA:347,460
DA:348,460
DA:349,460
DA:350,460
DA:351,460
DA:352,460
DA:353,460
DA:357,2611
DA:360,2611
DA:361,2611
DA:362,2611
DA:366,283
DA:367,283
DA:368,283
DA:400,3
DA:401,3
DA:402,3
DA:403,3
DA:404,3
DA:405,3
DA:406,3
DA:407,3
DA:408,3
DA:411,0
DA:412,0
DA:413,0
DA:414,0
DA:415,0
DA:416,0
DA:418,0
DA:419,0
DA:420,0
DA:421,0
DA:423,0
DA:453,724
DA:455,724
DA:456,724
DA:457,724
DA:458,724
DA:459,724
DA:460,724
DA:461,724
DA:462,724
DA:463,724
DA:464,724
DA:465,724
DA:466,724
DA:467,724
DA:470,7
DA:471,7
DA:472,7
DA:473,7
DA:474,7
DA:475,7
DA:476,7
DA:478,7
DA:481,44
DA:482,44
DA:483,44
DA:484,44
DA:485,44
DA:486,44
DA:487,44
DA:488,44
DA:489,44
DA:490,44
DA:491,44
DA:492,44
DA:493,44
DA:494,44
DA:495,44
DA:496,44
DA:498,44
DA:499,44
DA:501,17
DA:502,17
DA:503,17
DA:506,77
DA:507,77
DA:508,77
DA:511,11
DA:512,11
DA:513,11
DA:516,51
DA:517,51
DA:518,51
DA:521,16
DA:522,16
DA:523,16
DA:526,36
DA:527,36
DA:528,36
DA:531,15
DA:532,15
DA:533,15
DA:540,42
DA:541,42
DA:542,42
DA:543,39
DA:544,3
DA:546,42
DA:549,42
DA:550,42
DA:551,42
DA:558,42
DA:559,42
DA:560,42
DA:561,34
DA:562,8
DA:564,42
DA:567,35
DA:568,35
DA:569,35
DA:572,0
DA:573,0
DA:574,0
DA:577,18
DA:578,18
DA:579,18
DA:583,30
DA:584,30
DA:585,30
DA:588,114
DA:589,114
DA:590,114
DA:593,2
DA:594,2
DA:595,2
DA:596,2
DA:597,2
DA:598,2
DA:599,2
DA:600,0
DA:601,0
DA:602,0
DA:603,0
DA:604,0
DA:606,2
DA:610,0
DA:611,0
DA:612,0
DA:613,0
DA:614,0
DA:615,0
DA:616,0
DA:619,7
DA:620,7
DA:621,7
DA:624,159
DA:625,159
DA:626,159
DA:629,0
DA:630,0
DA:631,0
DA:632,0
DA:636,0
DA:637,0
DA:638,0
DA:640,0
DA:642,0
DA:644,0
DA:645,0
DA:649,64
DA:650,64
DA:651,64
DA:653,0
DA:654,0
DA:655,0
DA:656,0
DA:657,0
DA:660,64
DA:688,0
DA:689,0
DA:690,0
DA:691,0
DA:692,0
DA:693,0
DA:694,0
DA:699,0
DA:700,0
DA:701,0
DA:702,0
DA:703,0
DA:704,0
DA:705,0
DA:706,0
DA:707,0
DA:708,0
DA:709,0
DA:712,0
DA:713,0
DA:714,0
DA:720,2
DA:721,2
DA:723,2
DA:724,2
DA:725,4
DA:726,2
DA:727,2
DA:728,2
DA:729,2
DA:742,2
DA:743,2
DA:744,2
DA:745,2
DA:746,2
DA:748,2
DA:749,2
DA:750,2
DA:751,2
DA:752,2
DA:753,2
DA:754,2
DA:755,2
DA:756,2
DA:759,1
DA:760,1
DA:761,1
DA:762,1
DA:763,1
DA:764,1
DA:784,0
DA:785,0
DA:786,0
DA:787,0
DA:788,0
DA:789,0
DA:790,0
DA:792,0
DA:793,0
DA:794,0
DA:797,0
DA:798,0
DA:799,0
DA:802,0
DA:803,0
DA:804,0
DA:809,0
DA:810,0
DA:811,0
DA:814,0
DA:815,0
DA:816,0
DA:819,0
DA:820,0
DA:821,0
DA:822,0
DA:823,0
DA:826,0
DA:827,0
DA:828,0
DA:830,0
DA:831,0
DA:832,0
DA:833,0
DA:834,0
DA:837,0
DA:841,0
DA:842,0
DA:843,0
DA:844,0
DA:845,0
DA:846,0
DA:847,0
DA:858,91
DA:859,91
DA:860,91
DA:863,0
DA:864,0
DA:865,0
DA:868,41
DA:869,41
DA:870,41
DA:873,144
DA:874,144
DA:875,144
DA:878,4
DA:879,4
DA:880,4
DA:883,72
DA:884,72
DA:885,72
DA:888,72
DA:889,72
DA:890,72
DA:895,0
DA:896,0
DA:897,0
DA:900,72
DA:901,72
DA:902,72
DA:907,0
DA:908,0
DA:909,0
DA:912,72
DA:913,72
DA:914,72
DA:919,0
DA:920,0
DA:921,0
DA:927,72
DA:928,72
DA:929,72
DA:936,73
DA:937,73
DA:938,73
DA:945,78
DA:946,78
DA:947,78
DA:948,78
DA:949,78
DA:950,78
DA:951,78
DA:952,78
DA:953,78
DA:954,78
DA:955,78
DA:956,78
DA:957,78
DA:958,78
DA:959,78
DA:960,78
DA:961,78
DA:962,78
DA:963,78
DA:965,78
DA:967,78
DA:968,0
DA:969,78
DA:971,78
DA:977,1122
DA:979,1122
DA:980,1122
DA:981,514
DA:982,608
DA:984,1122
DA:988,107
DA:989,107
DA:990,107
DA:991,107
DA:995,159
DA:996,159
DA:997,159
DA:998,159
DA:1050,2766
DA:1051,2766
DA:1052,2766
DA:1056,2766
DA:1059,4570
DA:1060,4570
DA:1061,4570
DA:1065,4570
DA:1068,3
DA:1069,3
DA:1070,3
DA:1071,3
DA:1072,3
DA:1073,3
DA:1080,3
DA:1089,1154
DA:1090,1154
DA:1091,1154
DA:1095,1154
DA:1098,20
DA:1099,20
DA:1100,20
DA:1101,20
DA:1106,20
DA:1109,15
DA:1110,15
DA:1111,15
DA:1115,15
DA:1118,111
DA:1119,111
DA:1120,111
DA:1124,111
DA:1127,2762
DA:1128,2762
DA:1130,2762
DA:1132,2762
DA:1138,2762
DA:1143,4258
DA:1144,4258
DA:1146,4258
DA:1148,4258
DA:1152,4258
DA:1155,1730
DA:1156,1730
DA:1158,1730
DA:1159,1730
DA:1163,1730
DA:1168,4258
DA:1169,4258
DA:1171,4258
DA:1172,4258
DA:1176,4258
DA:1179,2770
DA:1180,2770
DA:1182,2770
DA:1184,2770
DA:1188,2770
DA:1193,4258
DA:1194,4258
DA:1196,4258
DA:1198,4258
DA:1202,4258
DA:1208,5792
DA:1209,5792
DA:1211,5792
DA:1213,5792
DA:1217,5792
DA:1220,0
DA:1221,0
DA:1223,0
DA:1225,0
DA:1229,0
DA:1233,25
DA:1234,25
DA:1235,25
DA:1236,25
DA:1237,25
DA:1238,25
DA:1239,25
DA:1240,25
DA:1241,25
DA:1242,25
DA:1243,25
DA:1244,25
DA:1246,25
DA:1248,25
DA:1249,25
DA:1250,25
DA:1251,25
DA:1252,25
DA:1253,25
DA:1254,25
DA:1255,25
DA:1256,25
DA:1257,25
DA:1258,25
DA:1259,25
DA:1260,25
DA:1261,25
DA:1262,25
DA:1266,25
DA:1273,4258
DA:1274,4258
DA:1276,4258
DA:1277,4258
DA:1278,4258
DA:1279,4258
DA:1280,4258
DA:1281,4258
DA:1282,4258
DA:1283,4258
DA:1284,4258
DA:1285,4258
DA:1287,4258
DA:1289,4258
DA:1291,4258
DA:1296,4258
DA:1303,44
DA:1304,44
DA:1305,44
DA:1306,44
DA:1307,44
DA:1308,44
DA:1309,44
DA:1310,44
DA:1311,44
DA:1312,44
DA:1313,44
DA:1314,44
DA:1315,44
DA:1316,44
DA:1317,44
DA:1318,44
DA:1319,44
DA:1320,44
DA:1321,44
DA:1322,44
DA:1323,44
DA:1330,2645
DA:1331,2645
DA:1332,2645
DA:1333,2645
DA:1334,2645
DA:1335,2645
DA:1336,2645
DA:1337,2645
DA:1338,2645
DA:1339,2645
DA:1340,2645
DA:1341,2645
DA:1342,2645
DA:1343,2645
DA:1344,2645
DA:1345,2645
DA:1346,2645
DA:1347,2645
DA:1348,2645
DA:1349,2645
DA:1350,2645
DA:1354,460
DA:1355,460
DA:1356,460
DA:1360,283
DA:1361,283
DA:1362,283
DA:1363,283
DA:1364,283
DA:1365,283
DA:1366,283
DA:1367,283
DA:1368,283
DA:1369,283
DA:1370,283
DA:1371,0
DA:1372,283
DA:1373,31
DA:1375,252
DA:1383,283
DA:1394,1031
DA:1395,1031
DA:1396,1031
DA:1399,1949
DA:1400,1949
DA:1401,1949
DA:1404,25
DA:1405,25
DA:1406,25
DA:1409,4258
DA:1410,4258
DA:1411,4258
DA:1414,75
DA:1415,75
DA:1416,75
DA:1417,75
DA:1418,75
DA:1421,7
DA:1422,7
DA:1423,7
DA:1424,7
DA:1425,7
DA:1428,9
DA:1429,9
DA:1430,9
DA:1431,9
DA:1432,9
DA:1435,1
DA:1436,1
DA:1437,1
DA:1438,1
DA:1439,1
DA:1442,2
DA:1443,2
DA:1444,2
DA:1445,2
DA:1446,2
DA:1449,2
DA:1450,2
DA:1451,2
DA:1452,2
DA:1453,2
DA:1456,4
DA:1457,4
DA:1458,4
DA:1459,4
DA:1460,4
DA:1463,4
DA:1464,4
DA:1465,4
DA:1466,4
DA:1467,4
DA:1470,3
DA:1471,1
DA:1472,0
DA:1473,0
DA:1474,0
DA:1475,1
DA:1476,1
DA:1477,1
DA:1478,2
DA:1479,2
DA:1480,2
DA:1481,2
DA:1482,2
DA:1483,2
DA:1489,0
DA:1491,3
DA:1495,283
DA:1496,283
DA:1497,283
DA:1498,283
DA:1499,283
DA:1501,283
DA:1512,1033
DA:1513,1033
DA:1514,1033
DA:1517,2237
DA:1518,2237
DA:1519,2237
DA:1522,25
DA:1523,25
DA:1524,25
DA:1527,4258
DA:1528,4258
DA:1529,4258
DA:1532,81
DA:1533,81
DA:1534,81
DA:1535,81
DA:1536,81
DA:1539,3
DA:1540,3
DA:1541,3
DA:1542,3
DA:1543,3
DA:1546,3
DA:1547,3
DA:1548,3
DA:1549,3
DA:1550,3
DA:1553,4
DA:1554,4
DA:1555,4
DA:1556,4
DA:1557,4
DA:1560,4
DA:1561,4
DA:1562,4
DA:1563,4
DA:1564,4
DA:1567,2
DA:1568,2
DA:1569,2
DA:1570,2
DA:1571,2
DA:1574,2
DA:1575,2
DA:1576,2
DA:1577,2
DA:1578,2
DA:1581,2
DA:1582,2
DA:1583,2
DA:1584,2
DA:1585,2
DA:1588,8
DA:1589,7
DA:1590,0
DA:1591,0
DA:1592,0
DA:1593,7
DA:1594,7
DA:1595,7
DA:1596,1
DA:1597,1
DA:1598,1
DA:1599,1
DA:1600,1
DA:1601,1
DA:1607,0
DA:1609,8
DA:1613,283
DA:1614,283
DA:1615,283
DA:1616,283
DA:1617,283
DA:1619,283
DA:1639,624
DA:1640,624
DA:1641,624
DA:1648,5005
DA:1649,5005
DA:1650,2723
DA:1651,2282
DA:1653,5005
DA:1665,0
DA:1666,0
DA:1667,0
DA:1668,0
DA:1669,0
DA:1670,0
DA:1672,0
DA:1674,0
DA:1675,0
DA:1676,0
DA:1678,0
DA:1682,0
DA:1683,0
DA:1684,0
DA:1698,568
DA:1699,568
DA:1700,568
DA:1701,568
DA:1707,0
DA:1708,0
DA:1709,0
DA:1710,0
DA:1711,0
DA:1712,0
DA:1714,0
DA:1735,324
DA:1736,324
DA:1737,324
DA:1740,178
DA:1741,178
DA:1742,178
DA:1745,12
DA:1746,12
DA:1747,12
DA:1750,6
DA:1751,6
DA:1752,6
DA:1755,173
DA:1756,173
DA:1757,173
DA:1760,6
DA:1761,6
DA:1762,6
DA:1765,8
DA:1766,8
DA:1767,8
DA:1770,10
DA:1771,10
DA:1772,10
DA:1777,8516
DA:1778,8516
DA:1779,3817
DA:1780,2329
DA:1781,2329
DA:1783,2259
DA:1784,2259
DA:1786,45
DA:1787,45
DA:1788,45
DA:1790,66
DA:1791,66
DA:1794,8516
DA:1799,568
DA:1800,568
DA:1801,176
DA:1802,176
DA:1804,184
DA:1805,184
DA:1807,10
DA:1808,10
DA:1810,6
DA:1811,6
DA:1813,192
DA:1815,568
DA:1818,1088
DA:1819,32
DA:1820,938
DA:1821,16
DA:1822,16
DA:1823,51
DA:1824,1
DA:1825,37
DA:1826,1
DA:1827,28
DA:1829,1088
DA:1832,362
DA:1833,362
DA:1834,362
DA:1835,362
DA:1836,362
DA:1837,9
DA:1838,21
DA:1839,341
DA:1841,362
DA:1860,283
DA:1861,283
DA:1862,154
DA:1863,283
DA:1864,122
DA:1865,103
DA:1866,103
DA:1868,58
DA:1872,283
DA:1877,130
DA:1878,130
DA:1879,130
DA:1882,212
DA:1883,212
DA:1884,212
DA:1887,215
DA:1888,215
DA:1889,215
DA:1891,1432
DA:1892,1432
DA:1893,1432
DA:1896,4258
DA:1897,4258
DA:1898,1855
DA:1899,1432
DA:1900,1432
DA:1901,1432
DA:1903,971
DA:1904,971
DA:1917,4258
DA:1920,543
DA:1921,543
DA:1922,480
DA:1923,7
DA:1924,7
DA:1926,56
DA:1930,543
DA:1933,181
DA:1934,181
DA:1935,181
DA:1939,374
DA:1940,374
DA:1941,64
DA:1942,131
DA:1943,6
DA:1944,194
DA:1946,6
DA:1948,125
DA:1951,179
DA:1952,179
DA:1953,175
DA:1955,4
DA:1961,374
DA:1965,0
DA:1966,0
DA:1967,0
DA:1968,0
DA:1969,0
DA:1970,0
DA:1972,0
DA:1973,0
DA:1974,0
DA:1975,0
DA:1976,0
DA:1977,0
DA:1978,0
DA:1979,0
DA:1980,0
DA:1981,0
DA:1983,0
DA:1991,0
DA:2000,1714
DA:2001,1714
DA:2002,1714
DA:2005,55
DA:2006,55
DA:2007,55
DA:2011,219
DA:2012,219
DA:2013,219
DA:2017,200
DA:2018,200
DA:2019,200
DA:2047,319
DA:2048,319
DA:2049,217
DA:2050,102
DA:2052,319
DA:2064,563
DA:2065,563
DA:2066,497
DA:2067,54
DA:2068,54
DA:2069,54
DA:2070,54
DA:2071,54
DA:2073,12
DA:2075,563
DA:2082,168
DA:2083,168
DA:2084,168
DA:2085,168
DA:2086,168
DA:2087,168
DA:2088,168
DA:2089,168
DA:2092,168
DA:2093,168
DA:2095,8
DA:2096,40
DA:2097,8
DA:2099,160
DA:2100,800
DA:2101,160
DA:2103,40
DA:2104,40
DA:2105,40
DA:2106,40
DA:2107,40
DA:2108,40
DA:2109,40
DA:2110,40
DA:2111,40
DA:2114,40
DA:2115,40
DA:2117,8
DA:2118,8
DA:2119,8
DA:2120,8
DA:2121,40
DA:2122,160
DA:2123,800
DA:2124,800
DA:2125,800
DA:2126,800
DA:2127,800
DA:2128,800
DA:2129,800
DA:2130,800
DA:2131,800
DA:2132,800
DA:2133,800
DA:2134,800
DA:2135,800
DA:2136,800
DA:2137,800
DA:2138,800
DA:2139,800
DA:2140,800
DA:2141,800
DA:2142,800
DA:2143,800
DA:2144,800
DA:2145,800
DA:2146,800
DA:2149,8
DA:2150,8
DA:2168,1
DA:2169,200
DA:2170,200
DA:2171,200
DA:2172,200
DA:2173,200
DA:2174,200
DA:2175,200
DA:2176,200
DA:2178,1
DA:2181,1
DA:2182,200
DA:2183,200
DA:2184,200
DA:2185,200
DA:2186,200
DA:2187,200
DA:2188,200
DA:2189,200
DA:2190,200
DA:2192,1
DA:2195,1
DA:2196,200
DA:2197,200
DA:2198,72
DA:2199,72
DA:2200,72
DA:2201,72
DA:2202,72
DA:2203,72
DA:2204,72
DA:2205,72
DA:2206,72
DA:2207,72
DA:2208,72
DA:2209,72
DA:2210,72
DA:2211,72
DA:2212,72
DA:2213,72
DA:2214,128
DA:2216,1
DA:2219,1
DA:2220,1
DA:2221,1
DA:2222,1
DA:2223,1
DA:2224,1
DA:2225,1
DA:2226,1
DA:2227,1
DA:2228,1
DA:2229,1
DA:2230,1
DA:2232,1
DA:2233,1
DA:2234,1
DA:2235,1
DA:2236,1
DA:2238,1
DA:2241,1
DA:2242,1
DA:2243,1
DA:2244,1
DA:2245,1
DA:2246,1
DA:2247,1
DA:2248,1
DA:2249,1
DA:2250,1
DA:2251,1
DA:2252,1
DA:2254,1
DA:2255,1
DA:2256,1
DA:2258,1
DA:2259,1
DA:2260,1
DA:2261,1
DA:2262,1
DA:2264,1
DA:2267,1
DA:2268,1
DA:2269,1
DA:2270,1
DA:2271,1
DA:2272,1
DA:2273,1
DA:2274,1
DA:2275,1
DA:2276,1
DA:2277,1
DA:2278,1
DA:2281,1
DA:2282,1
DA:2283,1
DA:2285,1
DA:2286,1
DA:2287,1
DA:2288,1
DA:2289,1
DA:2291,1
DA:2292,1
DA:2293,1
DA:2295,1
DA:2298,1
DA:2299,200
DA:2300,200
DA:2301,72
DA:2302,128
DA:2304,1
DA:2307,1
DA:2308,200
DA:2309,200
DA:2310,128
DA:2311,128
DA:2312,0
DA:2314,72
DA:2316,1
DA:2319,1
DA:2320,200
DA:2321,200
DA:2322,72
DA:2323,72
DA:2324,128
DA:2326,1
DA:2329,1
DA:2330,200
DA:2331,200
DA:2332,72
DA:2333,72
DA:2334,72
DA:2335,128
DA:2337,1
DA:2340,1
DA:2341,1
DA:2342,1
DA:2343,1
DA:2344,1
DA:2345,1
DA:2347,1
DA:2348,1
DA:2351,1
DA:2352,1
DA:2353,1
DA:2355,1
DA:2356,1
DA:2359,1
DA:2360,1
DA:2361,1
DA:2362,1
DA:2363,1
DA:2364,1
DA:2365,1
DA:2367,1
DA:2368,1
DA:2371,1
DA:2372,1
DA:2373,1
DA:2374,1
DA:2375,1
DA:2376,1
DA:2379,1
DA:2382,1
DA:2383,1
DA:2384,1
DA:2385,1
DA:2386,1
DA:2387,1
DA:2388,1
DA:2389,1
DA:2390,1
DA:2391,1
DA:2392,1
DA:2393,1
DA:2394,1
DA:2397,1
DA:2398,1
DA:2399,1
DA:2400,1
DA:2403,1
DA:2404,1
DA:2405,1
DA:2406,1
DA:2407,1
DA:2409,1
DA:2410,1
DA:2411,1
DA:2412,1
DA:2415,1
DA:2416,1
DA:2417,1
DA:2418,1
DA:2419,1
DA:2421,1
DA:2422,1
DA:2423,1
DA:2424,1
DA:2426,1
DA:2427,1
DA:2428,1
DA:2429,1
DA:2430,1
DA:2431,1
DA:2434,1
DA:2435,1
DA:2436,1
DA:2437,1
DA:2438,1
DA:2440,1
DA:2441,1
DA:2442,1
DA:2443,1
DA:2445,1
DA:2448,1
DA:2449,1
DA:2450,1
DA:2451,1
DA:2452,1
DA:2453,1
DA:2454,1
DA:2455,1
DA:2456,1
DA:2457,1
DA:2460,1
DA:2461,1
DA:2462,1
DA:2463,1
DA:2464,1
DA:2465,1
DA:2466,1
DA:2467,1
DA:2468,1
DA:2469,1
DA:2470,1
DA:2472,1
DA:2473,1
DA:2474,1
DA:2475,1
DA:2476,1
DA:2477,1
DA:2478,1
DA:2479,1
DA:2480,1
DA:2482,1
DA:2484,1
DA:2487,1
DA:2488,1
DA:2489,1
DA:2490,1
DA:2491,1
DA:2492,1
DA:2493,1
DA:2494,1
DA:2496,1
BRF:0
BRH:0
LF:1352
LH:1168
end_of_record
SF:/Users/victornl/repos/cedar-spec/cedar/cedar-policy-core/src/ast/policy_set.rs
FN:69,_RINvMNtNtCsfZPcC2TrjjJ_17cedar_policy_core3ast10policy_setNtB3_16LiteralPolicySet3newppEB7_
FN:655,_RINvMs1_NtNtCsfZPcC2TrjjJ_17cedar_policy_core3ast10policy_setNtB6_9PolicySet13try_from_iterpEBa_
FN:107,_RNCNCNvXs_NtNtCsfZPcC2TrjjJ_17cedar_policy_core3ast10policy_setNtB8_9PolicySetINtNtCsaNl6UpbT7bw_4core7convert7TryFromNtB8_16LiteralPolicySetE8try_froms_00Bc_
FN:135,_RNCNvXs0_NtNtCsfZPcC2TrjjJ_17cedar_policy_core3ast10policy_setNtB7_16LiteralPolicySetINtNtCsaNl6UpbT7bw_4core7convert4FromNtB7_9PolicySetE4from0Bb_
FN:140,_RNCNvXs0_NtNtCsfZPcC2TrjjJ_17cedar_policy_core3ast10policy_setNtB7_16LiteralPolicySetINtNtCsaNl6UpbT7bw_4core7convert4FromNtB7_9PolicySetE4froms_0Bb_
FN:102,_RNCNvXs_NtNtCsfZPcC2TrjjJ_17cedar_policy_core3ast10policy_setNtB6_9PolicySetINtNtCsaNl6UpbT7bw_4core7convert7TryFromNtB6_16LiteralPolicySetE8try_from0Ba_
FN:107,_RNCNvXs_NtNtCsfZPcC2TrjjJ_17cedar_policy_core3ast10policy_setNtB6_9PolicySetINtNtCsaNl6UpbT7bw_4core7convert7TryFromNtB6_16LiteralPolicySetE8try_froms_0Ba_
FN:88,_RNvMNtNtCsfZPcC2TrjjJ_17cedar_policy_core3ast10policy_setNtB2_16LiteralPolicySet8policies
FN:82,_RNvMNtNtCsfZPcC2TrjjJ_17cedar_policy_core3ast10policy_setNtB2_16LiteralPolicySet9templates
FN:414,_RNvMs1_NtNtCsfZPcC2TrjjJ_17cedar_policy_core3ast10policy_setNtB5_9PolicySet13remove_static
FN:496,_RNvMs1_NtNtCsfZPcC2TrjjJ_17cedar_policy_core3ast10policy_setNtB5_9PolicySet15remove_template
FN:588,_RNvMs1_NtNtCsfZPcC2TrjjJ_17cedar_policy_core3ast10policy_setNtB5_9PolicySet6unlink
FN:131,_RNvXs0_NtNtCsfZPcC2TrjjJ_17cedar_policy_core3ast10policy_setNtB5_16LiteralPolicySetINtNtCsaNl6UpbT7bw_4core7convert4FromNtB5_9PolicySetE4from
FN:665,_RNvXs2_NtNtCsfZPcC2TrjjJ_17cedar_policy_core3ast10policy_setNtB5_9PolicySetNtNtCsaNl6UpbT7bw_4core3fmt7Display3fmt
FN:97,_RNvXs_NtNtCsfZPcC2TrjjJ_17cedar_policy_core3ast10policy_setNtB4_9PolicySetINtNtCsaNl6UpbT7bw_4core7convert7TryFromNtB4_16LiteralPolicySetE8try_from
FN:1189,_RNCNvNtNtNtCsfZPcC2TrjjJ_17cedar_policy_core3ast10policy_set4tests_26policy_set_insertion_order0B9_
FN:1200,_RNCNvNtNtNtCsfZPcC2TrjjJ_17cedar_policy_core3ast10policy_set4tests_26policy_set_insertion_orders_0B9_
FN:446,_RNvMs1_NtNtCsfZPcC2TrjjJ_17cedar_policy_core3ast10policy_setNtB5_9PolicySet10add_static
FN:475,_RNvMs1_NtNtCsfZPcC2TrjjJ_17cedar_policy_core3ast10policy_setNtB5_9PolicySet12add_template
FN:278,_RNvMs1_NtNtCsfZPcC2TrjjJ_17cedar_policy_core3ast10policy_setNtB5_9PolicySet12get_fresh_id
FN:645,_RNvMs1_NtNtCsfZPcC2TrjjJ_17cedar_policy_core3ast10policy_setNtB5_9PolicySet12get_template
FN:620,_RNvMs1_NtNtCsfZPcC2TrjjJ_17cedar_policy_core3ast10policy_setNtB5_9PolicySet13all_templates
FN:614,_RNvMs1_NtNtCsfZPcC2TrjjJ_17cedar_policy_core3ast10policy_setNtB5_9PolicySet13into_policies
FN:325,_RNvMs1_NtNtCsfZPcC2TrjjJ_17cedar_policy_core3ast10policy_setNtB5_9PolicySet15merge_policyset
FN:630,_RNvMs1_NtNtCsfZPcC2TrjjJ_17cedar_policy_core3ast10policy_setNtB5_9PolicySet15static_policies
FN:640,_RNvMs1_NtNtCsfZPcC2TrjjJ_17cedar_policy_core3ast10policy_setNtB5_9PolicySet16get_template_arc
FN:273,_RNvMs1_NtNtCsfZPcC2TrjjJ_17cedar_policy_core3ast10policy_setNtB5_9PolicySet18policy_id_is_bound
FN:534,_RNvMs1_NtNtCsfZPcC2TrjjJ_17cedar_policy_core3ast10policy_setNtB5_9PolicySet19get_linked_policies
FN:219,_RNvMs1_NtNtCsfZPcC2TrjjJ_17cedar_policy_core3ast10policy_setNtB5_9PolicySet3add
FN:650,_RNvMs1_NtNtCsfZPcC2TrjjJ_17cedar_policy_core3ast10policy_setNtB5_9PolicySet3get
FN:210,_RNvMs1_NtNtCsfZPcC2TrjjJ_17cedar_policy_core3ast10policy_setNtB5_9PolicySet3new
FN:551,_RNvMs1_NtNtCsfZPcC2TrjjJ_17cedar_policy_core3ast10policy_setNtB5_9PolicySet4link
FN:635,_RNvMs1_NtNtCsfZPcC2TrjjJ_17cedar_policy_core3ast10policy_setNtB5_9PolicySet8is_empty
FN:609,_RNvMs1_NtNtCsfZPcC2TrjjJ_17cedar_policy_core3ast10policy_setNtB5_9PolicySet8policies
FN:625,_RNvMs1_NtNtCsfZPcC2TrjjJ_17cedar_policy_core3ast10policy_setNtB5_9PolicySet9templates
FN:291,_RINvMs1_NtNtCsfZPcC2TrjjJ_17cedar_policy_core3ast10policy_setNtB6_9PolicySet15update_renamingINtNtCsiTraAjBDcu4_5alloc4sync3ArcNtNtB8_6policy8TemplateEEBa_
FN:291,_RINvMs1_NtNtCsfZPcC2TrjjJ_17cedar_policy_core3ast10policy_setNtB6_9PolicySet15update_renamingNtNtB8_6policy6PolicyEBa_
FN:621,_RNCNvMs1_NtNtCsfZPcC2TrjjJ_17cedar_policy_core3ast10policy_setNtB7_9PolicySet13all_templates0Bb_
FN:631,_RNCNvMs1_NtNtCsfZPcC2TrjjJ_17cedar_policy_core3ast10policy_setNtB7_9PolicySet15static_policies0Bb_
FN:560,_RNCNvMs1_NtNtCsfZPcC2TrjjJ_17cedar_policy_core3ast10policy_setNtB7_9PolicySet4link0Bb_
FN:626,_RNCNvMs1_NtNtCsfZPcC2TrjjJ_17cedar_policy_core3ast10policy_setNtB7_9PolicySet9templates0Bb_
FN:1087,_RNvNtNtNtCsfZPcC2TrjjJ_17cedar_policy_core3ast10policy_set4tests_11policy_sets
FN:1053,_RNvNtNtNtCsfZPcC2TrjjJ_17cedar_policy_core3ast10policy_set4tests_12link_slotmap
FN:730,_RNvNtNtNtCsfZPcC2TrjjJ_17cedar_policy_core3ast10policy_set4tests_13policyset_add
FN:696,_RNvNtNtNtCsfZPcC2TrjjJ_17cedar_policy_core3ast10policy_set4tests_14link_conflicts
FN:910,_RNvNtNtNtCsfZPcC2TrjjJ_17cedar_policy_core3ast10policy_set4tests_16policy_conflicts
FN:1019,_RNvNtNtNtCsfZPcC2TrjjJ_17cedar_policy_core3ast10policy_set4tests_17linking_empty_set
FN:1025,_RNvNtNtNtCsfZPcC2TrjjJ_17cedar_policy_core3ast10policy_set4tests_18linking_raw_policy
FN:989,_RNvNtNtNtCsfZPcC2TrjjJ_17cedar_policy_core3ast10policy_set4tests_18linkinv_valid_link
FN:930,_RNvNtNtNtCsfZPcC2TrjjJ_17cedar_policy_core3ast10policy_set4tests_18template_filtering
FN:960,_RNvNtNtNtCsfZPcC2TrjjJ_17cedar_policy_core3ast10policy_set4tests_24linking_missing_template
FN:812,_RNvNtNtNtCsfZPcC2TrjjJ_17cedar_policy_core3ast10policy_set4tests_25policy_merge_no_conflicts
FN:1183,_RNvNtNtNtCsfZPcC2TrjjJ_17cedar_policy_core3ast10policy_set4tests_26policy_set_insertion_order
FN:849,_RNvNtNtNtCsfZPcC2TrjjJ_17cedar_policy_core3ast10policy_set4tests_27policy_merge_with_conflicts
FNDA:0,_RINvMNtNtCsfZPcC2TrjjJ_17cedar_policy_core3ast10policy_setNtB3_16LiteralPolicySet3newppEB7_
FNDA:0,_RINvMs1_NtNtCsfZPcC2TrjjJ_17cedar_policy_core3ast10policy_setNtB6_9PolicySet13try_from_iterpEBa_
FNDA:0,_RNCNCNvXs_NtNtCsfZPcC2TrjjJ_17cedar_policy_core3ast10policy_setNtB8_9PolicySetINtNtCsaNl6UpbT7bw_4core7convert7TryFromNtB8_16LiteralPolicySetE8try_froms_00Bc_
FNDA:0,_RNCNvXs0_NtNtCsfZPcC2TrjjJ_17cedar_policy_core3ast10policy_setNtB7_16LiteralPolicySetINtNtCsaNl6UpbT7bw_4core7convert4FromNtB7_9PolicySetE4from0Bb_
FNDA:0,_RNCNvXs0_NtNtCsfZPcC2TrjjJ_17cedar_policy_core3ast10policy_setNtB7_16LiteralPolicySetINtNtCsaNl6UpbT7bw_4core7convert4FromNtB7_9PolicySetE4froms_0Bb_
FNDA:0,_RNCNvXs_NtNtCsfZPcC2TrjjJ_17cedar_policy_core3ast10policy_setNtB6_9PolicySetINtNtCsaNl6UpbT7bw_4core7convert7TryFromNtB6_16LiteralPolicySetE8try_from0Ba_
FNDA:0,_RNCNvXs_NtNtCsfZPcC2TrjjJ_17cedar_policy_core3ast10policy_setNtB6_9PolicySetINtNtCsaNl6UpbT7bw_4core7convert7TryFromNtB6_16LiteralPolicySetE8try_froms_0Ba_
FNDA:0,_RNvMNtNtCsfZPcC2TrjjJ_17cedar_policy_core3ast10policy_setNtB2_16LiteralPolicySet8policies
FNDA:0,_RNvMNtNtCsfZPcC2TrjjJ_17cedar_policy_core3ast10policy_setNtB2_16LiteralPolicySet9templates
FNDA:0,_RNvMs1_NtNtCsfZPcC2TrjjJ_17cedar_policy_core3ast10policy_setNtB5_9PolicySet13remove_static
FNDA:0,_RNvMs1_NtNtCsfZPcC2TrjjJ_17cedar_policy_core3ast10policy_setNtB5_9PolicySet15remove_template
FNDA:0,_RNvMs1_NtNtCsfZPcC2TrjjJ_17cedar_policy_core3ast10policy_setNtB5_9PolicySet6unlink
FNDA:0,_RNvXs0_NtNtCsfZPcC2TrjjJ_17cedar_policy_core3ast10policy_setNtB5_16LiteralPolicySetINtNtCsaNl6UpbT7bw_4core7convert4FromNtB5_9PolicySetE4from
FNDA:0,_RNvXs2_NtNtCsfZPcC2TrjjJ_17cedar_policy_core3ast10policy_setNtB5_9PolicySetNtNtCsaNl6UpbT7bw_4core3fmt7Display3fmt
FNDA:0,_RNvXs_NtNtCsfZPcC2TrjjJ_17cedar_policy_core3ast10policy_setNtB4_9PolicySetINtNtCsaNl6UpbT7bw_4core7convert7TryFromNtB4_16LiteralPolicySetE8try_from
FNDA:4,_RNCNvNtNtNtCsfZPcC2TrjjJ_17cedar_policy_core3ast10policy_set4tests_26policy_set_insertion_order0B9_
FNDA:4,_RNCNvNtNtNtCsfZPcC2TrjjJ_17cedar_policy_core3ast10policy_set4tests_26policy_set_insertion_orders_0B9_
FNDA:49,_RNvMs1_NtNtCsfZPcC2TrjjJ_17cedar_policy_core3ast10policy_setNtB5_9PolicySet10add_static
FNDA:12,_RNvMs1_NtNtCsfZPcC2TrjjJ_17cedar_policy_core3ast10policy_setNtB5_9PolicySet12add_template
FNDA:2,_RNvMs1_NtNtCsfZPcC2TrjjJ_17cedar_policy_core3ast10policy_setNtB5_9PolicySet12get_fresh_id
FNDA:0,_RNvMs1_NtNtCsfZPcC2TrjjJ_17cedar_policy_core3ast10policy_setNtB5_9PolicySet12get_template
FNDA:18,_RNvMs1_NtNtCsfZPcC2TrjjJ_17cedar_policy_core3ast10policy_setNtB5_9PolicySet13all_templates
FNDA:1,_RNvMs1_NtNtCsfZPcC2TrjjJ_17cedar_policy_core3ast10policy_setNtB5_9PolicySet13into_policies
FNDA:3,_RNvMs1_NtNtCsfZPcC2TrjjJ_17cedar_policy_core3ast10policy_setNtB5_9PolicySet15merge_policyset
FNDA:4,_RNvMs1_NtNtCsfZPcC2TrjjJ_17cedar_policy_core3ast10policy_setNtB5_9PolicySet15static_policies
FNDA:19,_RNvMs1_NtNtCsfZPcC2TrjjJ_17cedar_policy_core3ast10policy_setNtB5_9PolicySet16get_template_arc
FNDA:12,_RNvMs1_NtNtCsfZPcC2TrjjJ_17cedar_policy_core3ast10policy_setNtB5_9PolicySet18policy_id_is_bound
FNDA:1,_RNvMs1_NtNtCsfZPcC2TrjjJ_17cedar_policy_core3ast10policy_setNtB5_9PolicySet19get_linked_policies
FNDA:11,_RNvMs1_NtNtCsfZPcC2TrjjJ_17cedar_policy_core3ast10policy_setNtB5_9PolicySet3add
FNDA:23,_RNvMs1_NtNtCsfZPcC2TrjjJ_17cedar_policy_core3ast10policy_setNtB5_9PolicySet3get
FNDA:66,_RNvMs1_NtNtCsfZPcC2TrjjJ_17cedar_policy_core3ast10policy_setNtB5_9PolicySet3new
FNDA:13,_RNvMs1_NtNtCsfZPcC2TrjjJ_17cedar_policy_core3ast10policy_setNtB5_9PolicySet4link
FNDA:4,_RNvMs1_NtNtCsfZPcC2TrjjJ_17cedar_policy_core3ast10policy_setNtB5_9PolicySet8is_empty
FNDA:33,_RNvMs1_NtNtCsfZPcC2TrjjJ_17cedar_policy_core3ast10policy_setNtB5_9PolicySet8policies
FNDA:2,_RNvMs1_NtNtCsfZPcC2TrjjJ_17cedar_policy_core3ast10policy_setNtB5_9PolicySet9templates
FNDA:3,_RINvMs1_NtNtCsfZPcC2TrjjJ_17cedar_policy_core3ast10policy_setNtB6_9PolicySet15update_renamingINtNtCsiTraAjBDcu4_5alloc4sync3ArcNtNtB8_6policy8TemplateEEBa_
FNDA:3,_RINvMs1_NtNtCsfZPcC2TrjjJ_17cedar_policy_core3ast10policy_setNtB6_9PolicySet15update_renamingNtNtB8_6policy6PolicyEBa_
FNDA:26,_RNCNvMs1_NtNtCsfZPcC2TrjjJ_17cedar_policy_core3ast10policy_setNtB7_9PolicySet13all_templates0Bb_
FNDA:7,_RNCNvMs1_NtNtCsfZPcC2TrjjJ_17cedar_policy_core3ast10policy_setNtB7_9PolicySet15static_policies0Bb_
FNDA:1,_RNCNvMs1_NtNtCsfZPcC2TrjjJ_17cedar_policy_core3ast10policy_setNtB7_9PolicySet4link0Bb_
FNDA:4,_RNCNvMs1_NtNtCsfZPcC2TrjjJ_17cedar_policy_core3ast10policy_setNtB7_9PolicySet9templates0Bb_
FNDA:1,_RNvNtNtNtCsfZPcC2TrjjJ_17cedar_policy_core3ast10policy_set4tests_11policy_sets
FNDA:1,_RNvNtNtNtCsfZPcC2TrjjJ_17cedar_policy_core3ast10policy_set4tests_12link_slotmap
FNDA:1,_RNvNtNtNtCsfZPcC2TrjjJ_17cedar_policy_core3ast10policy_set4tests_13policyset_add
FNDA:1,_RNvNtNtNtCsfZPcC2TrjjJ_17cedar_policy_core3ast10policy_set4tests_14link_conflicts
FNDA:1,_RNvNtNtNtCsfZPcC2TrjjJ_17cedar_policy_core3ast10policy_set4tests_16policy_conflicts
FNDA:1,_RNvNtNtNtCsfZPcC2TrjjJ_17cedar_policy_core3ast10policy_set4tests_17linking_empty_set
FNDA:1,_RNvNtNtNtCsfZPcC2TrjjJ_17cedar_policy_core3ast10policy_set4tests_18linking_raw_policy
FNDA:1,_RNvNtNtNtCsfZPcC2TrjjJ_17cedar_policy_core3ast10policy_set4tests_18linkinv_valid_link
FNDA:1,_RNvNtNtNtCsfZPcC2TrjjJ_17cedar_policy_core3ast10policy_set4tests_18template_filtering
FNDA:1,_RNvNtNtNtCsfZPcC2TrjjJ_17cedar_policy_core3ast10policy_set4tests_24linking_missing_template
FNDA:1,_RNvNtNtNtCsfZPcC2TrjjJ_17cedar_policy_core3ast10policy_set4tests_25policy_merge_no_conflicts
FNDA:1,_RNvNtNtNtCsfZPcC2TrjjJ_17cedar_policy_core3ast10policy_set4tests_26policy_set_insertion_order
FNDA:1,_RNvNtNtNtCsfZPcC2TrjjJ_17cedar_policy_core3ast10policy_set4tests_27policy_merge_with_conflicts
FNF:53
FNH:37
DA:69,0
DA:70,0
DA:71,0
DA:72,0
DA:73,0
DA:74,0
DA:75,0
DA:76,0
DA:77,0
DA:82,0
DA:83,0
DA:84,0
DA:88,0
DA:89,0
DA:90,0
DA:97,0
DA:99,0
DA:100,0
DA:101,0
DA:102,0
DA:103,0
DA:104,0
DA:105,0
DA:106,0
DA:107,0
DA:108,0
DA:110,0
DA:111,0
DA:112,0
DA:113,0
DA:114,0
DA:115,0
DA:116,0
DA:117,0
DA:118,0
DA:122,0
DA:123,0
DA:124,0
DA:125,0
DA:126,0
DA:127,0
DA:131,0
DA:132,0
DA:133,0
DA:134,0
DA:135,0
DA:136,0
DA:137,0
DA:138,0
DA:139,0
DA:140,0
DA:141,0
DA:142,0
DA:143,0
DA:210,66
DA:211,66
DA:212,66
DA:213,66
DA:214,66
DA:215,66
DA:216,66
DA:219,11
DA:220,11
DA:226,11
DA:227,8
DA:228,3
DA:229,3
DA:230,1
DA:231,1
DA:232,1
DA:233,2
DA:234,2
DA:238,10
DA:239,9
DA:240,1
DA:241,1
DA:242,1
DA:243,1
DA:249,9
DA:250,8
DA:251,8
DA:252,8
DA:253,8
DA:254,8
DA:255,8
DA:256,8
DA:257,8
DA:258,1
DA:259,1
DA:260,1
DA:261,1
DA:262,1
DA:263,1
DA:264,9
DA:265,9
DA:266,9
DA:268,9
DA:269,11
DA:273,12
DA:274,12
DA:275,12
DA:278,2
DA:279,2
DA:280,2
DA:281,8
DA:282,6
DA:283,6
DA:284,6
DA:285,2
DA:286,2
DA:291,6
DA:292,6
DA:293,6
DA:294,6
DA:295,6
DA:296,6
DA:297,6
DA:298,6
DA:299,6
DA:301,18
DA:302,12
DA:303,6
DA:304,2
DA:305,2
DA:306,4
DA:307,6
DA:309,6
DA:325,3
DA:326,3
DA:327,3
DA:328,3
DA:329,3
DA:332,3
DA:333,3
DA:334,3
DA:335,3
DA:336,3
DA:337,3
DA:338,3
DA:339,3
DA:341,3
DA:344,9
DA:345,6
DA:346,0
DA:347,0
DA:348,6
DA:351,9
DA:352,6
DA:353,0
DA:354,0
DA:355,0
DA:356,6
DA:360,3
DA:361,2
DA:362,1
DA:363,1
DA:364,1
DA:367,6
DA:368,4
DA:369,1
DA:370,1
DA:371,1
DA:372,1
DA:373,3
DA:374,3
DA:375,3
DA:377,6
DA:379,4
DA:380,1
DA:382,3
DA:387,4
DA:392,0
DA:393,0
DA:395,4
DA:397,4
DA:399,6
DA:400,4
DA:401,4
DA:402,4
DA:403,8
DA:404,4
DA:405,4
DA:406,4
DA:407,4
DA:408,4
DA:410,2
DA:411,3
DA:414,0
DA:415,0
DA:416,0
DA:417,0
DA:420,0
DA:421,0
DA:423,0
DA:424,0
DA:425,0
DA:429,0
DA:431,0
DA:432,0
DA:437,0
DA:438,0
DA:439,0
DA:440,0
DA:443,0
DA:446,49
DA:447,49
DA:450,49
DA:451,49
DA:453,47
DA:454,47
DA:455,47
DA:456,47
DA:457,47
DA:458,47
DA:460,47
DA:461,47
DA:462,47
DA:464,2
DA:465,2
DA:466,2
DA:467,0
DA:468,0
DA:469,0
DA:471,49
DA:475,12
DA:476,12
DA:477,0
DA:478,12
DA:480,12
DA:481,1
DA:482,1
DA:483,1
DA:484,11
DA:485,11
DA:486,11
DA:487,11
DA:488,11
DA:491,12
DA:496,0
DA:497,0
DA:498,0
DA:499,0
DA:501,0
DA:502,0
DA:503,0
DA:504,0
DA:505,0
DA:507,0
DA:508,0
DA:509,0
DA:510,0
DA:511,0
DA:512,0
DA:513,0
DA:516,0
DA:517,0
DA:518,0
DA:523,0
DA:524,0
DA:525,0
DA:526,0
DA:528,0
DA:530,0
DA:534,1
DA:535,1
DA:536,1
DA:537,1
DA:538,1
DA:539,1
DA:540,0
DA:542,1
DA:551,13
DA:552,13
DA:553,13
DA:554,13
DA:555,13
DA:556,13
DA:557,12
DA:558,13
DA:559,13
DA:560,1
DA:561,1
DA:562,12
DA:566,12
DA:567,12
DA:569,11
DA:571,11
DA:572,11
DA:573,11
DA:574,11
DA:575,11
DA:577,1
DA:578,1
DA:579,1
DA:580,0
DA:581,0
DA:582,0
DA:584,13
DA:588,0
DA:590,0
DA:591,0
DA:592,0
DA:593,0
DA:594,0
DA:596,0
DA:597,0
DA:599,0
DA:602,0
DA:604,0
DA:606,0
DA:609,33
DA:610,33
DA:611,33
DA:614,1
DA:615,1
DA:616,1
DA:620,18
DA:621,26
DA:622,18
DA:625,2
DA:626,4
DA:627,2
DA:630,4
DA:631,7
DA:632,4
DA:635,4
DA:636,4
DA:637,4
DA:640,19
DA:641,19
DA:642,19
DA:645,0
DA:646,0
DA:647,0
DA:650,23
DA:651,23
DA:652,23
DA:655,0
DA:656,0
DA:657,0
DA:658,0
DA:660,0
DA:661,0
DA:665,0
DA:667,0
DA:668,0
DA:670,0
DA:671,0
DA:672,0
DA:673,0
DA:674,0
DA:677,0
DA:696,1
DA:697,1
DA:698,1
DA:699,1
DA:700,1
DA:702,1
DA:703,1
DA:704,1
DA:705,1
DA:706,1
DA:708,1
DA:709,1
DA:711,1
DA:712,1
DA:713,1
DA:714,1
DA:716,1
DA:718,1
DA:719,0
DA:720,1
DA:721,1
DA:723,0
DA:725,1
DA:730,1
DA:731,1
DA:732,1
DA:733,1
DA:734,1
DA:736,1
DA:737,1
DA:738,1
DA:739,1
DA:741,1
DA:742,1
DA:743,1
DA:744,1
DA:746,1
DA:748,1
DA:749,1
DA:750,1
DA:751,1
DA:753,1
DA:754,1
DA:755,1
DA:756,1
DA:758,1
DA:759,1
DA:760,0
DA:763,1
DA:764,1
DA:765,1
DA:766,1
DA:768,1
DA:769,1
DA:770,1
DA:771,1
DA:773,1
DA:774,1
DA:775,0
DA:776,1
DA:779,1
DA:780,1
DA:781,1
DA:782,1
DA:785,1
DA:786,1
DA:787,1
DA:788,1
DA:790,1
DA:792,1
DA:793,1
DA:794,1
DA:795,1
DA:797,1
DA:798,1
DA:799,1
DA:800,1
DA:802,1
DA:803,1
DA:804,0
DA:805,1
DA:806,1
DA:809,1
DA:812,1
DA:813,1
DA:814,1
DA:815,1
DA:817,1
DA:818,1
DA:819,1
DA:820,1
DA:822,1
DA:823,1
DA:824,1
DA:825,1
DA:827,1
DA:828,1
DA:829,1
DA:830,1
DA:832,1
DA:833,1
DA:834,1
DA:835,1
DA:836,1
DA:837,1
DA:838,1
DA:840,1
DA:841,1
DA:842,0
DA:843,0
DA:846,1
DA:849,1
DA:850,1
DA:851,1
DA:852,1
DA:853,1
DA:854,1
DA:855,1
DA:856,1
DA:857,1
DA:859,1
DA:860,1
DA:861,1
DA:862,1
DA:863,1
DA:864,1
DA:866,1
DA:867,1
DA:868,1
DA:869,1
DA:870,1
DA:871,1
DA:872,1
DA:874,1
DA:875,0
DA:876,1
DA:877,1
DA:881,1
DA:882,1
DA:884,1
DA:885,1
DA:886,0
DA:889,1
DA:890,1
DA:891,1
DA:892,0
DA:893,1
DA:894,1
DA:895,0
DA:896,1
DA:897,1
DA:898,0
DA:899,1
DA:900,1
DA:901,0
DA:903,0
DA:904,0
DA:907,1
DA:910,1
DA:911,1
DA:912,1
DA:913,1
DA:914,1
DA:916,1
DA:917,1
DA:918,1
DA:919,1
DA:921,1
DA:922,1
DA:923,1
DA:924,0
DA:925,1
DA:927,1
DA:930,1
DA:931,1
DA:932,1
DA:933,1
DA:935,1
DA:936,1
DA:937,1
DA:938,1
DA:940,1
DA:941,1
DA:942,1
DA:943,1
DA:945,1
DA:946,1
DA:947,1
DA:948,1
DA:949,1
DA:950,1
DA:951,1
DA:952,1
DA:954,1
DA:955,1
DA:956,1
DA:957,1
DA:960,1
DA:961,1
DA:962,1
DA:963,1
DA:964,1
DA:965,1
DA:966,1
DA:967,1
DA:968,1
DA:969,1
DA:970,1
DA:971,1
DA:974,1
DA:975,1
DA:976,1
DA:977,1
DA:979,1
DA:980,1
DA:981,0
DA:984,1
DA:985,1
DA:986,1
DA:989,1
DA:990,1
DA:991,1
DA:992,1
DA:993,1
DA:994,1
DA:995,1
DA:996,1
DA:997,1
DA:998,1
DA:999,1
DA:1000,1
DA:1003,1
DA:1004,1
DA:1006,1
DA:1007,1
DA:1008,1
DA:1010,1
DA:1012,1
DA:1014,1
DA:1015,1
DA:1016,1
DA:1019,1
DA:1020,1
DA:1021,1
DA:1022,1
DA:1025,1
DA:1026,1
DA:1027,1
DA:1028,1
DA:1029,1
DA:1030,1
DA:1031,1
DA:1032,1
DA:1033,1
DA:1034,1
DA:1035,1
DA:1036,1
DA:1038,1
DA:1039,1
DA:1041,1
DA:1042,1
DA:1043,1
DA:1044,1
DA:1045,1
DA:1046,1
DA:1048,0
DA:1050,1
DA:1053,1
DA:1054,1
DA:1055,1
DA:1056,1
DA:1057,1
DA:1058,1
DA:1059,1
DA:1060,1
DA:1061,1
DA:1062,1
DA:1063,1
DA:1064,1
DA:1065,1
DA:1067,1
DA:1069,1
DA:1070,1
DA:1071,1
DA:1072,1
DA:1073,1
DA:1075,1
DA:1076,1
DA:1077,1
DA:1078,1
DA:1079,1
DA:1080,1
DA:1081,1
DA:1082,1
DA:1084,1
DA:1087,1
DA:1088,1
DA:1089,1
DA:1090,1
DA:1091,1
DA:1092,1
DA:1093,1
DA:1094,1
DA:1095,1
DA:1096,1
DA:1097,1
DA:1098,1
DA:1099,1
DA:1100,1
DA:1102,1
DA:1103,1
DA:1104,1
DA:1105,1
DA:1106,1
DA:1107,1
DA:1108,1
DA:1109,1
DA:1110,1
DA:1111,1
DA:1113,1
DA:1114,1
DA:1115,1
DA:1116,1
DA:1117,1
DA:1118,1
DA:1119,1
DA:1120,1
DA:1121,1
DA:1122,1
DA:1123,1
DA:1124,1
DA:1125,1
DA:1126,1
DA:1127,1
DA:1128,1
DA:1129,1
DA:1130,1
DA:1131,1
DA:1133,1
DA:1134,1
DA:1135,1
DA:1137,1
DA:1138,1
DA:1139,1
DA:1140,1
DA:1141,1
DA:1142,1
DA:1143,1
DA:1144,1
DA:1145,1
DA:1146,1
DA:1148,1
DA:1149,1
DA:1150,1
DA:1152,1
DA:1153,1
DA:1154,1
DA:1155,1
DA:1157,1
DA:1159,1
DA:1160,1
DA:1161,1
DA:1162,1
DA:1163,1
DA:1164,1
DA:1166,1
DA:1167,1
DA:1168,1
DA:1169,1
DA:1170,1
DA:1172,1
DA:1173,1
DA:1174,1
DA:1175,1
DA:1176,1
DA:1178,1
DA:1179,1
DA:1180,1
DA:1183,1
DA:1184,1
DA:1185,1
DA:1187,1
DA:1188,1
DA:1189,4
DA:1190,4
DA:1191,4
DA:1192,4
DA:1193,4
DA:1194,4
DA:1195,4
DA:1196,1
DA:1198,1
DA:1199,1
DA:1200,4
DA:1201,1
DA:1204,1
BRF:0
BRH:0
LF:759
LH:595
end_of_record
SF:/Users/victornl/repos/cedar-spec/cedar/cedar-policy-core/src/ast/request.rs
FN:418,_RINvMs2_NtNtCsfZPcC2TrjjJ_17cedar_policy_core3ast7requestNtB6_7Context14from_json_filepEBa_
FN:466,_RNCNvMs2_NtNtCsfZPcC2TrjjJ_17cedar_policy_core3ast7requestNtB7_7Context10into_pairs0Bb_
FN:473,_RNCNvMs2_NtNtCsfZPcC2TrjjJ_17cedar_policy_core3ast7requestNtB7_7Context10into_pairss_0Bb_
FN:272,_RNCNvXs1_NtNtCsfZPcC2TrjjJ_17cedar_policy_core3ast7requestNtB7_7RequestNtNtCsaNl6UpbT7bw_4core3fmt7Display3fmt0Bb_
FN:261,_RNvMs0_NtNtCsfZPcC2TrjjJ_17cedar_policy_core3ast7requestNtB5_7Request15to_request_type
FN:461,_RNvMs2_NtNtCsfZPcC2TrjjJ_17cedar_policy_core3ast7requestNtB5_7Context10into_pairs
FN:481,_RNvMs2_NtNtCsfZPcC2TrjjJ_17cedar_policy_core3ast7requestNtB5_7Context10substitute
FN:448,_RNvMs2_NtNtCsfZPcC2TrjjJ_17cedar_policy_core3ast7requestNtB5_7Context8num_keys
FN:161,_RNvMs_NtNtCsfZPcC2TrjjJ_17cedar_policy_core3ast7requestNtB4_14EntityUIDEntry8get_type
FN:91,_RNvXNtNtCsfZPcC2TrjjJ_17cedar_policy_core3ast7requestNtB2_14EntityUIDEntryINtNtCsaNl6UpbT7bw_4core7convert4FromNtNtB4_6entity9EntityUIDE4from
FN:521,_RNvXNtNtNtCsfZPcC2TrjjJ_17cedar_policy_core3ast7request4iterNtB2_8IntoIterNtNtCsaNl6UpbT7bw_4core3fmt5Debug3fmt
FN:271,_RNvXs1_NtNtCsfZPcC2TrjjJ_17cedar_policy_core3ast7requestNtB5_7RequestNtNtCsaNl6UpbT7bw_4core3fmt7Display3fmt
FN:539,_RNvXs3_NtNtCsfZPcC2TrjjJ_17cedar_policy_core3ast7requestNtB5_7ContextNtNtNtNtCsaNl6UpbT7bw_4core4iter6traits7collect12IntoIterator9into_iter
FN:545,_RNvXs4_NtNtCsfZPcC2TrjjJ_17cedar_policy_core3ast7requestNtNtB7_15restricted_expr14RestrictedExprINtNtCsaNl6UpbT7bw_4core7convert4FromNtB5_7ContextE4from
FN:574,_RNvXs6_NtNtCsfZPcC2TrjjJ_17cedar_policy_core3ast7requestNtB5_7ContextNtNtCsaNl6UpbT7bw_4core7default7Default7default
FN:580,_RNvXs7_NtNtCsfZPcC2TrjjJ_17cedar_policy_core3ast7requestNtB5_7ContextNtNtCsaNl6UpbT7bw_4core3fmt7Display3fmt
FN:529,_RNvXs_NtNtNtCsfZPcC2TrjjJ_17cedar_policy_core3ast7request4iterNtB4_8IntoIterNtNtNtNtCsaNl6UpbT7bw_4core4iter6traits8iterator8Iterator4next
FN:683,_RNvXsa_NtNtCsfZPcC2TrjjJ_17cedar_policy_core3ast7requestNtB5_20RequestSchemaAllPassNtB5_13RequestSchema16validate_context
FN:692,_RNvXsa_NtNtCsfZPcC2TrjjJ_17cedar_policy_core3ast7requestNtB5_20RequestSchemaAllPassNtB5_13RequestSchema24validate_scope_variables
FN:199,_RINvMs0_NtNtCsfZPcC2TrjjJ_17cedar_policy_core3ast7requestNtB6_7Request17new_with_unknownsNtB6_20RequestSchemaAllPassEBa_
FN:199,_RINvMs0_NtNtCsfZPcC2TrjjJ_17cedar_policy_core3ast7requestNtB6_7Request17new_with_unknownsNtNtNtBa_9validator6schema15ValidatorSchemaEBa_
FN:174,_RINvMs0_NtNtCsfZPcC2TrjjJ_17cedar_policy_core3ast7requestNtB6_7Request3newNtB6_20RequestSchemaAllPassEBa_
FN:174,_RINvMs0_NtNtCsfZPcC2TrjjJ_17cedar_policy_core3ast7requestNtB6_7Request3newNtNtNtBa_9validator6schema15ValidatorSchemaEBa_
FN:376,_RINvMs2_NtNtCsfZPcC2TrjjJ_17cedar_policy_core3ast7requestNtB6_7Context10from_pairsATNtCsbIodQZzabP8_8smol_str7SmolStrNtNtB8_15restricted_expr14RestrictedExprEj1_EBa_
FN:376,_RINvMs2_NtNtCsfZPcC2TrjjJ_17cedar_policy_core3ast7requestNtB6_7Context10from_pairsATNtCsbIodQZzabP8_8smol_str7SmolStrNtNtB8_15restricted_expr14RestrictedExprEj2_EBa_
FN:376,_RINvMs2_NtNtCsfZPcC2TrjjJ_17cedar_policy_core3ast7requestNtB6_7Context10from_pairsATNtCsbIodQZzabP8_8smol_str7SmolStrNtNtB8_15restricted_expr14RestrictedExprEj3_EBa_
FN:376,_RINvMs2_NtNtCsfZPcC2TrjjJ_17cedar_policy_core3ast7requestNtB6_7Context10from_pairsATNtCsbIodQZzabP8_8smol_str7SmolStrNtNtB8_15restricted_expr14RestrictedExprEj6_EBa_
FN:376,_RINvMs2_NtNtCsfZPcC2TrjjJ_17cedar_policy_core3ast7requestNtB6_7Context10from_pairsATNtCsbIodQZzabP8_8smol_str7SmolStrNtNtB8_15restricted_expr14RestrictedExprEj9_EBa_
FN:586,_RINvXs8_NtNtCsfZPcC2TrjjJ_17cedar_policy_core3ast7requestNtB6_7ContextNtNtB8_5value14BoundedDisplay3fmtNtNtCsiTraAjBDcu4_5alloc6string6StringEBa_
FN:430,_RNCNvMs2_NtNtCsfZPcC2TrjjJ_17cedar_policy_core3ast7requestNtB7_7Context13to_json_value0Bb_
FN:437,_RNCNvMs2_NtNtCsfZPcC2TrjjJ_17cedar_policy_core3ast7requestNtB7_7Context13to_json_values_0Bb_
FN:716,_RNvNtNtNtCsfZPcC2TrjjJ_17cedar_policy_core3ast7request4test14roundtrip_json
FN:735,_RNvNtNtNtCsfZPcC2TrjjJ_17cedar_policy_core3ast7request4tests_20test_roundtrip_empty
FN:741,_RNvNtNtNtCsfZPcC2TrjjJ_17cedar_policy_core3ast7request4tests_22test_roundtrip_complex
FN:721,_RNvNtNtNtCsfZPcC2TrjjJ_17cedar_policy_core3ast7request4tests_29test_json_from_str_non_record
FN:221,_RNvMs0_NtNtCsfZPcC2TrjjJ_17cedar_policy_core3ast7requestNtB5_7Request13new_unchecked
FN:241,_RNvMs0_NtNtCsfZPcC2TrjjJ_17cedar_policy_core3ast7requestNtB5_7Request6action
FN:252,_RNvMs0_NtNtCsfZPcC2TrjjJ_17cedar_policy_core3ast7requestNtB5_7Request7context
FN:246,_RNvMs0_NtNtCsfZPcC2TrjjJ_17cedar_policy_core3ast7requestNtB5_7Request8resource
FN:236,_RNvMs0_NtNtCsfZPcC2TrjjJ_17cedar_policy_core3ast7requestNtB5_7Request9principal
FN:394,_RNvMs2_NtNtCsfZPcC2TrjjJ_17cedar_policy_core3ast7requestNtB5_7Context13from_json_str
FN:426,_RNvMs2_NtNtCsfZPcC2TrjjJ_17cedar_policy_core3ast7requestNtB5_7Context13to_json_value
FN:405,_RNvMs2_NtNtCsfZPcC2TrjjJ_17cedar_policy_core3ast7requestNtB5_7Context15from_json_value
FN:317,_RNvMs2_NtNtCsfZPcC2TrjjJ_17cedar_policy_core3ast7requestNtB5_7Context37from_restricted_partial_val_unchecked
FN:308,_RNvMs2_NtNtCsfZPcC2TrjjJ_17cedar_policy_core3ast7requestNtB5_7Context5empty
FN:348,_RNvMs2_NtNtCsfZPcC2TrjjJ_17cedar_policy_core3ast7requestNtB5_7Context9from_expr
FN:610,_RNvMs9_NtNtCsfZPcC2TrjjJ_17cedar_policy_core3ast7requestNtB5_20ContextCreationError12not_a_record
FN:148,_RNvMs_NtNtCsfZPcC2TrjjJ_17cedar_policy_core3ast7requestNtB4_14EntityUIDEntry17unknown_with_type
FN:153,_RNvMs_NtNtCsfZPcC2TrjjJ_17cedar_policy_core3ast7requestNtB4_14EntityUIDEntry3uid
FN:132,_RNvMs_NtNtCsfZPcC2TrjjJ_17cedar_policy_core3ast7requestNtB4_14EntityUIDEntry5known
FN:140,_RNvMs_NtNtCsfZPcC2TrjjJ_17cedar_policy_core3ast7requestNtB4_14EntityUIDEntry7unknown
FN:107,_RNvMs_NtNtCsfZPcC2TrjjJ_17cedar_policy_core3ast7requestNtB4_14EntityUIDEntry8evaluate
FN:675,_RNvXsa_NtNtCsfZPcC2TrjjJ_17cedar_policy_core3ast7requestNtB5_20RequestSchemaAllPassNtB5_13RequestSchema16validate_request
FN:559,_RNvXs5_NtNtCsfZPcC2TrjjJ_17cedar_policy_core3ast7requestNtNtB7_13partial_value12PartialValueINtNtCsaNl6UpbT7bw_4core7convert4FromNtB5_7ContextE4from
FNDA:0,_RINvMs2_NtNtCsfZPcC2TrjjJ_17cedar_policy_core3ast7requestNtB6_7Context14from_json_filepEBa_
FNDA:0,_RNCNvMs2_NtNtCsfZPcC2TrjjJ_17cedar_policy_core3ast7requestNtB7_7Context10into_pairs0Bb_
FNDA:0,_RNCNvMs2_NtNtCsfZPcC2TrjjJ_17cedar_policy_core3ast7requestNtB7_7Context10into_pairss_0Bb_
FNDA:0,_RNCNvXs1_NtNtCsfZPcC2TrjjJ_17cedar_policy_core3ast7requestNtB7_7RequestNtNtCsaNl6UpbT7bw_4core3fmt7Display3fmt0Bb_
FNDA:0,_RNvMs0_NtNtCsfZPcC2TrjjJ_17cedar_policy_core3ast7requestNtB5_7Request15to_request_type
FNDA:0,_RNvMs2_NtNtCsfZPcC2TrjjJ_17cedar_policy_core3ast7requestNtB5_7Context10into_pairs
FNDA:0,_RNvMs2_NtNtCsfZPcC2TrjjJ_17cedar_policy_core3ast7requestNtB5_7Context10substitute
FNDA:0,_RNvMs2_NtNtCsfZPcC2TrjjJ_17cedar_policy_core3ast7requestNtB5_7Context8num_keys
FNDA:0,_RNvMs_NtNtCsfZPcC2TrjjJ_17cedar_policy_core3ast7requestNtB4_14EntityUIDEntry8get_type
FNDA:0,_RNvXNtNtCsfZPcC2TrjjJ_17cedar_policy_core3ast7requestNtB2_14EntityUIDEntryINtNtCsaNl6UpbT7bw_4core7convert4FromNtNtB4_6entity9EntityUIDE4from
FNDA:0,_RNvXNtNtNtCsfZPcC2TrjjJ_17cedar_policy_core3ast7request4iterNtB2_8IntoIterNtNtCsaNl6UpbT7bw_4core3fmt5Debug3fmt
FNDA:0,_RNvXs1_NtNtCsfZPcC2TrjjJ_17cedar_policy_core3ast7requestNtB5_7RequestNtNtCsaNl6UpbT7bw_4core3fmt7Display3fmt
FNDA:0,_RNvXs3_NtNtCsfZPcC2TrjjJ_17cedar_policy_core3ast7requestNtB5_7ContextNtNtNtNtCsaNl6UpbT7bw_4core4iter6traits7collect12IntoIterator9into_iter
FNDA:0,_RNvXs4_NtNtCsfZPcC2TrjjJ_17cedar_policy_core3ast7requestNtNtB7_15restricted_expr14RestrictedExprINtNtCsaNl6UpbT7bw_4core7convert4FromNtB5_7ContextE4from
FNDA:0,_RNvXs6_NtNtCsfZPcC2TrjjJ_17cedar_policy_core3ast7requestNtB5_7ContextNtNtCsaNl6UpbT7bw_4core7default7Default7default
FNDA:0,_RNvXs7_NtNtCsfZPcC2TrjjJ_17cedar_policy_core3ast7requestNtB5_7ContextNtNtCsaNl6UpbT7bw_4core3fmt7Display3fmt
FNDA:0,_RNvXs_NtNtNtCsfZPcC2TrjjJ_17cedar_policy_core3ast7request4iterNtB4_8IntoIterNtNtNtNtCsaNl6UpbT7bw_4core4iter6traits8iterator8Iterator4next
FNDA:0,_RNvXsa_NtNtCsfZPcC2TrjjJ_17cedar_policy_core3ast7requestNtB5_20RequestSchemaAllPassNtB5_13RequestSchema16validate_context
FNDA:0,_RNvXsa_NtNtCsfZPcC2TrjjJ_17cedar_policy_core3ast7requestNtB5_20RequestSchemaAllPassNtB5_13RequestSchema24validate_scope_variables
FNDA:1,_RINvMs0_NtNtCsfZPcC2TrjjJ_17cedar_policy_core3ast7requestNtB6_7Request17new_with_unknownsNtB6_20RequestSchemaAllPassEBa_
FNDA:6,_RINvMs0_NtNtCsfZPcC2TrjjJ_17cedar_policy_core3ast7requestNtB6_7Request17new_with_unknownsNtNtNtBa_9validator6schema15ValidatorSchemaEBa_
FNDA:105,_RINvMs0_NtNtCsfZPcC2TrjjJ_17cedar_policy_core3ast7requestNtB6_7Request3newNtB6_20RequestSchemaAllPassEBa_
FNDA:25,_RINvMs0_NtNtCsfZPcC2TrjjJ_17cedar_policy_core3ast7requestNtB6_7Request3newNtNtNtBa_9validator6schema15ValidatorSchemaEBa_
FNDA:4,_RINvMs2_NtNtCsfZPcC2TrjjJ_17cedar_policy_core3ast7requestNtB6_7Context10from_pairsATNtCsbIodQZzabP8_8smol_str7SmolStrNtNtB8_15restricted_expr14RestrictedExprEj1_EBa_
FNDA:1,_RINvMs2_NtNtCsfZPcC2TrjjJ_17cedar_policy_core3ast7requestNtB6_7Context10from_pairsATNtCsbIodQZzabP8_8smol_str7SmolStrNtNtB8_15restricted_expr14RestrictedExprEj2_EBa_
FNDA:46,_RINvMs2_NtNtCsfZPcC2TrjjJ_17cedar_policy_core3ast7requestNtB6_7Context10from_pairsATNtCsbIodQZzabP8_8smol_str7SmolStrNtNtB8_15restricted_expr14RestrictedExprEj3_EBa_
FNDA:1,_RINvMs2_NtNtCsfZPcC2TrjjJ_17cedar_policy_core3ast7requestNtB6_7Context10from_pairsATNtCsbIodQZzabP8_8smol_str7SmolStrNtNtB8_15restricted_expr14RestrictedExprEj6_EBa_
FNDA:1,_RINvMs2_NtNtCsfZPcC2TrjjJ_17cedar_policy_core3ast7requestNtB6_7Context10from_pairsATNtCsbIodQZzabP8_8smol_str7SmolStrNtNtB8_15restricted_expr14RestrictedExprEj9_EBa_
FNDA:5,_RINvXs8_NtNtCsfZPcC2TrjjJ_17cedar_policy_core3ast7requestNtB6_7ContextNtNtB8_5value14BoundedDisplay3fmtNtNtCsiTraAjBDcu4_5alloc6string6StringEBa_
FNDA:9,_RNCNvMs2_NtNtCsfZPcC2TrjjJ_17cedar_policy_core3ast7requestNtB7_7Context13to_json_value0Bb_
FNDA:0,_RNCNvMs2_NtNtCsfZPcC2TrjjJ_17cedar_policy_core3ast7requestNtB7_7Context13to_json_values_0Bb_
FNDA:2,_RNvNtNtNtCsfZPcC2TrjjJ_17cedar_policy_core3ast7request4test14roundtrip_json
FNDA:1,_RNvNtNtNtCsfZPcC2TrjjJ_17cedar_policy_core3ast7request4tests_20test_roundtrip_empty
FNDA:1,_RNvNtNtNtCsfZPcC2TrjjJ_17cedar_policy_core3ast7request4tests_22test_roundtrip_complex
FNDA:1,_RNvNtNtNtCsfZPcC2TrjjJ_17cedar_policy_core3ast7request4tests_29test_json_from_str_non_record
FNDA:3,_RNvMs0_NtNtCsfZPcC2TrjjJ_17cedar_policy_core3ast7requestNtB5_7Request13new_unchecked
FNDA:31,_RNvMs0_NtNtCsfZPcC2TrjjJ_17cedar_policy_core3ast7requestNtB5_7Request6action
FNDA:20,_RNvMs0_NtNtCsfZPcC2TrjjJ_17cedar_policy_core3ast7requestNtB5_7Request7context
FNDA:31,_RNvMs0_NtNtCsfZPcC2TrjjJ_17cedar_policy_core3ast7requestNtB5_7Request8resource
FNDA:31,_RNvMs0_NtNtCsfZPcC2TrjjJ_17cedar_policy_core3ast7requestNtB5_7Request9principal
FNDA:1,_RNvMs2_NtNtCsfZPcC2TrjjJ_17cedar_policy_core3ast7requestNtB5_7Context13from_json_str
FNDA:2,_RNvMs2_NtNtCsfZPcC2TrjjJ_17cedar_policy_core3ast7requestNtB5_7Context13to_json_value
FNDA:12,_RNvMs2_NtNtCsfZPcC2TrjjJ_17cedar_policy_core3ast7requestNtB5_7Context15from_json_value
FNDA:74,_RNvMs2_NtNtCsfZPcC2TrjjJ_17cedar_policy_core3ast7requestNtB5_7Context37from_restricted_partial_val_unchecked
FNDA:65,_RNvMs2_NtNtCsfZPcC2TrjjJ_17cedar_policy_core3ast7requestNtB5_7Context5empty
FNDA:76,_RNvMs2_NtNtCsfZPcC2TrjjJ_17cedar_policy_core3ast7requestNtB5_7Context9from_expr
FNDA:2,_RNvMs9_NtNtCsfZPcC2TrjjJ_17cedar_policy_core3ast7requestNtB5_20ContextCreationError12not_a_record
FNDA:2,_RNvMs_NtNtCsfZPcC2TrjjJ_17cedar_policy_core3ast7requestNtB4_14EntityUIDEntry17unknown_with_type
FNDA:93,_RNvMs_NtNtCsfZPcC2TrjjJ_17cedar_policy_core3ast7requestNtB4_14EntityUIDEntry3uid
FNDA:401,_RNvMs_NtNtCsfZPcC2TrjjJ_17cedar_policy_core3ast7requestNtB4_14EntityUIDEntry5known
FNDA:13,_RNvMs_NtNtCsfZPcC2TrjjJ_17cedar_policy_core3ast7requestNtB4_14EntityUIDEntry7unknown
FNDA:22,_RNvMs_NtNtCsfZPcC2TrjjJ_17cedar_policy_core3ast7requestNtB4_14EntityUIDEntry8evaluate
FNDA:101,_RNvXsa_NtNtCsfZPcC2TrjjJ_17cedar_policy_core3ast7requestNtB5_20RequestSchemaAllPassNtB5_13RequestSchema16validate_request
FNDA:145,_RNvXs5_NtNtCsfZPcC2TrjjJ_17cedar_policy_core3ast7requestNtNtB7_13partial_value12PartialValueINtNtCsaNl6UpbT7bw_4core7convert4FromNtB5_7ContextE4from
FNF:48
FNH:28
DA:91,0
DA:92,0
DA:93,0
DA:94,0
DA:95,0
DA:96,0
DA:97,0
DA:98,0
DA:99,0
DA:100,0
DA:107,22
DA:108,6
DA:109,16
DA:110,16
DA:112,1
DA:113,1
DA:114,1
DA:115,1
DA:118,5
DA:119,5
DA:120,5
DA:121,5
DA:122,5
DA:123,5
DA:124,5
DA:126,5
DA:127,5
DA:129,22
DA:132,401
DA:133,401
DA:134,401
DA:135,401
DA:136,401
DA:137,401
DA:140,13
DA:141,13
DA:142,13
DA:143,13
DA:144,13
DA:145,13
DA:148,2
DA:149,2
DA:150,2
DA:153,93
DA:154,93
DA:155,86
DA:156,7
DA:158,93
DA:161,0
DA:162,0
DA:163,0
DA:164,0
DA:166,0
DA:174,130
DA:175,130
DA:176,130
DA:177,130
DA:178,130
DA:179,130
DA:180,130
DA:181,130
DA:182,130
DA:183,130
DA:184,130
DA:185,130
DA:186,130
DA:187,130
DA:188,130
DA:189,125
DA:190,5
DA:191,113
DA:192,130
DA:199,7
DA:200,7
DA:201,7
DA:202,7
DA:203,7
DA:204,7
DA:205,7
DA:206,7
DA:207,7
DA:208,7
DA:209,7
DA:210,7
DA:211,7
DA:212,7
DA:213,7
DA:214,7
DA:215,0
DA:216,7
DA:217,7
DA:221,3
DA:222,3
DA:223,3
DA:224,3
DA:225,3
DA:226,3
DA:227,3
DA:228,3
DA:229,3
DA:230,3
DA:231,3
DA:232,3
DA:233,3
DA:236,31
DA:237,31
DA:238,31
DA:241,31
DA:242,31
DA:243,31
DA:246,31
DA:247,31
DA:248,31
DA:252,20
DA:253,20
DA:254,20
DA:261,0
DA:263,0
DA:264,0
DA:265,0
DA:267,0
DA:271,0
DA:272,0
DA:273,0
DA:274,0
DA:276,0
DA:278,0
DA:279,0
DA:280,0
DA:281,0
DA:282,0
DA:283,0
DA:284,0
DA:285,0
DA:286,0
DA:287,0
DA:288,0
DA:291,0
DA:308,65
DA:309,65
DA:310,65
DA:317,74
DA:318,74
DA:319,74
DA:320,74
DA:321,65
DA:322,65
DA:323,65
DA:325,0
DA:328,9
DA:329,9
DA:336,9
DA:338,0
DA:342,74
DA:348,76
DA:349,76
DA:350,76
DA:351,76
DA:352,76
DA:354,74
DA:355,74
DA:363,74
DA:364,74
DA:365,74
DA:367,2
DA:369,76
DA:376,53
DA:377,53
DA:378,53
DA:379,53
DA:380,53
DA:381,53
DA:382,0
DA:383,0
DA:384,0
DA:386,53
DA:394,1
DA:395,1
DA:396,1
DA:397,1
DA:405,12
DA:406,12
DA:407,12
DA:408,12
DA:409,12
DA:410,12
DA:418,0
DA:419,0
DA:420,0
DA:421,0
DA:422,0
DA:423,0
DA:426,2
DA:427,2
DA:428,2
DA:429,2
DA:430,9
DA:431,9
DA:432,9
DA:433,9
DA:434,2
DA:435,0
DA:436,0
DA:437,0
DA:439,0
DA:440,0
DA:441,0
DA:442,0
DA:443,0
DA:445,2
DA:448,0
DA:449,0
DA:450,0
DA:451,0
DA:453,0
DA:461,0
DA:462,0
DA:463,0
DA:464,0
DA:465,0
DA:466,0
DA:468,0
DA:469,0
DA:470,0
DA:473,0
DA:476,0
DA:481,0
DA:482,0
DA:483,0
DA:488,0
DA:489,0
DA:491,0
DA:492,0
DA:493,0
DA:502,0
DA:503,0
DA:504,0
DA:505,0
DA:506,0
DA:508,0
DA:510,0
DA:521,0
DA:522,0
DA:523,0
DA:529,0
DA:530,0
DA:531,0
DA:539,0
DA:540,0
DA:541,0
DA:545,0
DA:546,0
DA:547,0
DA:548,0
DA:552,0
DA:555,0
DA:559,145
DA:560,145
DA:561,136
DA:562,9
DA:567,9
DA:570,145
DA:574,0
DA:575,0
DA:576,0
DA:580,0
DA:581,0
DA:582,0
DA:586,5
DA:587,5
DA:588,5
DA:610,2
DA:611,2
DA:612,2
DA:613,2
DA:614,2
DA:675,101
DA:676,101
DA:677,101
DA:678,101
DA:679,101
DA:680,101
DA:681,101
DA:683,0
DA:684,0
DA:685,0
DA:686,0
DA:687,0
DA:688,0
DA:689,0
DA:690,0
DA:692,0
DA:693,0
DA:694,0
DA:695,0
DA:696,0
DA:697,0
DA:698,0
DA:699,0
DA:716,2
DA:717,2
DA:718,2
DA:721,1
DA:722,0
DA:723,1
DA:726,0
DA:727,1
DA:732,1
DA:735,1
DA:736,1
DA:737,1
DA:738,1
DA:741,1
DA:742,1
DA:743,1
DA:744,1
DA:745,1
DA:746,1
DA:747,1
DA:748,1
DA:749,1
DA:750,1
DA:751,1
DA:752,1
DA:753,1
DA:754,1
DA:755,1
DA:756,1
DA:757,1
DA:758,1
DA:759,1
DA:760,1
DA:761,1
DA:762,1
DA:763,1
DA:764,1
DA:765,1
DA:766,1
DA:767,1
DA:768,1
DA:769,1
DA:770,1
DA:771,1
DA:772,1
DA:773,1
DA:774,1
DA:775,1
DA:776,1
DA:777,1
DA:778,1
DA:779,1
DA:780,1
DA:781,1
DA:782,1
DA:783,1
DA:784,1
DA:785,1
DA:786,1
DA:787,1
DA:788,1
DA:789,1
DA:790,1
DA:791,1
DA:792,1
DA:793,1
DA:794,1
DA:795,1
DA:796,1
DA:797,1
DA:798,1
DA:799,1
DA:800,1
DA:801,1
DA:802,1
DA:804,1
DA:805,1
DA:806,1
BRF:0
BRH:0
LF:382
LH:251
end_of_record
SF:/Users/victornl/repos/cedar-spec/cedar/cedar-policy-core/src/ast/restricted_expr.rs
FN:625,_RINvXsf_NtNtCsfZPcC2TrjjJ_17cedar_policy_core3ast15restricted_exprNtB6_23RestrictedExprShapeOnlyNtNtCsaNl6UpbT7bw_4core4hash4Hash4hashpEBa_
FN:221,_RNCNvMNtNtCsfZPcC2TrjjJ_17cedar_policy_core3ast15restricted_exprNtB4_14RestrictedExpr15as_record_pairs0B8_
FN:197,_RNvMNtNtCsfZPcC2TrjjJ_17cedar_policy_core3ast15restricted_exprNtB2_14RestrictedExpr10as_unknown
FN:230,_RNvMNtNtCsfZPcC2TrjjJ_17cedar_policy_core3ast15restricted_exprNtB2_14RestrictedExpr15as_extn_fn_call
FN:215,_RNvMNtNtCsfZPcC2TrjjJ_17cedar_policy_core3ast15restricted_exprNtB2_14RestrictedExpr15as_record_pairs
FN:206,_RNvMNtNtCsfZPcC2TrjjJ_17cedar_policy_core3ast15restricted_exprNtB2_14RestrictedExpr15as_set_elements
FN:150,_RNvMNtNtCsfZPcC2TrjjJ_17cedar_policy_core3ast15restricted_exprNtB2_14RestrictedExpr15to_natural_json
FN:156,_RNvMNtNtCsfZPcC2TrjjJ_17cedar_policy_core3ast15restricted_exprNtB2_14RestrictedExpr7as_bool
FN:186,_RNvMNtNtCsfZPcC2TrjjJ_17cedar_policy_core3ast15restricted_exprNtB2_14RestrictedExpr7as_euid
FN:166,_RNvMNtNtCsfZPcC2TrjjJ_17cedar_policy_core3ast15restricted_exprNtB2_14RestrictedExpr7as_long
FN:411,_RNvMs3_NtNtCsfZPcC2TrjjJ_17cedar_policy_core3ast15restricted_exprNtB5_22BorrowedRestrictedExpr10as_unknown
FN:356,_RNvMs3_NtNtCsfZPcC2TrjjJ_17cedar_policy_core3ast15restricted_exprNtB5_22BorrowedRestrictedExpr15to_natural_json
FN:613,_RNvMsd_NtNtCsfZPcC2TrjjJ_17cedar_policy_core3ast15restricted_exprNtB5_23RestrictedExprShapeOnly3new
FN:569,_RNvXs8_NtNtCsfZPcC2TrjjJ_17cedar_policy_core3ast15restricted_exprRNtNtB7_4expr4ExprINtNtCsaNl6UpbT7bw_4core7convert4FromNtB5_22BorrowedRestrictedExprE4from
FN:619,_RNvXse_NtNtCsfZPcC2TrjjJ_17cedar_policy_core3ast15restricted_exprNtB5_23RestrictedExprShapeOnlyNtNtCsaNl6UpbT7bw_4core3cmp9PartialEq2eq
FN:543,_RNvXs4_NtNtCsfZPcC2TrjjJ_17cedar_policy_core3ast15restricted_exprNtNtB7_4expr4ExprINtNtCsaNl6UpbT7bw_4core7convert4FromNtB5_14RestrictedExprE4from
FN:701,_RNvNtNtNtCsfZPcC2TrjjJ_17cedar_policy_core3ast15restricted_expr4tests_13duplicate_key
FN:134,_RINvMNtNtCsfZPcC2TrjjJ_17cedar_policy_core3ast15restricted_exprNtB3_14RestrictedExpr17call_extension_fnABZ_j1_EB7_
FN:134,_RINvMNtNtCsfZPcC2TrjjJ_17cedar_policy_core3ast15restricted_exprNtB3_14RestrictedExpr17call_extension_fnINtNtCsiTraAjBDcu4_5alloc3vec3VecBZ_EEB7_
FN:134,_RINvMNtNtCsfZPcC2TrjjJ_17cedar_policy_core3ast15restricted_exprNtB3_14RestrictedExpr17call_extension_fnINtNtNtNtCsaNl6UpbT7bw_4core4iter7sources4once4OnceBZ_EEB7_
FN:111,_RINvMNtNtCsfZPcC2TrjjJ_17cedar_policy_core3ast15restricted_exprNtB3_14RestrictedExpr3setABZ_j0_EB7_
FN:111,_RINvMNtNtCsfZPcC2TrjjJ_17cedar_policy_core3ast15restricted_exprNtB3_14RestrictedExpr3setABZ_j1_EB7_
FN:111,_RINvMNtNtCsfZPcC2TrjjJ_17cedar_policy_core3ast15restricted_exprNtB3_14RestrictedExpr3setABZ_j2_EB7_
FN:111,_RINvMNtNtCsfZPcC2TrjjJ_17cedar_policy_core3ast15restricted_exprNtB3_14RestrictedExpr3setABZ_j3_EB7_
FN:111,_RINvMNtNtCsfZPcC2TrjjJ_17cedar_policy_core3ast15restricted_exprNtB3_14RestrictedExpr3setINtNtCsiTraAjBDcu4_5alloc3vec3VecBZ_EEB7_
FN:111,_RINvMNtNtCsfZPcC2TrjjJ_17cedar_policy_core3ast15restricted_exprNtB3_14RestrictedExpr3setINtNtNtNtCsaNl6UpbT7bw_4core4iter8adapters3map3MapINtNtNtNtCsiTraAjBDcu4_5alloc11collections5btree3set4IterNtNtB5_5value5ValueENCNvXs0_B3_BZ_INtNtB1x_7convert4FromNtB39_9ValueKindE4from0EEB7_
FN:99,_RINvMNtNtCsfZPcC2TrjjJ_17cedar_policy_core3ast15restricted_exprNtB3_14RestrictedExpr3valNtCsbIodQZzabP8_8smol_str7SmolStrEB7_
FN:99,_RINvMNtNtCsfZPcC2TrjjJ_17cedar_policy_core3ast15restricted_exprNtB3_14RestrictedExpr3valNtNtB5_6entity9EntityUIDEB7_
FN:99,_RINvMNtNtCsfZPcC2TrjjJ_17cedar_policy_core3ast15restricted_exprNtB3_14RestrictedExpr3valNtNtB5_7literal7LiteralEB7_
FN:99,_RINvMNtNtCsfZPcC2TrjjJ_17cedar_policy_core3ast15restricted_exprNtB3_14RestrictedExpr3valReEB7_
FN:99,_RINvMNtNtCsfZPcC2TrjjJ_17cedar_policy_core3ast15restricted_exprNtB3_14RestrictedExpr3valbEB7_
FN:99,_RINvMNtNtCsfZPcC2TrjjJ_17cedar_policy_core3ast15restricted_exprNtB3_14RestrictedExpr3valxEB7_
FN:122,_RINvMNtNtCsfZPcC2TrjjJ_17cedar_policy_core3ast15restricted_exprNtB3_14RestrictedExpr6recordATNtCsbIodQZzabP8_8smol_str7SmolStrBZ_Ej1_EB7_
FN:122,_RINvMNtNtCsfZPcC2TrjjJ_17cedar_policy_core3ast15restricted_exprNtB3_14RestrictedExpr6recordATNtCsbIodQZzabP8_8smol_str7SmolStrBZ_Ej2_EB7_
FN:122,_RINvMNtNtCsfZPcC2TrjjJ_17cedar_policy_core3ast15restricted_exprNtB3_14RestrictedExpr6recordATNtCsbIodQZzabP8_8smol_str7SmolStrBZ_Ej3_EB7_
FN:122,_RINvMNtNtCsfZPcC2TrjjJ_17cedar_policy_core3ast15restricted_exprNtB3_14RestrictedExpr6recordATNtCsbIodQZzabP8_8smol_str7SmolStrBZ_Ej5_EB7_
FN:122,_RINvMNtNtCsfZPcC2TrjjJ_17cedar_policy_core3ast15restricted_exprNtB3_14RestrictedExpr6recordATNtCsbIodQZzabP8_8smol_str7SmolStrBZ_Ej6_EB7_
FN:122,_RINvMNtNtCsfZPcC2TrjjJ_17cedar_policy_core3ast15restricted_exprNtB3_14RestrictedExpr6recordATNtCsbIodQZzabP8_8smol_str7SmolStrBZ_Ej9_EB7_
FN:122,_RINvMNtNtCsfZPcC2TrjjJ_17cedar_policy_core3ast15restricted_exprNtB3_14RestrictedExpr6recordINtNtCsiTraAjBDcu4_5alloc3vec3VecTNtCsbIodQZzabP8_8smol_str7SmolStrBZ_EEEB7_
FN:122,_RINvMNtNtCsfZPcC2TrjjJ_17cedar_policy_core3ast15restricted_exprNtB3_14RestrictedExpr6recordINtNtNtNtCsaNl6UpbT7bw_4core4iter8adapters3map3MapINtNtNtNtCsiTraAjBDcu4_5alloc11collections5btree3map8IntoIterNtCsbIodQZzabP8_8smol_str7SmolStrNtNtB5_5value5ValueENCNvXs0_B3_BZ_INtNtB1A_7convert4FromNtB3N_9ValueKindE4froms_0EEB7_
FN:129,_RNCINvMNtNtCsfZPcC2TrjjJ_17cedar_policy_core3ast15restricted_exprNtB5_14RestrictedExpr6recordATNtCsbIodQZzabP8_8smol_str7SmolStrB11_Ej1_E0B9_
FN:129,_RNCINvMNtNtCsfZPcC2TrjjJ_17cedar_policy_core3ast15restricted_exprNtB5_14RestrictedExpr6recordATNtCsbIodQZzabP8_8smol_str7SmolStrB11_Ej2_E0B9_
FN:129,_RNCINvMNtNtCsfZPcC2TrjjJ_17cedar_policy_core3ast15restricted_exprNtB5_14RestrictedExpr6recordATNtCsbIodQZzabP8_8smol_str7SmolStrB11_Ej3_E0B9_
FN:129,_RNCINvMNtNtCsfZPcC2TrjjJ_17cedar_policy_core3ast15restricted_exprNtB5_14RestrictedExpr6recordATNtCsbIodQZzabP8_8smol_str7SmolStrB11_Ej5_E0B9_
FN:129,_RNCINvMNtNtCsfZPcC2TrjjJ_17cedar_policy_core3ast15restricted_exprNtB5_14RestrictedExpr6recordATNtCsbIodQZzabP8_8smol_str7SmolStrB11_Ej6_E0B9_
FN:129,_RNCINvMNtNtCsfZPcC2TrjjJ_17cedar_policy_core3ast15restricted_exprNtB5_14RestrictedExpr6recordATNtCsbIodQZzabP8_8smol_str7SmolStrB11_Ej9_E0B9_
FN:129,_RNCINvMNtNtCsfZPcC2TrjjJ_17cedar_policy_core3ast15restricted_exprNtB5_14RestrictedExpr6recordINtNtCsiTraAjBDcu4_5alloc3vec3VecTNtCsbIodQZzabP8_8smol_str7SmolStrB11_EEE0B9_
FN:129,_RNCINvMNtNtCsfZPcC2TrjjJ_17cedar_policy_core3ast15restricted_exprNtB5_14RestrictedExpr6recordINtNtNtNtCsaNl6UpbT7bw_4core4iter8adapters3map3MapINtNtNtNtCsiTraAjBDcu4_5alloc11collections5btree3map8IntoIterNtCsbIodQZzabP8_8smol_str7SmolStrNtNtB7_5value5ValueENCNvXs0_B5_B11_INtNtB1C_7convert4FromNtB3P_9ValueKindE4froms_0EE0B9_
FN:435,_RNCNvMs3_NtNtCsfZPcC2TrjjJ_17cedar_policy_core3ast15restricted_exprNtB7_22BorrowedRestrictedExpr15as_record_pairs0Bb_
FN:254,_RNCNvXs0_NtNtCsfZPcC2TrjjJ_17cedar_policy_core3ast15restricted_exprNtB7_14RestrictedExprINtNtCsaNl6UpbT7bw_4core7convert4FromNtNtB9_5value9ValueKindE4from0Bb_
FN:263,_RNCNvXs0_NtNtCsfZPcC2TrjjJ_17cedar_policy_core3ast15restricted_exprNtB7_14RestrictedExprINtNtCsaNl6UpbT7bw_4core7convert4FromNtNtB9_5value9ValueKindE4froms_0Bb_
FN:78,_RNvMNtNtCsfZPcC2TrjjJ_17cedar_policy_core3ast15restricted_exprNtB2_14RestrictedExpr13new_unchecked
FN:92,_RNvMNtNtCsfZPcC2TrjjJ_17cedar_policy_core3ast15restricted_exprNtB2_14RestrictedExpr21with_maybe_source_loc
FN:66,_RNvMNtNtCsfZPcC2TrjjJ_17cedar_policy_core3ast15restricted_exprNtB2_14RestrictedExpr3new
FN:105,_RNvMNtNtCsfZPcC2TrjjJ_17cedar_policy_core3ast15restricted_exprNtB2_14RestrictedExpr7unknown
FN:176,_RNvMNtNtCsfZPcC2TrjjJ_17cedar_policy_core3ast15restricted_exprNtB2_14RestrictedExpr9as_string
FN:462,_RNvMs3_NtNtCsfZPcC2TrjjJ_17cedar_policy_core3ast15restricted_exprNtB5_22BorrowedRestrictedExpr11try_type_of
FN:340,_RNvMs3_NtNtCsfZPcC2TrjjJ_17cedar_policy_core3ast15restricted_exprNtB5_22BorrowedRestrictedExpr13new_unchecked
FN:444,_RNvMs3_NtNtCsfZPcC2TrjjJ_17cedar_policy_core3ast15restricted_exprNtB5_22BorrowedRestrictedExpr15as_extn_fn_call
FN:429,_RNvMs3_NtNtCsfZPcC2TrjjJ_17cedar_policy_core3ast15restricted_exprNtB5_22BorrowedRestrictedExpr15as_record_pairs
FN:420,_RNvMs3_NtNtCsfZPcC2TrjjJ_17cedar_policy_core3ast15restricted_exprNtB5_22BorrowedRestrictedExpr15as_set_elements
FN:328,_RNvMs3_NtNtCsfZPcC2TrjjJ_17cedar_policy_core3ast15restricted_exprNtB5_22BorrowedRestrictedExpr3new
FN:370,_RNvMs3_NtNtCsfZPcC2TrjjJ_17cedar_policy_core3ast15restricted_exprNtB5_22BorrowedRestrictedExpr7as_bool
FN:400,_RNvMs3_NtNtCsfZPcC2TrjjJ_17cedar_policy_core3ast15restricted_exprNtB5_22BorrowedRestrictedExpr7as_euid
FN:380,_RNvMs3_NtNtCsfZPcC2TrjjJ_17cedar_policy_core3ast15restricted_exprNtB5_22BorrowedRestrictedExpr7as_long
FN:364,_RNvMs3_NtNtCsfZPcC2TrjjJ_17cedar_policy_core3ast15restricted_exprNtB5_22BorrowedRestrictedExpr8to_owned
FN:390,_RNvMs3_NtNtCsfZPcC2TrjjJ_17cedar_policy_core3ast15restricted_exprNtB5_22BorrowedRestrictedExpr9as_string
FN:582,_RNvMsa_NtNtCsfZPcC2TrjjJ_17cedar_policy_core3ast15restricted_exprNtB5_14RestrictedExpr11as_borrowed
FN:470,_RNvNtNtCsfZPcC2TrjjJ_17cedar_policy_core3ast15restricted_expr13is_restricted
FN:250,_RNvXs0_NtNtCsfZPcC2TrjjJ_17cedar_policy_core3ast15restricted_exprNtB5_14RestrictedExprINtNtCsaNl6UpbT7bw_4core7convert4FromNtNtB7_5value9ValueKindE4from
FN:276,_RNvXs1_NtNtCsfZPcC2TrjjJ_17cedar_policy_core3ast15restricted_exprNtB5_14RestrictedExprINtNtCsaNl6UpbT7bw_4core7convert7TryFromNtNtB7_13partial_value12PartialValueE8try_from
FN:305,_RNvXs2_NtNtCsfZPcC2TrjjJ_17cedar_policy_core3ast15restricted_exprNtB5_14RestrictedExprNtNtNtCsaNl6UpbT7bw_4core3str6traits7FromStr8from_str
FN:549,_RNvXs5_NtNtCsfZPcC2TrjjJ_17cedar_policy_core3ast15restricted_exprNtB5_14RestrictedExprINtNtCsaNl6UpbT7bw_4core7convert5AsRefNtNtB7_4expr4ExprE6as_ref
FN:556,_RNvXs6_NtNtCsfZPcC2TrjjJ_17cedar_policy_core3ast15restricted_exprNtB5_14RestrictedExprNtNtNtCsaNl6UpbT7bw_4core3ops5deref5Deref5deref
FN:562,_RNvXs7_NtNtCsfZPcC2TrjjJ_17cedar_policy_core3ast15restricted_exprNtB5_14RestrictedExprNtNtCsaNl6UpbT7bw_4core3fmt7Display3fmt
FN:575,_RNvXs9_NtNtCsfZPcC2TrjjJ_17cedar_policy_core3ast15restricted_exprNtB5_22BorrowedRestrictedExprINtNtCsaNl6UpbT7bw_4core7convert5AsRefNtNtB7_4expr4ExprE6as_ref
FN:244,_RNvXs_NtNtCsfZPcC2TrjjJ_17cedar_policy_core3ast15restricted_exprNtB4_14RestrictedExprINtNtCsaNl6UpbT7bw_4core7convert4FromNtNtB6_5value5ValueE4from
FN:589,_RNvXsb_NtNtCsfZPcC2TrjjJ_17cedar_policy_core3ast15restricted_exprNtB5_22BorrowedRestrictedExprNtNtNtCsaNl6UpbT7bw_4core3ops5deref5Deref5deref
FN:595,_RNvXsc_NtNtCsfZPcC2TrjjJ_17cedar_policy_core3ast15restricted_exprNtB5_22BorrowedRestrictedExprNtNtCsaNl6UpbT7bw_4core3fmt7Display3fmt
FNDA:0,_RINvXsf_NtNtCsfZPcC2TrjjJ_17cedar_policy_core3ast15restricted_exprNtB6_23RestrictedExprShapeOnlyNtNtCsaNl6UpbT7bw_4core4hash4Hash4hashpEBa_
FNDA:0,_RNCNvMNtNtCsfZPcC2TrjjJ_17cedar_policy_core3ast15restricted_exprNtB4_14RestrictedExpr15as_record_pairs0B8_
FNDA:0,_RNvMNtNtCsfZPcC2TrjjJ_17cedar_policy_core3ast15restricted_exprNtB2_14RestrictedExpr10as_unknown
FNDA:0,_RNvMNtNtCsfZPcC2TrjjJ_17cedar_policy_core3ast15restricted_exprNtB2_14RestrictedExpr15as_extn_fn_call
FNDA:0,_RNvMNtNtCsfZPcC2TrjjJ_17cedar_policy_core3ast15restricted_exprNtB2_14RestrictedExpr15as_record_pairs
FNDA:0,_RNvMNtNtCsfZPcC2TrjjJ_17cedar_policy_core3ast15restricted_exprNtB2_14RestrictedExpr15as_set_elements
FNDA:0,_RNvMNtNtCsfZPcC2TrjjJ_17cedar_policy_core3ast15restricted_exprNtB2_14RestrictedExpr15to_natural_json
FNDA:0,_RNvMNtNtCsfZPcC2TrjjJ_17cedar_policy_core3ast15restricted_exprNtB2_14RestrictedExpr7as_bool
FNDA:0,_RNvMNtNtCsfZPcC2TrjjJ_17cedar_policy_core3ast15restricted_exprNtB2_14RestrictedExpr7as_euid
FNDA:0,_RNvMNtNtCsfZPcC2TrjjJ_17cedar_policy_core3ast15restricted_exprNtB2_14RestrictedExpr7as_long
FNDA:0,_RNvMs3_NtNtCsfZPcC2TrjjJ_17cedar_policy_core3ast15restricted_exprNtB5_22BorrowedRestrictedExpr10as_unknown
FNDA:0,_RNvMs3_NtNtCsfZPcC2TrjjJ_17cedar_policy_core3ast15restricted_exprNtB5_22BorrowedRestrictedExpr15to_natural_json
FNDA:0,_RNvMsd_NtNtCsfZPcC2TrjjJ_17cedar_policy_core3ast15restricted_exprNtB5_23RestrictedExprShapeOnly3new
FNDA:0,_RNvXs8_NtNtCsfZPcC2TrjjJ_17cedar_policy_core3ast15restricted_exprRNtNtB7_4expr4ExprINtNtCsaNl6UpbT7bw_4core7convert4FromNtB5_22BorrowedRestrictedExprE4from
FNDA:0,_RNvXse_NtNtCsfZPcC2TrjjJ_17cedar_policy_core3ast15restricted_exprNtB5_23RestrictedExprShapeOnlyNtNtCsaNl6UpbT7bw_4core3cmp9PartialEq2eq
FNDA:950,_RNvXs4_NtNtCsfZPcC2TrjjJ_17cedar_policy_core3ast15restricted_exprNtNtB7_4expr4ExprINtNtCsaNl6UpbT7bw_4core7convert4FromNtB5_14RestrictedExprE4from
FNDA:1,_RNvNtNtNtCsfZPcC2TrjjJ_17cedar_policy_core3ast15restricted_expr4tests_13duplicate_key
FNDA:83,_RINvMNtNtCsfZPcC2TrjjJ_17cedar_policy_core3ast15restricted_exprNtB3_14RestrictedExpr17call_extension_fnABZ_j1_EB7_
FNDA:88,_RINvMNtNtCsfZPcC2TrjjJ_17cedar_policy_core3ast15restricted_exprNtB3_14RestrictedExpr17call_extension_fnINtNtCsiTraAjBDcu4_5alloc3vec3VecBZ_EEB7_
FNDA:21,_RINvMNtNtCsfZPcC2TrjjJ_17cedar_policy_core3ast15restricted_exprNtB3_14RestrictedExpr17call_extension_fnINtNtNtNtCsaNl6UpbT7bw_4core4iter7sources4once4OnceBZ_EEB7_
FNDA:46,_RINvMNtNtCsfZPcC2TrjjJ_17cedar_policy_core3ast15restricted_exprNtB3_14RestrictedExpr3setABZ_j0_EB7_
FNDA:2,_RINvMNtNtCsfZPcC2TrjjJ_17cedar_policy_core3ast15restricted_exprNtB3_14RestrictedExpr3setABZ_j1_EB7_
FNDA:2,_RINvMNtNtCsfZPcC2TrjjJ_17cedar_policy_core3ast15restricted_exprNtB3_14RestrictedExpr3setABZ_j2_EB7_
FNDA:2,_RINvMNtNtCsfZPcC2TrjjJ_17cedar_policy_core3ast15restricted_exprNtB3_14RestrictedExpr3setABZ_j3_EB7_
FNDA:42,_RINvMNtNtCsfZPcC2TrjjJ_17cedar_policy_core3ast15restricted_exprNtB3_14RestrictedExpr3setINtNtCsiTraAjBDcu4_5alloc3vec3VecBZ_EEB7_
FNDA:40,_RINvMNtNtCsfZPcC2TrjjJ_17cedar_policy_core3ast15restricted_exprNtB3_14RestrictedExpr3setINtNtNtNtCsaNl6UpbT7bw_4core4iter8adapters3map3MapINtNtNtNtCsiTraAjBDcu4_5alloc11collections5btree3set4IterNtNtB5_5value5ValueENCNvXs0_B3_BZ_INtNtB1x_7convert4FromNtB39_9ValueKindE4from0EEB7_
FNDA:270,_RINvMNtNtCsfZPcC2TrjjJ_17cedar_policy_core3ast15restricted_exprNtB3_14RestrictedExpr3valNtCsbIodQZzabP8_8smol_str7SmolStrEB7_
FNDA:456,_RINvMNtNtCsfZPcC2TrjjJ_17cedar_policy_core3ast15restricted_exprNtB3_14RestrictedExpr3valNtNtB5_6entity9EntityUIDEB7_
FNDA:642,_RINvMNtNtCsfZPcC2TrjjJ_17cedar_policy_core3ast15restricted_exprNtB3_14RestrictedExpr3valNtNtB5_7literal7LiteralEB7_
FNDA:209,_RINvMNtNtCsfZPcC2TrjjJ_17cedar_policy_core3ast15restricted_exprNtB3_14RestrictedExpr3valReEB7_
FNDA:60,_RINvMNtNtCsfZPcC2TrjjJ_17cedar_policy_core3ast15restricted_exprNtB3_14RestrictedExpr3valbEB7_
FNDA:156,_RINvMNtNtCsfZPcC2TrjjJ_17cedar_policy_core3ast15restricted_exprNtB3_14RestrictedExpr3valxEB7_
FNDA:5,_RINvMNtNtCsfZPcC2TrjjJ_17cedar_policy_core3ast15restricted_exprNtB3_14RestrictedExpr6recordATNtCsbIodQZzabP8_8smol_str7SmolStrBZ_Ej1_EB7_
FNDA:5,_RINvMNtNtCsfZPcC2TrjjJ_17cedar_policy_core3ast15restricted_exprNtB3_14RestrictedExpr6recordATNtCsbIodQZzabP8_8smol_str7SmolStrBZ_Ej2_EB7_
FNDA:47,_RINvMNtNtCsfZPcC2TrjjJ_17cedar_policy_core3ast15restricted_exprNtB3_14RestrictedExpr6recordATNtCsbIodQZzabP8_8smol_str7SmolStrBZ_Ej3_EB7_
FNDA:1,_RINvMNtNtCsfZPcC2TrjjJ_17cedar_policy_core3ast15restricted_exprNtB3_14RestrictedExpr6recordATNtCsbIodQZzabP8_8smol_str7SmolStrBZ_Ej5_EB7_
FNDA:1,_RINvMNtNtCsfZPcC2TrjjJ_17cedar_policy_core3ast15restricted_exprNtB3_14RestrictedExpr6recordATNtCsbIodQZzabP8_8smol_str7SmolStrBZ_Ej6_EB7_
FNDA:1,_RINvMNtNtCsfZPcC2TrjjJ_17cedar_policy_core3ast15restricted_exprNtB3_14RestrictedExpr6recordATNtCsbIodQZzabP8_8smol_str7SmolStrBZ_Ej9_EB7_
FNDA:117,_RINvMNtNtCsfZPcC2TrjjJ_17cedar_policy_core3ast15restricted_exprNtB3_14RestrictedExpr6recordINtNtCsiTraAjBDcu4_5alloc3vec3VecTNtCsbIodQZzabP8_8smol_str7SmolStrBZ_EEEB7_
FNDA:55,_RINvMNtNtCsfZPcC2TrjjJ_17cedar_policy_core3ast15restricted_exprNtB3_14RestrictedExpr6recordINtNtNtNtCsaNl6UpbT7bw_4core4iter8adapters3map3MapINtNtNtNtCsiTraAjBDcu4_5alloc11collections5btree3map8IntoIterNtCsbIodQZzabP8_8smol_str7SmolStrNtNtB5_5value5ValueENCNvXs0_B3_BZ_INtNtB1A_7convert4FromNtB3N_9ValueKindE4froms_0EEB7_
FNDA:5,_RNCINvMNtNtCsfZPcC2TrjjJ_17cedar_policy_core3ast15restricted_exprNtB5_14RestrictedExpr6recordATNtCsbIodQZzabP8_8smol_str7SmolStrB11_Ej1_E0B9_
FNDA:10,_RNCINvMNtNtCsfZPcC2TrjjJ_17cedar_policy_core3ast15restricted_exprNtB5_14RestrictedExpr6recordATNtCsbIodQZzabP8_8smol_str7SmolStrB11_Ej2_E0B9_
FNDA:141,_RNCINvMNtNtCsfZPcC2TrjjJ_17cedar_policy_core3ast15restricted_exprNtB5_14RestrictedExpr6recordATNtCsbIodQZzabP8_8smol_str7SmolStrB11_Ej3_E0B9_
FNDA:4,_RNCINvMNtNtCsfZPcC2TrjjJ_17cedar_policy_core3ast15restricted_exprNtB5_14RestrictedExpr6recordATNtCsbIodQZzabP8_8smol_str7SmolStrB11_Ej5_E0B9_
FNDA:6,_RNCINvMNtNtCsfZPcC2TrjjJ_17cedar_policy_core3ast15restricted_exprNtB5_14RestrictedExpr6recordATNtCsbIodQZzabP8_8smol_str7SmolStrB11_Ej6_E0B9_
FNDA:9,_RNCINvMNtNtCsfZPcC2TrjjJ_17cedar_policy_core3ast15restricted_exprNtB5_14RestrictedExpr6recordATNtCsbIodQZzabP8_8smol_str7SmolStrB11_Ej9_E0B9_
FNDA:222,_RNCINvMNtNtCsfZPcC2TrjjJ_17cedar_policy_core3ast15restricted_exprNtB5_14RestrictedExpr6recordINtNtCsiTraAjBDcu4_5alloc3vec3VecTNtCsbIodQZzabP8_8smol_str7SmolStrB11_EEE0B9_
FNDA:71,_RNCINvMNtNtCsfZPcC2TrjjJ_17cedar_policy_core3ast15restricted_exprNtB5_14RestrictedExpr6recordINtNtNtNtCsaNl6UpbT7bw_4core4iter8adapters3map3MapINtNtNtNtCsiTraAjBDcu4_5alloc11collections5btree3map8IntoIterNtCsbIodQZzabP8_8smol_str7SmolStrNtNtB7_5value5ValueENCNvXs0_B5_B11_INtNtB1C_7convert4FromNtB3P_9ValueKindE4froms_0EE0B9_
FNDA:45,_RNCNvMs3_NtNtCsfZPcC2TrjjJ_17cedar_policy_core3ast15restricted_exprNtB7_22BorrowedRestrictedExpr15as_record_pairs0Bb_
FNDA:64,_RNCNvXs0_NtNtCsfZPcC2TrjjJ_17cedar_policy_core3ast15restricted_exprNtB7_14RestrictedExprINtNtCsaNl6UpbT7bw_4core7convert4FromNtNtB9_5value9ValueKindE4from0Bb_
FNDA:71,_RNCNvXs0_NtNtCsfZPcC2TrjjJ_17cedar_policy_core3ast15restricted_exprNtB7_14RestrictedExprINtNtCsaNl6UpbT7bw_4core7convert4FromNtNtB9_5value9ValueKindE4froms_0Bb_
FNDA:2377,_RNvMNtNtCsfZPcC2TrjjJ_17cedar_policy_core3ast15restricted_exprNtB2_14RestrictedExpr13new_unchecked
FNDA:765,_RNvMNtNtCsfZPcC2TrjjJ_17cedar_policy_core3ast15restricted_exprNtB2_14RestrictedExpr21with_maybe_source_loc
FNDA:2385,_RNvMNtNtCsfZPcC2TrjjJ_17cedar_policy_core3ast15restricted_exprNtB2_14RestrictedExpr3new
FNDA:1,_RNvMNtNtCsfZPcC2TrjjJ_17cedar_policy_core3ast15restricted_exprNtB2_14RestrictedExpr7unknown
FNDA:1,_RNvMNtNtCsfZPcC2TrjjJ_17cedar_policy_core3ast15restricted_exprNtB2_14RestrictedExpr9as_string
FNDA:22,_RNvMs3_NtNtCsfZPcC2TrjjJ_17cedar_policy_core3ast15restricted_exprNtB5_22BorrowedRestrictedExpr11try_type_of
FNDA:1307,_RNvMs3_NtNtCsfZPcC2TrjjJ_17cedar_policy_core3ast15restricted_exprNtB5_22BorrowedRestrictedExpr13new_unchecked
FNDA:0,_RNvMs3_NtNtCsfZPcC2TrjjJ_17cedar_policy_core3ast15restricted_exprNtB5_22BorrowedRestrictedExpr15as_extn_fn_call
FNDA:39,_RNvMs3_NtNtCsfZPcC2TrjjJ_17cedar_policy_core3ast15restricted_exprNtB5_22BorrowedRestrictedExpr15as_record_pairs
FNDA:47,_RNvMs3_NtNtCsfZPcC2TrjjJ_17cedar_policy_core3ast15restricted_exprNtB5_22BorrowedRestrictedExpr15as_set_elements
FNDA:1359,_RNvMs3_NtNtCsfZPcC2TrjjJ_17cedar_policy_core3ast15restricted_exprNtB5_22BorrowedRestrictedExpr3new
FNDA:17,_RNvMs3_NtNtCsfZPcC2TrjjJ_17cedar_policy_core3ast15restricted_exprNtB5_22BorrowedRestrictedExpr7as_bool
FNDA:61,_RNvMs3_NtNtCsfZPcC2TrjjJ_17cedar_policy_core3ast15restricted_exprNtB5_22BorrowedRestrictedExpr7as_euid
FNDA:19,_RNvMs3_NtNtCsfZPcC2TrjjJ_17cedar_policy_core3ast15restricted_exprNtB5_22BorrowedRestrictedExpr7as_long
FNDA:27,_RNvMs3_NtNtCsfZPcC2TrjjJ_17cedar_policy_core3ast15restricted_exprNtB5_22BorrowedRestrictedExpr8to_owned
FNDA:36,_RNvMs3_NtNtCsfZPcC2TrjjJ_17cedar_policy_core3ast15restricted_exprNtB5_22BorrowedRestrictedExpr9as_string
FNDA:543,_RNvMsa_NtNtCsfZPcC2TrjjJ_17cedar_policy_core3ast15restricted_exprNtB5_14RestrictedExpr11as_borrowed
FNDA:5687,_RNvNtNtCsfZPcC2TrjjJ_17cedar_policy_core3ast15restricted_expr13is_restricted
FNDA:765,_RNvXs0_NtNtCsfZPcC2TrjjJ_17cedar_policy_core3ast15restricted_exprNtB5_14RestrictedExprINtNtCsaNl6UpbT7bw_4core7convert4FromNtNtB7_5value9ValueKindE4from
FNDA:79,_RNvXs1_NtNtCsfZPcC2TrjjJ_17cedar_policy_core3ast15restricted_exprNtB5_14RestrictedExprINtNtCsaNl6UpbT7bw_4core7convert7TryFromNtNtB7_13partial_value12PartialValueE8try_from
FNDA:1,_RNvXs2_NtNtCsfZPcC2TrjjJ_17cedar_policy_core3ast15restricted_exprNtB5_14RestrictedExprNtNtNtCsaNl6UpbT7bw_4core3str6traits7FromStr8from_str
FNDA:978,_RNvXs5_NtNtCsfZPcC2TrjjJ_17cedar_policy_core3ast15restricted_exprNtB5_14RestrictedExprINtNtCsaNl6UpbT7bw_4core7convert5AsRefNtNtB7_4expr4ExprE6as_ref
FNDA:435,_RNvXs6_NtNtCsfZPcC2TrjjJ_17cedar_policy_core3ast15restricted_exprNtB5_14RestrictedExprNtNtNtCsaNl6UpbT7bw_4core3ops5deref5Deref5deref
FNDA:10,_RNvXs7_NtNtCsfZPcC2TrjjJ_17cedar_policy_core3ast15restricted_exprNtB5_14RestrictedExprNtNtCsaNl6UpbT7bw_4core3fmt7Display3fmt
FNDA:1084,_RNvXs9_NtNtCsfZPcC2TrjjJ_17cedar_policy_core3ast15restricted_exprNtB5_22BorrowedRestrictedExprINtNtCsaNl6UpbT7bw_4core7convert5AsRefNtNtB7_4expr4ExprE6as_ref
FNDA:765,_RNvXs_NtNtCsfZPcC2TrjjJ_17cedar_policy_core3ast15restricted_exprNtB4_14RestrictedExprINtNtCsaNl6UpbT7bw_4core7convert4FromNtNtB6_5value5ValueE4from
FNDA:1857,_RNvXsb_NtNtCsfZPcC2TrjjJ_17cedar_policy_core3ast15restricted_exprNtB5_22BorrowedRestrictedExprNtNtNtCsaNl6UpbT7bw_4core3ops5deref5Deref5deref
FNDA:14,_RNvXsc_NtNtCsfZPcC2TrjjJ_17cedar_policy_core3ast15restricted_exprNtB5_22BorrowedRestrictedExprNtNtCsaNl6UpbT7bw_4core3fmt7Display3fmt
FNF:53
FNH:37
DA:66,2385
DA:67,2385
DA:68,2385
DA:69,2385
DA:78,2377
DA:80,2377
DA:85,2377
DA:87,0
DA:89,2377
DA:92,765
DA:93,765
DA:94,765
DA:99,1793
DA:101,1793
DA:102,1793
DA:105,1
DA:107,1
DA:108,1
DA:111,134
DA:115,134
DA:116,134
DA:122,232
DA:123,232
DA:124,232
DA:128,232
DA:129,468
DA:130,4
DA:131,232
DA:134,192
DA:135,192
DA:136,192
DA:137,192
DA:141,192
DA:142,192
DA:143,192
DA:145,192
DA:150,0
DA:151,0
DA:152,0
DA:156,0
DA:158,0
DA:159,0
DA:160,0
DA:162,0
DA:166,0
DA:168,0
DA:169,0
DA:170,0
DA:172,0
DA:176,1
DA:178,1
DA:179,1
DA:180,0
DA:182,1
DA:186,0
DA:189,0
DA:190,0
DA:191,0
DA:193,0
DA:197,0
DA:198,0
DA:199,0
DA:200,0
DA:202,0
DA:206,0
DA:207,0
DA:208,0
DA:209,0
DA:211,0
DA:215,0
DA:216,0
DA:217,0
DA:218,0
DA:219,0
DA:220,0
DA:221,0
DA:223,0
DA:225,0
DA:230,0
DA:231,0
DA:232,0
DA:233,0
DA:234,0
DA:235,0
DA:236,0
DA:237,0
DA:238,0
DA:240,0
DA:244,765
DA:245,765
DA:246,765
DA:250,765
DA:251,765
DA:252,642
DA:253,40
DA:254,64
DA:260,55
DA:261,55
DA:262,55
DA:263,71
DA:265,55
DA:266,28
DA:267,28
DA:268,28
DA:271,765
DA:276,79
DA:277,79
DA:278,79
DA:279,0
DA:280,0
DA:282,0
DA:283,0
DA:284,0
DA:285,0
DA:288,79
DA:305,1
DA:306,1
DA:307,1
DA:328,1359
DA:329,1359
DA:330,1343
DA:331,1359
DA:340,1307
DA:342,1307
DA:347,1307
DA:349,0
DA:351,1307
DA:356,0
DA:357,0
DA:358,0
DA:359,0
DA:360,0
DA:364,27
DA:365,27
DA:366,27
DA:370,17
DA:372,17
DA:373,13
DA:374,4
DA:376,17
DA:380,19
DA:382,19
DA:383,14
DA:384,5
DA:386,19
DA:390,36
DA:392,36
DA:393,34
DA:394,2
DA:396,36
DA:400,61
DA:403,61
DA:404,61
DA:405,0
DA:407,61
DA:411,0
DA:412,0
DA:413,0
DA:414,0
DA:416,0
DA:420,47
DA:421,47
DA:422,45
DA:423,2
DA:425,47
DA:429,39
DA:430,39
DA:431,39
DA:432,39
DA:433,38
DA:434,38
DA:435,45
DA:437,1
DA:439,39
DA:444,0
DA:445,0
DA:446,0
DA:447,0
DA:448,0
DA:449,0
DA:450,0
DA:451,0
DA:452,0
DA:454,0
DA:462,22
DA:463,22
DA:464,22
DA:470,5687
DA:471,5687
DA:472,4257
DA:473,44
DA:474,5
DA:475,5
DA:476,5
DA:477,5
DA:478,5
DA:479,0
DA:480,0
DA:481,0
DA:482,0
DA:483,0
DA:484,1
DA:485,1
DA:486,1
DA:487,1
DA:488,1
DA:489,2
DA:490,2
DA:491,2
DA:492,2
DA:493,2
DA:494,1
DA:495,1
DA:496,1
DA:497,1
DA:498,1
DA:499,1
DA:500,1
DA:501,1
DA:502,1
DA:503,1
DA:504,1
DA:506,2
DA:507,2
DA:508,2
DA:509,2
DA:510,2
DA:511,2
DA:513,1
DA:514,1
DA:515,1
DA:516,1
DA:517,1
DA:518,1
DA:519,1
DA:520,1
DA:521,1
DA:522,1
DA:523,1
DA:524,1
DA:525,1
DA:526,1
DA:527,1
DA:528,1
DA:529,1
DA:530,1
DA:531,1
DA:532,1
DA:533,367
DA:534,388
DA:535,615
DA:539,5687
DA:543,950
DA:544,950
DA:545,950
DA:549,978
DA:550,978
DA:551,978
DA:556,435
DA:557,435
DA:558,435
DA:562,10
DA:563,10
DA:564,10
DA:569,0
DA:570,0
DA:571,0
DA:575,1084
DA:576,1084
DA:577,1084
DA:582,543
DA:583,543
DA:584,543
DA:589,1857
DA:590,1857
DA:591,1857
DA:595,14
DA:596,14
DA:597,14
DA:613,0
DA:614,0
DA:615,0
DA:619,0
DA:620,0
DA:621,0
DA:625,0
DA:626,0
DA:627,0
DA:701,1
DA:703,1
DA:704,1
DA:705,1
DA:706,1
DA:707,1
DA:708,1
DA:709,1
DA:710,1
DA:711,1
DA:712,1
DA:716,1
DA:717,1
DA:718,1
DA:719,1
DA:720,1
DA:721,1
DA:722,1
DA:723,1
DA:724,1
DA:725,1
DA:729,1
DA:730,1
DA:731,1
DA:732,1
DA:733,1
DA:734,1
DA:735,1
DA:736,1
DA:737,1
DA:738,1
DA:742,1
DA:743,1
DA:744,1
DA:745,1
DA:746,1
DA:747,1
DA:748,1
DA:749,1
DA:750,1
DA:751,1
DA:752,1
DA:753,1
DA:754,1
DA:758,1
DA:759,1
DA:760,1
DA:761,1
DA:762,1
DA:763,1
DA:764,1
DA:765,1
DA:766,1
DA:767,1
DA:768,1
DA:769,1
DA:770,1
DA:771,1
DA:772,1
DA:774,1
BRF:0
BRH:0
LF:353
LH:258
end_of_record
SF:/Users/victornl/repos/cedar-spec/cedar/cedar-policy-core/src/ast/types.rs
FN:68,_RNvMNtNtCsfZPcC2TrjjJ_17cedar_policy_core3ast5typesNtB2_4Type11entity_type
FN:74,_RNvXs_NtNtCsfZPcC2TrjjJ_17cedar_policy_core3ast5typesNtB4_4TypeNtNtCsaNl6UpbT7bw_4core3fmt7Display3fmt
FNDA:36,_RNvMNtNtCsfZPcC2TrjjJ_17cedar_policy_core3ast5typesNtB2_4Type11entity_type
FNDA:108,_RNvXs_NtNtCsfZPcC2TrjjJ_17cedar_policy_core3ast5typesNtB4_4TypeNtNtCsaNl6UpbT7bw_4core3fmt7Display3fmt
FNF:2
FNH:2
DA:68,36
DA:69,36
DA:70,36
DA:74,108
DA:75,108
DA:76,4
DA:77,34
DA:78,4
DA:79,3
DA:80,6
DA:81,5
DA:82,52
DA:84,108
BRF:0
BRH:0
LF:13
LH:13
end_of_record
SF:/Users/victornl/repos/cedar-spec/cedar/cedar-policy-core/src/ast/value.rs
FN:113,_RNvMNtNtCsfZPcC2TrjjJ_17cedar_policy_core3ast5valueNtB2_5Value10record_arc
FN:131,_RNvMNtNtCsfZPcC2TrjjJ_17cedar_policy_core3ast5valueNtB2_5Value10source_loc
FN:136,_RNvMNtNtCsfZPcC2TrjjJ_17cedar_policy_core3ast5valueNtB2_5Value10try_as_lit
FN:126,_RNvMNtNtCsfZPcC2TrjjJ_17cedar_policy_core3ast5valueNtB2_5Value10value_kind
FN:66,_RNvMNtNtCsfZPcC2TrjjJ_17cedar_policy_core3ast5valueNtB2_5Value12empty_record
FN:121,_RNvMNtNtCsfZPcC2TrjjJ_17cedar_policy_core3ast5valueNtB2_5Value21with_maybe_source_loc
FN:58,_RNvMNtNtCsfZPcC2TrjjJ_17cedar_policy_core3ast5valueNtB2_5Value9empty_set
FN:193,_RNvMs0_NtNtCsfZPcC2TrjjJ_17cedar_policy_core3ast5valueNtB5_9ValueKind10record_arc
FN:198,_RNvMs0_NtNtCsfZPcC2TrjjJ_17cedar_policy_core3ast5valueNtB5_9ValueKind10try_as_lit
FN:166,_RNvMs0_NtNtCsfZPcC2TrjjJ_17cedar_policy_core3ast5valueNtB5_9ValueKind12empty_record
FN:161,_RNvMs0_NtNtCsfZPcC2TrjjJ_17cedar_policy_core3ast5valueNtB5_9ValueKind9empty_set
FN:469,_RNvMs5_NtNtCsfZPcC2TrjjJ_17cedar_policy_core3ast5valueNtB5_3Set11is_disjoint
FN:438,_RNvMs5_NtNtCsfZPcC2TrjjJ_17cedar_policy_core3ast5valueNtB5_3Set3len
FN:448,_RNvMs5_NtNtCsfZPcC2TrjjJ_17cedar_policy_core3ast5valueNtB5_3Set4iter
FN:400,_RNvMs5_NtNtCsfZPcC2TrjjJ_17cedar_policy_core3ast5valueNtB5_3Set5empty
FN:481,_RNvMs5_NtNtCsfZPcC2TrjjJ_17cedar_policy_core3ast5valueNtB5_3Set8contains
FN:443,_RNvMs5_NtNtCsfZPcC2TrjjJ_17cedar_policy_core3ast5valueNtB5_3Set8is_empty
FN:453,_RNvMs5_NtNtCsfZPcC2TrjjJ_17cedar_policy_core3ast5valueNtB5_3Set9is_subset
FN:542,_RNvXs8_NtNtCsfZPcC2TrjjJ_17cedar_policy_core3ast5valueNtB5_9ValueKindNtNtCsaNl6UpbT7bw_4core3cmp9PartialEq2eq
FN:557,_RNvXsa_NtNtCsfZPcC2TrjjJ_17cedar_policy_core3ast5valueNtB5_3SetNtNtCsaNl6UpbT7bw_4core3cmp9PartialEq2eq
FN:571,_RNvXsc_NtNtCsfZPcC2TrjjJ_17cedar_policy_core3ast5valueNtB5_3SetNtNtCsaNl6UpbT7bw_4core3cmp3Ord3cmp
FN:586,_RNvXse_NtNtCsfZPcC2TrjjJ_17cedar_policy_core3ast5valueNtB5_5ValueNtNtB7_5types15StaticallyTyped7type_of
FN:592,_RNvXsf_NtNtCsfZPcC2TrjjJ_17cedar_policy_core3ast5valueNtB5_9ValueKindNtNtB7_5types15StaticallyTyped7type_of
FN:672,_RNvXsh_NtNtCsfZPcC2TrjjJ_17cedar_policy_core3ast5valueNtB5_5ValueNtNtCsaNl6UpbT7bw_4core3fmt7Display3fmt
FN:678,_RNvXsi_NtNtCsfZPcC2TrjjJ_17cedar_policy_core3ast5valueNtB5_9ValueKindNtNtCsaNl6UpbT7bw_4core3fmt7Display3fmt
FN:618,_RINvYpNtNtNtCsfZPcC2TrjjJ_17cedar_policy_core3ast5value14BoundedDisplay11fmt_boundedpEBa_
FN:371,_RNCNCNvXs4_NtNtCsfZPcC2TrjjJ_17cedar_policy_core3ast5valueNtB9_9ValueKindINtNtCsaNl6UpbT7bw_4core7convert7TryFromNtNtBb_4expr4ExprE8try_froms_00Bd_
FN:327,_RNCNvXs2_NtNtCsfZPcC2TrjjJ_17cedar_policy_core3ast5valueNtB7_8NotValueNtNtCsdupp4Rg7VfC_6miette8protocol10Diagnostic11source_code0Bb_
FN:319,_RNCNvXs2_NtNtCsfZPcC2TrjjJ_17cedar_policy_core3ast5valueNtB7_8NotValueNtNtCsdupp4Rg7VfC_6miette8protocol10Diagnostic6labels0Bb_
FN:366,_RNCNvXs4_NtNtCsfZPcC2TrjjJ_17cedar_policy_core3ast5valueNtB7_9ValueKindINtNtCsaNl6UpbT7bw_4core7convert7TryFromNtNtB9_4expr4ExprE8try_from0Bb_
FN:373,_RNCNvXs4_NtNtCsfZPcC2TrjjJ_17cedar_policy_core3ast5valueNtB7_9ValueKindINtNtCsaNl6UpbT7bw_4core7convert7TryFromNtNtB9_4expr4ExprE8try_froms0_0Bb_
FN:371,_RNCNvXs4_NtNtCsfZPcC2TrjjJ_17cedar_policy_core3ast5valueNtB7_9ValueKindINtNtCsaNl6UpbT7bw_4core7convert7TryFromNtNtB9_4expr4ExprE8try_froms_0Bb_
FN:148,_RNvMNtNtCsfZPcC2TrjjJ_17cedar_policy_core3ast5valueNtB2_5Value16all_literal_uids
FN:143,_RNvMNtNtCsfZPcC2TrjjJ_17cedar_policy_core3ast5valueNtB2_5Value22eq_and_same_source_loc
FN:206,_RNvMs0_NtNtCsfZPcC2TrjjJ_17cedar_policy_core3ast5valueNtB5_9ValueKind16all_literal_uids
FN:697,_RNvXININtNtCsfZPcC2TrjjJ_17cedar_policy_core3ast5valuesk_0pENtB5_9ValueKindINtNtCsaNl6UpbT7bw_4core7convert4FromINtNtCsiTraAjBDcu4_5alloc3vec3VecpEE4fromB9_
FN:325,_RNvXs2_NtNtCsfZPcC2TrjjJ_17cedar_policy_core3ast5valueNtB5_8NotValueNtNtCsdupp4Rg7VfC_6miette8protocol10Diagnostic11source_code
FN:317,_RNvXs2_NtNtCsfZPcC2TrjjJ_17cedar_policy_core3ast5valueNtB5_8NotValueNtNtCsdupp4Rg7VfC_6miette8protocol10Diagnostic6labels
FN:335,_RNvXs3_NtNtCsfZPcC2TrjjJ_17cedar_policy_core3ast5valueNtB5_5ValueINtNtCsaNl6UpbT7bw_4core7convert7TryFromNtNtB7_4expr4ExprE8try_from
FN:347,_RNvXs4_NtNtCsfZPcC2TrjjJ_17cedar_policy_core3ast5valueNtB5_9ValueKindINtNtCsaNl6UpbT7bw_4core7convert7TryFromNtNtB7_4expr4ExprE8try_from
FN:579,_RNvXsd_NtNtCsfZPcC2TrjjJ_17cedar_policy_core3ast5valueNtB5_3SetNtNtCsaNl6UpbT7bw_4core3cmp10PartialOrd11partial_cmp
FN:653,_RNvYpNtNtNtCsfZPcC2TrjjJ_17cedar_policy_core3ast5value15BoundedToString19to_string_unboundedB9_
FN:663,_RNvXsg_NtNtCsfZPcC2TrjjJ_17cedar_policy_core3ast5valueNtNtB7_7request7ContextNtB5_15BoundedToString9to_stringB9_
FN:646,_RNvYNtNtNtCsfZPcC2TrjjJ_17cedar_policy_core3ast7request7ContextNtNtB6_5value15BoundedToString17to_string_boundedB8_
FN:877,_RNvNtNtNtCsfZPcC2TrjjJ_17cedar_policy_core3ast5value4tests_11set_collect
FN:831,_RNvNtNtNtCsfZPcC2TrjjJ_17cedar_policy_core3ast5value4tests_11value_types
FN:870,_RNvNtNtNtCsfZPcC2TrjjJ_17cedar_policy_core3ast5value4tests_14pretty_printer
FN:852,_RNvNtNtNtCsfZPcC2TrjjJ_17cedar_policy_core3ast5value4tests_31test_set_is_empty_for_empty_set
FN:861,_RNvNtNtNtCsfZPcC2TrjjJ_17cedar_policy_core3ast5value4tests_41test_set_is_not_empty_for_set_with_values
FN:729,_RNvNtNtNtCsfZPcC2TrjjJ_17cedar_policy_core3ast5value4tests_6values
FN:625,_RINvYNtNtNtCsfZPcC2TrjjJ_17cedar_policy_core3est4expr11ExtFuncCallNtNtNtB9_3ast5value14BoundedDisplay13fmt_unboundedNtNtCsaNl6UpbT7bw_4core3fmt9FormatterEB9_
FN:625,_RINvYNtNtNtCsfZPcC2TrjjJ_17cedar_policy_core3est4expr9ExprNoExtNtNtNtB9_3ast5value14BoundedDisplay13fmt_unboundedNtNtCsaNl6UpbT7bw_4core3fmt9FormatterEB9_
FN:663,_RNvXsg_NtNtCsfZPcC2TrjjJ_17cedar_policy_core3ast5valueNtNtNtB9_3est4expr4ExprNtB5_15BoundedToString9to_stringB9_
FN:94,_RINvMNtNtCsfZPcC2TrjjJ_17cedar_policy_core3ast5valueNtB3_5Value11set_of_litsINtNtCsiTraAjBDcu4_5alloc3vec3VecNtNtB5_7literal7LiteralEEB7_
FN:75,_RINvMNtNtCsfZPcC2TrjjJ_17cedar_policy_core3ast5valueNtB3_5Value3newNtNtB5_6entity9EntityUIDEB7_
FN:75,_RINvMNtNtCsfZPcC2TrjjJ_17cedar_policy_core3ast5valueNtB3_5Value3newxEB7_
FN:83,_RINvMNtNtCsfZPcC2TrjjJ_17cedar_policy_core3ast5valueNtB3_5Value3setABO_j1_EB7_
FN:83,_RINvMNtNtCsfZPcC2TrjjJ_17cedar_policy_core3ast5valueNtB3_5Value3setINtNtCsiTraAjBDcu4_5alloc3vec3VecBO_EEB7_
FN:83,_RINvMNtNtCsfZPcC2TrjjJ_17cedar_policy_core3ast5valueNtB3_5Value3setINtNtNtCsiTraAjBDcu4_5alloc3vec9into_iter8IntoIterBO_EEB7_
FN:83,_RINvMNtNtCsfZPcC2TrjjJ_17cedar_policy_core3ast5valueNtB3_5Value3setINtNtNtNtCsaNl6UpbT7bw_4core4iter8adapters3map3MapINtNtNtCsiTraAjBDcu4_5alloc3vec9into_iter8IntoIterBO_ENvYBO_INtNtB1c_7convert4IntoBO_E4intoEEB7_
FN:83,_RINvMNtNtCsfZPcC2TrjjJ_17cedar_policy_core3ast5valueNtB3_5Value3setINtNtNtNtCsaNl6UpbT7bw_4core4iter8adapters3map3MapINtNtNtCsiTraAjBDcu4_5alloc3vec9into_iter8IntoIterNtNtB5_7literal7LiteralENvYB2F_INtNtB1c_7convert4IntoBO_E4intoEEB7_
FN:83,_RINvMNtNtCsfZPcC2TrjjJ_17cedar_policy_core3ast5valueNtB3_5Value3setINtNtNtNtCsaNl6UpbT7bw_4core4iter8adapters3map3MapINtNtNtCsiTraAjBDcu4_5alloc3vec9into_iter8IntoIterxENvYxINtNtB1c_7convert4IntoBO_E4intoEEB7_
FN:102,_RINvMNtNtCsfZPcC2TrjjJ_17cedar_policy_core3ast5valueNtB3_5Value6recordNtCsbIodQZzabP8_8smol_str7SmolStrBO_INtNtNtNtCsaNl6UpbT7bw_4core4iter8adapters3zip3ZipINtNtNtCsiTraAjBDcu4_5alloc3vec9into_iter8IntoIterB16_EIB2v_BO_EEEB7_
FN:102,_RINvMNtNtCsfZPcC2TrjjJ_17cedar_policy_core3ast5valueNtB3_5Value6recordNtCsbIodQZzabP8_8smol_str7SmolStrBO_INtNtNtNtCsiTraAjBDcu4_5alloc11collections5btree3map8BTreeMapB16_BO_EEB7_
FN:102,_RINvMNtNtCsfZPcC2TrjjJ_17cedar_policy_core3ast5valueNtB3_5Value6recordReB16_INtNtCsiTraAjBDcu4_5alloc3vec3VecTB16_B16_EEEB7_
FN:102,_RINvMNtNtCsfZPcC2TrjjJ_17cedar_policy_core3ast5valueNtB3_5Value6recordReBO_INtNtCsiTraAjBDcu4_5alloc3vec3VecTB16_BO_EEEB7_
FN:176,_RINvMs0_NtNtCsfZPcC2TrjjJ_17cedar_policy_core3ast5valueNtB6_9ValueKind11set_of_litsINtNtCsiTraAjBDcu4_5alloc3vec3VecNtNtB8_7literal7LiteralEEBa_
FN:171,_RINvMs0_NtNtCsfZPcC2TrjjJ_17cedar_policy_core3ast5valueNtB6_9ValueKind3setANtB6_5Valuej1_EBa_
FN:171,_RINvMs0_NtNtCsfZPcC2TrjjJ_17cedar_policy_core3ast5valueNtB6_9ValueKind3setINtNtCsiTraAjBDcu4_5alloc3vec3VecNtB6_5ValueEEBa_
FN:171,_RINvMs0_NtNtCsfZPcC2TrjjJ_17cedar_policy_core3ast5valueNtB6_9ValueKind3setINtNtNtCsiTraAjBDcu4_5alloc3vec9into_iter8IntoIterNtB6_5ValueEEBa_
FN:171,_RINvMs0_NtNtCsfZPcC2TrjjJ_17cedar_policy_core3ast5valueNtB6_9ValueKind3setINtNtNtNtCsaNl6UpbT7bw_4core4iter8adapters3map3MapINtNtNtCsiTraAjBDcu4_5alloc3vec9into_iter8IntoIterNtB6_5ValueENvYB2M_INtNtB1j_7convert4IntoB2M_E4intoEEBa_
FN:171,_RINvMs0_NtNtCsfZPcC2TrjjJ_17cedar_policy_core3ast5valueNtB6_9ValueKind3setINtNtNtNtCsaNl6UpbT7bw_4core4iter8adapters3map3MapINtNtNtCsiTraAjBDcu4_5alloc3vec9into_iter8IntoIterNtNtB8_7literal7LiteralENvYB2M_INtNtB1j_7convert4IntoNtB6_5ValueE4intoEEBa_
FN:171,_RINvMs0_NtNtCsfZPcC2TrjjJ_17cedar_policy_core3ast5valueNtB6_9ValueKind3setINtNtNtNtCsaNl6UpbT7bw_4core4iter8adapters3map3MapINtNtNtCsiTraAjBDcu4_5alloc3vec9into_iter8IntoIterxENvYxINtNtB1j_7convert4IntoNtB6_5ValueE4intoEEBa_
FN:181,_RINvMs0_NtNtCsfZPcC2TrjjJ_17cedar_policy_core3ast5valueNtB6_9ValueKind6recordNtCsbIodQZzabP8_8smol_str7SmolStrNtB6_5ValueINtNtNtNtCsaNl6UpbT7bw_4core4iter8adapters3zip3ZipINtNtNtCsiTraAjBDcu4_5alloc3vec9into_iter8IntoIterB1d_EIB2K_B1K_EEEBa_
FN:181,_RINvMs0_NtNtCsfZPcC2TrjjJ_17cedar_policy_core3ast5valueNtB6_9ValueKind6recordNtCsbIodQZzabP8_8smol_str7SmolStrNtB6_5ValueINtNtNtNtCsiTraAjBDcu4_5alloc11collections5btree3map8BTreeMapB1d_B1K_EEBa_
FN:181,_RINvMs0_NtNtCsfZPcC2TrjjJ_17cedar_policy_core3ast5valueNtB6_9ValueKind6recordReB1d_INtNtCsiTraAjBDcu4_5alloc3vec3VecTB1d_B1d_EEEBa_
FN:181,_RINvMs0_NtNtCsfZPcC2TrjjJ_17cedar_policy_core3ast5valueNtB6_9ValueKind6recordReNtB6_5ValueINtNtCsiTraAjBDcu4_5alloc3vec3VecTB1d_B1f_EEEBa_
FN:408,_RINvMs5_NtNtCsfZPcC2TrjjJ_17cedar_policy_core3ast5valueNtB6_3Set3newANtB6_5Valuej1_EBa_
FN:408,_RINvMs5_NtNtCsfZPcC2TrjjJ_17cedar_policy_core3ast5valueNtB6_3Set3newINtNtCsiTraAjBDcu4_5alloc3vec3VecNtB6_5ValueEEBa_
FN:408,_RINvMs5_NtNtCsfZPcC2TrjjJ_17cedar_policy_core3ast5valueNtB6_3Set3newINtNtNtCsiTraAjBDcu4_5alloc3vec9into_iter8IntoIterNtB6_5ValueEEBa_
FN:408,_RINvMs5_NtNtCsfZPcC2TrjjJ_17cedar_policy_core3ast5valueNtB6_3Set3newINtNtNtNtCsaNl6UpbT7bw_4core4iter8adapters3map3MapINtNtNtCsiTraAjBDcu4_5alloc3vec9into_iter8IntoIterNtB6_5ValueENvYB2G_INtNtB1d_7convert4IntoB2G_E4intoEEBa_
FN:408,_RINvMs5_NtNtCsfZPcC2TrjjJ_17cedar_policy_core3ast5valueNtB6_3Set3newINtNtNtNtCsaNl6UpbT7bw_4core4iter8adapters3map3MapINtNtNtCsiTraAjBDcu4_5alloc3vec9into_iter8IntoIterNtNtB8_7literal7LiteralENvYB2G_INtNtB1d_7convert4IntoNtB6_5ValueE4intoEEBa_
FN:408,_RINvMs5_NtNtCsfZPcC2TrjjJ_17cedar_policy_core3ast5valueNtB6_3Set3newINtNtNtNtCsaNl6UpbT7bw_4core4iter8adapters3map3MapINtNtNtCsiTraAjBDcu4_5alloc3vec9into_iter8IntoIterxENvYxINtNtB1d_7convert4IntoNtB6_5ValueE4intoEEBa_
FN:422,_RINvMs5_NtNtCsfZPcC2TrjjJ_17cedar_policy_core3ast5valueNtB6_3Set9from_litsINtNtCsiTraAjBDcu4_5alloc3vec3VecNtNtB8_7literal7LiteralEEBa_
FN:220,_RINvXs1_NtNtCsfZPcC2TrjjJ_17cedar_policy_core3ast5valueNtB6_9ValueKindNtB6_14BoundedDisplay3fmtNtNtCsaNl6UpbT7bw_4core3fmt9FormatterEBa_
FN:220,_RINvXs1_NtNtCsfZPcC2TrjjJ_17cedar_policy_core3ast5valueNtB6_9ValueKindNtB6_14BoundedDisplay3fmtNtNtCsiTraAjBDcu4_5alloc6string6StringEBa_
FN:498,_RINvXs6_NtNtCsfZPcC2TrjjJ_17cedar_policy_core3ast5valueNtB6_3SetINtNtNtNtCsaNl6UpbT7bw_4core4iter6traits7collect12FromIteratorNtB6_5ValueE9from_iterINtNtNtCsiTraAjBDcu4_5alloc3vec9into_iter8IntoIterB20_EEBa_
FN:528,_RINvXs7_NtNtCsfZPcC2TrjjJ_17cedar_policy_core3ast5valueNtB6_3SetINtNtNtNtCsaNl6UpbT7bw_4core4iter6traits7collect12FromIteratorNtNtB8_7literal7LiteralE9from_iterINtNtNtB17_8adapters3map3MapINtNtNtNtCsiTraAjBDcu4_5alloc11collections5btree3set8IntoIterNtB6_5ValueENCINvXs6_B6_BR_IB11_B3Z_E9from_iterINtNtNtB39_3vec9into_iter8IntoIterB3Z_EEs_0EEBa_
FN:154,_RINvXs_NtNtCsfZPcC2TrjjJ_17cedar_policy_core3ast5valueNtB5_5ValueNtB5_14BoundedDisplay3fmtNtNtCsaNl6UpbT7bw_4core3fmt9FormatterEB9_
FN:154,_RINvXs_NtNtCsfZPcC2TrjjJ_17cedar_policy_core3ast5valueNtB5_5ValueNtB5_14BoundedDisplay3fmtNtNtCsiTraAjBDcu4_5alloc6string6StringEB9_
FN:625,_RINvYNtNtNtCsfZPcC2TrjjJ_17cedar_policy_core3ast5value9ValueKindNtB5_14BoundedDisplay13fmt_unboundedNtNtCsaNl6UpbT7bw_4core3fmt9FormatterEB9_
FN:187,_RNCINvMs0_NtNtCsfZPcC2TrjjJ_17cedar_policy_core3ast5valueNtB8_9ValueKind6recordNtCsbIodQZzabP8_8smol_str7SmolStrNtB8_5ValueINtNtNtNtCsaNl6UpbT7bw_4core4iter8adapters3zip3ZipINtNtNtCsiTraAjBDcu4_5alloc3vec9into_iter8IntoIterB1f_EIB2M_B1M_EEE0Bc_
FN:187,_RNCINvMs0_NtNtCsfZPcC2TrjjJ_17cedar_policy_core3ast5valueNtB8_9ValueKind6recordNtCsbIodQZzabP8_8smol_str7SmolStrNtB8_5ValueINtNtNtNtCsiTraAjBDcu4_5alloc11collections5btree3map8BTreeMapB1f_B1M_EE0Bc_
FN:187,_RNCINvMs0_NtNtCsfZPcC2TrjjJ_17cedar_policy_core3ast5valueNtB8_9ValueKind6recordReB1f_INtNtCsiTraAjBDcu4_5alloc3vec3VecTB1f_B1f_EEE0Bc_
FN:187,_RNCINvMs0_NtNtCsfZPcC2TrjjJ_17cedar_policy_core3ast5valueNtB8_9ValueKind6recordReNtB8_5ValueINtNtCsiTraAjBDcu4_5alloc3vec3VecTB1f_B1h_EEE0Bc_
FN:412,_RNCINvMs5_NtNtCsfZPcC2TrjjJ_17cedar_policy_core3ast5valueNtB8_3Set3newANtB8_5Valuej1_E0Bc_
FN:412,_RNCINvMs5_NtNtCsfZPcC2TrjjJ_17cedar_policy_core3ast5valueNtB8_3Set3newINtNtCsiTraAjBDcu4_5alloc3vec3VecNtB8_5ValueEE0Bc_
FN:412,_RNCINvMs5_NtNtCsfZPcC2TrjjJ_17cedar_policy_core3ast5valueNtB8_3Set3newINtNtNtCsiTraAjBDcu4_5alloc3vec9into_iter8IntoIterNtB8_5ValueEE0Bc_
FN:412,_RNCINvMs5_NtNtCsfZPcC2TrjjJ_17cedar_policy_core3ast5valueNtB8_3Set3newINtNtNtNtCsaNl6UpbT7bw_4core4iter8adapters3map3MapINtNtNtCsiTraAjBDcu4_5alloc3vec9into_iter8IntoIterNtB8_5ValueENvYB2I_INtNtB1f_7convert4IntoB2I_E4intoEE0Bc_
FN:412,_RNCINvMs5_NtNtCsfZPcC2TrjjJ_17cedar_policy_core3ast5valueNtB8_3Set3newINtNtNtNtCsaNl6UpbT7bw_4core4iter8adapters3map3MapINtNtNtCsiTraAjBDcu4_5alloc3vec9into_iter8IntoIterNtNtBa_7literal7LiteralENvYB2I_INtNtB1f_7convert4IntoNtB8_5ValueE4intoEE0Bc_
FN:412,_RNCINvMs5_NtNtCsfZPcC2TrjjJ_17cedar_policy_core3ast5valueNtB8_3Set3newINtNtNtNtCsaNl6UpbT7bw_4core4iter8adapters3map3MapINtNtNtCsiTraAjBDcu4_5alloc3vec9into_iter8IntoIterxENvYxINtNtB1f_7convert4IntoNtB8_5ValueE4intoEE0Bc_
FN:427,_RNCINvMs5_NtNtCsfZPcC2TrjjJ_17cedar_policy_core3ast5valueNtB8_3Set9from_litsINtNtCsiTraAjBDcu4_5alloc3vec3VecNtNtBa_7literal7LiteralEE0Bc_
FN:228,_RNCINvXs1_NtNtCsfZPcC2TrjjJ_17cedar_policy_core3ast5valueNtB8_9ValueKindNtB8_14BoundedDisplay3fmtNtNtCsaNl6UpbT7bw_4core3fmt9FormatterE0Bc_
FN:269,_RNCINvXs1_NtNtCsfZPcC2TrjjJ_17cedar_policy_core3ast5valueNtB8_9ValueKindNtB8_14BoundedDisplay3fmtNtNtCsaNl6UpbT7bw_4core3fmt9FormatterEs_0Bc_
FN:228,_RNCINvXs1_NtNtCsfZPcC2TrjjJ_17cedar_policy_core3ast5valueNtB8_9ValueKindNtB8_14BoundedDisplay3fmtNtNtCsiTraAjBDcu4_5alloc6string6StringE0Bc_
FN:269,_RNCINvXs1_NtNtCsfZPcC2TrjjJ_17cedar_policy_core3ast5valueNtB8_9ValueKindNtB8_14BoundedDisplay3fmtNtNtCsiTraAjBDcu4_5alloc6string6StringEs_0Bc_
FN:501,_RNCINvXs6_NtNtCsfZPcC2TrjjJ_17cedar_policy_core3ast5valueNtB8_3SetINtNtNtNtCsaNl6UpbT7bw_4core4iter6traits7collect12FromIteratorNtB8_5ValueE9from_iterINtNtNtCsiTraAjBDcu4_5alloc3vec9into_iter8IntoIterB22_EE0Bc_
FN:504,_RNCINvXs6_NtNtCsfZPcC2TrjjJ_17cedar_policy_core3ast5valueNtB8_3SetINtNtNtNtCsaNl6UpbT7bw_4core4iter6traits7collect12FromIteratorNtB8_5ValueE9from_iterINtNtNtCsiTraAjBDcu4_5alloc3vec9into_iter8IntoIterB22_EEs_0Bc_
FN:689,_RNvXsj_NtNtCsfZPcC2TrjjJ_17cedar_policy_core3ast5valueNtB5_5ValueINtNtCsaNl6UpbT7bw_4core7convert4FromINtNtCsiTraAjBDcu4_5alloc3vec3VecBQ_EE4fromB9_
FN:689,_RNvXsj_NtNtCsfZPcC2TrjjJ_17cedar_policy_core3ast5valueNtB5_5ValueINtNtCsaNl6UpbT7bw_4core7convert4FromINtNtCsiTraAjBDcu4_5alloc3vec3VecNtNtB7_7literal7LiteralEE4fromB9_
FN:689,_RNvXsj_NtNtCsfZPcC2TrjjJ_17cedar_policy_core3ast5valueNtB5_5ValueINtNtCsaNl6UpbT7bw_4core7convert4FromINtNtCsiTraAjBDcu4_5alloc3vec3VecxEE4fromB9_
FN:708,_RNvXsl_NtNtCsfZPcC2TrjjJ_17cedar_policy_core3ast5valueNtB5_5ValueINtNtCsaNl6UpbT7bw_4core7convert4FromINtNtCsiTraAjBDcu4_5alloc4sync3ArcNtNtB7_6entity9EntityUIDEE4fromB9_
FN:708,_RNvXsl_NtNtCsfZPcC2TrjjJ_17cedar_policy_core3ast5valueNtB5_5ValueINtNtCsaNl6UpbT7bw_4core7convert4FromNtNtB7_6entity9EntityUIDE4fromB9_
FN:708,_RNvXsl_NtNtCsfZPcC2TrjjJ_17cedar_policy_core3ast5valueNtB5_5ValueINtNtCsaNl6UpbT7bw_4core7convert4FromNtNtB7_7literal7LiteralE4fromB9_
FN:708,_RNvXsl_NtNtCsfZPcC2TrjjJ_17cedar_policy_core3ast5valueNtB5_5ValueINtNtCsaNl6UpbT7bw_4core7convert4FromNtNtCsiTraAjBDcu4_5alloc6string6StringE4fromB9_
FN:708,_RNvXsl_NtNtCsfZPcC2TrjjJ_17cedar_policy_core3ast5valueNtB5_5ValueINtNtCsaNl6UpbT7bw_4core7convert4FromReE4fromB9_
FN:708,_RNvXsl_NtNtCsfZPcC2TrjjJ_17cedar_policy_core3ast5valueNtB5_5ValueINtNtCsaNl6UpbT7bw_4core7convert4FrombE4fromB9_
FN:708,_RNvXsl_NtNtCsfZPcC2TrjjJ_17cedar_policy_core3ast5valueNtB5_5ValueINtNtCsaNl6UpbT7bw_4core7convert4FromxE4fromB9_
FN:719,_RNvXsm_NtNtCsfZPcC2TrjjJ_17cedar_policy_core3ast5valueNtB5_9ValueKindINtNtCsaNl6UpbT7bw_4core7convert4FromNtNtB7_6entity9EntityUIDE4fromB9_
FN:719,_RNvXsm_NtNtCsfZPcC2TrjjJ_17cedar_policy_core3ast5valueNtB5_9ValueKindINtNtCsaNl6UpbT7bw_4core7convert4FromNtNtB7_7literal7LiteralE4fromB9_
FN:719,_RNvXsm_NtNtCsfZPcC2TrjjJ_17cedar_policy_core3ast5valueNtB5_9ValueKindINtNtCsaNl6UpbT7bw_4core7convert4FromxE4fromB9_
FNDA:136,_RNvMNtNtCsfZPcC2TrjjJ_17cedar_policy_core3ast5valueNtB2_5Value10record_arc
FNDA:1035,_RNvMNtNtCsfZPcC2TrjjJ_17cedar_policy_core3ast5valueNtB2_5Value10source_loc
FNDA:395,_RNvMNtNtCsfZPcC2TrjjJ_17cedar_policy_core3ast5valueNtB2_5Value10try_as_lit
FNDA:171,_RNvMNtNtCsfZPcC2TrjjJ_17cedar_policy_core3ast5valueNtB2_5Value10value_kind
FNDA:1,_RNvMNtNtCsfZPcC2TrjjJ_17cedar_policy_core3ast5valueNtB2_5Value12empty_record
FNDA:3525,_RNvMNtNtCsfZPcC2TrjjJ_17cedar_policy_core3ast5valueNtB2_5Value21with_maybe_source_loc
FNDA:3,_RNvMNtNtCsfZPcC2TrjjJ_17cedar_policy_core3ast5valueNtB2_5Value9empty_set
FNDA:136,_RNvMs0_NtNtCsfZPcC2TrjjJ_17cedar_policy_core3ast5valueNtB5_9ValueKind10record_arc
FNDA:395,_RNvMs0_NtNtCsfZPcC2TrjjJ_17cedar_policy_core3ast5valueNtB5_9ValueKind10try_as_lit
FNDA:1,_RNvMs0_NtNtCsfZPcC2TrjjJ_17cedar_policy_core3ast5valueNtB5_9ValueKind12empty_record
FNDA:3,_RNvMs0_NtNtCsfZPcC2TrjjJ_17cedar_policy_core3ast5valueNtB5_9ValueKind9empty_set
FNDA:9,_RNvMs5_NtNtCsfZPcC2TrjjJ_17cedar_policy_core3ast5valueNtB5_3Set11is_disjoint
FNDA:10,_RNvMs5_NtNtCsfZPcC2TrjjJ_17cedar_policy_core3ast5valueNtB5_3Set3len
FNDA:45,_RNvMs5_NtNtCsfZPcC2TrjjJ_17cedar_policy_core3ast5valueNtB5_3Set4iter
FNDA:3,_RNvMs5_NtNtCsfZPcC2TrjjJ_17cedar_policy_core3ast5valueNtB5_3Set5empty
FNDA:14,_RNvMs5_NtNtCsfZPcC2TrjjJ_17cedar_policy_core3ast5valueNtB5_3Set8contains
FNDA:7,_RNvMs5_NtNtCsfZPcC2TrjjJ_17cedar_policy_core3ast5valueNtB5_3Set8is_empty
FNDA:13,_RNvMs5_NtNtCsfZPcC2TrjjJ_17cedar_policy_core3ast5valueNtB5_3Set9is_subset
FNDA:815,_RNvXs8_NtNtCsfZPcC2TrjjJ_17cedar_policy_core3ast5valueNtB5_9ValueKindNtNtCsaNl6UpbT7bw_4core3cmp9PartialEq2eq
FNDA:33,_RNvXsa_NtNtCsfZPcC2TrjjJ_17cedar_policy_core3ast5valueNtB5_3SetNtNtCsaNl6UpbT7bw_4core3cmp9PartialEq2eq
FNDA:14,_RNvXsc_NtNtCsfZPcC2TrjjJ_17cedar_policy_core3ast5valueNtB5_3SetNtNtCsaNl6UpbT7bw_4core3cmp3Ord3cmp
FNDA:160,_RNvXse_NtNtCsfZPcC2TrjjJ_17cedar_policy_core3ast5valueNtB5_5ValueNtNtB7_5types15StaticallyTyped7type_of
FNDA:160,_RNvXsf_NtNtCsfZPcC2TrjjJ_17cedar_policy_core3ast5valueNtB5_9ValueKindNtNtB7_5types15StaticallyTyped7type_of
FNDA:9,_RNvXsh_NtNtCsfZPcC2TrjjJ_17cedar_policy_core3ast5valueNtB5_5ValueNtNtCsaNl6UpbT7bw_4core3fmt7Display3fmt
FNDA:9,_RNvXsi_NtNtCsfZPcC2TrjjJ_17cedar_policy_core3ast5valueNtB5_9ValueKindNtNtCsaNl6UpbT7bw_4core3fmt7Display3fmt
FNDA:0,_RINvYpNtNtNtCsfZPcC2TrjjJ_17cedar_policy_core3ast5value14BoundedDisplay11fmt_boundedpEBa_
FNDA:0,_RNCNCNvXs4_NtNtCsfZPcC2TrjjJ_17cedar_policy_core3ast5valueNtB9_9ValueKindINtNtCsaNl6UpbT7bw_4core7convert7TryFromNtNtBb_4expr4ExprE8try_froms_00Bd_
FNDA:0,_RNCNvXs2_NtNtCsfZPcC2TrjjJ_17cedar_policy_core3ast5valueNtB7_8NotValueNtNtCsdupp4Rg7VfC_6miette8protocol10Diagnostic11source_code0Bb_
FNDA:0,_RNCNvXs2_NtNtCsfZPcC2TrjjJ_17cedar_policy_core3ast5valueNtB7_8NotValueNtNtCsdupp4Rg7VfC_6miette8protocol10Diagnostic6labels0Bb_
FNDA:0,_RNCNvXs4_NtNtCsfZPcC2TrjjJ_17cedar_policy_core3ast5valueNtB7_9ValueKindINtNtCsaNl6UpbT7bw_4core7convert7TryFromNtNtB9_4expr4ExprE8try_from0Bb_
FNDA:0,_RNCNvXs4_NtNtCsfZPcC2TrjjJ_17cedar_policy_core3ast5valueNtB7_9ValueKindINtNtCsaNl6UpbT7bw_4core7convert7TryFromNtNtB9_4expr4ExprE8try_froms0_0Bb_
FNDA:0,_RNCNvXs4_NtNtCsfZPcC2TrjjJ_17cedar_policy_core3ast5valueNtB7_9ValueKindINtNtCsaNl6UpbT7bw_4core7convert7TryFromNtNtB9_4expr4ExprE8try_froms_0Bb_
FNDA:0,_RNvMNtNtCsfZPcC2TrjjJ_17cedar_policy_core3ast5valueNtB2_5Value16all_literal_uids
FNDA:0,_RNvMNtNtCsfZPcC2TrjjJ_17cedar_policy_core3ast5valueNtB2_5Value22eq_and_same_source_loc
FNDA:0,_RNvMs0_NtNtCsfZPcC2TrjjJ_17cedar_policy_core3ast5valueNtB5_9ValueKind16all_literal_uids
FNDA:0,_RNvXININtNtCsfZPcC2TrjjJ_17cedar_policy_core3ast5valuesk_0pENtB5_9ValueKindINtNtCsaNl6UpbT7bw_4core7convert4FromINtNtCsiTraAjBDcu4_5alloc3vec3VecpEE4fromB9_
FNDA:0,_RNvXs2_NtNtCsfZPcC2TrjjJ_17cedar_policy_core3ast5valueNtB5_8NotValueNtNtCsdupp4Rg7VfC_6miette8protocol10Diagnostic11source_code
FNDA:0,_RNvXs2_NtNtCsfZPcC2TrjjJ_17cedar_policy_core3ast5valueNtB5_8NotValueNtNtCsdupp4Rg7VfC_6miette8protocol10Diagnostic6labels
FNDA:0,_RNvXs3_NtNtCsfZPcC2TrjjJ_17cedar_policy_core3ast5valueNtB5_5ValueINtNtCsaNl6UpbT7bw_4core7convert7TryFromNtNtB7_4expr4ExprE8try_from
FNDA:0,_RNvXs4_NtNtCsfZPcC2TrjjJ_17cedar_policy_core3ast5valueNtB5_9ValueKindINtNtCsaNl6UpbT7bw_4core7convert7TryFromNtNtB7_4expr4ExprE8try_from
FNDA:0,_RNvXsd_NtNtCsfZPcC2TrjjJ_17cedar_policy_core3ast5valueNtB5_3SetNtNtCsaNl6UpbT7bw_4core3cmp10PartialOrd11partial_cmp
FNDA:0,_RNvYpNtNtNtCsfZPcC2TrjjJ_17cedar_policy_core3ast5value15BoundedToString19to_string_unboundedB9_
FNDA:5,_RNvXsg_NtNtCsfZPcC2TrjjJ_17cedar_policy_core3ast5valueNtNtB7_7request7ContextNtB5_15BoundedToString9to_stringB9_
FNDA:5,_RNvYNtNtNtCsfZPcC2TrjjJ_17cedar_policy_core3ast7request7ContextNtNtB6_5value15BoundedToString17to_string_boundedB8_
FNDA:1,_RNvNtNtNtCsfZPcC2TrjjJ_17cedar_policy_core3ast5value4tests_11set_collect
FNDA:1,_RNvNtNtNtCsfZPcC2TrjjJ_17cedar_policy_core3ast5value4tests_11value_types
FNDA:1,_RNvNtNtNtCsfZPcC2TrjjJ_17cedar_policy_core3ast5value4tests_14pretty_printer
FNDA:1,_RNvNtNtNtCsfZPcC2TrjjJ_17cedar_policy_core3ast5value4tests_31test_set_is_empty_for_empty_set
FNDA:1,_RNvNtNtNtCsfZPcC2TrjjJ_17cedar_policy_core3ast5value4tests_41test_set_is_not_empty_for_set_with_values
FNDA:1,_RNvNtNtNtCsfZPcC2TrjjJ_17cedar_policy_core3ast5value4tests_6values
FNDA:20,_RINvYNtNtNtCsfZPcC2TrjjJ_17cedar_policy_core3est4expr11ExtFuncCallNtNtNtB9_3ast5value14BoundedDisplay13fmt_unboundedNtNtCsaNl6UpbT7bw_4core3fmt9FormatterEB9_
FNDA:557,_RINvYNtNtNtCsfZPcC2TrjjJ_17cedar_policy_core3est4expr9ExprNoExtNtNtNtB9_3ast5value14BoundedDisplay13fmt_unboundedNtNtCsaNl6UpbT7bw_4core3fmt9FormatterEB9_
FNDA:12,_RNvXsg_NtNtCsfZPcC2TrjjJ_17cedar_policy_core3ast5valueNtNtNtB9_3est4expr4ExprNtB5_15BoundedToString9to_stringB9_
FNDA:1,_RINvMNtNtCsfZPcC2TrjjJ_17cedar_policy_core3ast5valueNtB3_5Value11set_of_litsINtNtCsiTraAjBDcu4_5alloc3vec3VecNtNtB5_7literal7LiteralEEB7_
FNDA:16,_RINvMNtNtCsfZPcC2TrjjJ_17cedar_policy_core3ast5valueNtB3_5Value3newNtNtB5_6entity9EntityUIDEB7_
FNDA:6,_RINvMNtNtCsfZPcC2TrjjJ_17cedar_policy_core3ast5valueNtB3_5Value3newxEB7_
FNDA:1,_RINvMNtNtCsfZPcC2TrjjJ_17cedar_policy_core3ast5valueNtB3_5Value3setABO_j1_EB7_
FNDA:11,_RINvMNtNtCsfZPcC2TrjjJ_17cedar_policy_core3ast5valueNtB3_5Value3setINtNtCsiTraAjBDcu4_5alloc3vec3VecBO_EEB7_
FNDA:219,_RINvMNtNtCsfZPcC2TrjjJ_17cedar_policy_core3ast5valueNtB3_5Value3setINtNtNtCsiTraAjBDcu4_5alloc3vec9into_iter8IntoIterBO_EEB7_
FNDA:1,_RINvMNtNtCsfZPcC2TrjjJ_17cedar_policy_core3ast5valueNtB3_5Value3setINtNtNtNtCsaNl6UpbT7bw_4core4iter8adapters3map3MapINtNtNtCsiTraAjBDcu4_5alloc3vec9into_iter8IntoIterBO_ENvYBO_INtNtB1c_7convert4IntoBO_E4intoEEB7_
FNDA:1,_RINvMNtNtCsfZPcC2TrjjJ_17cedar_policy_core3ast5valueNtB3_5Value3setINtNtNtNtCsaNl6UpbT7bw_4core4iter8adapters3map3MapINtNtNtCsiTraAjBDcu4_5alloc3vec9into_iter8IntoIterNtNtB5_7literal7LiteralENvYB2F_INtNtB1c_7convert4IntoBO_E4intoEEB7_
FNDA:2,_RINvMNtNtCsfZPcC2TrjjJ_17cedar_policy_core3ast5valueNtB3_5Value3setINtNtNtNtCsaNl6UpbT7bw_4core4iter8adapters3map3MapINtNtNtCsiTraAjBDcu4_5alloc3vec9into_iter8IntoIterxENvYxINtNtB1c_7convert4IntoBO_E4intoEEB7_
FNDA:286,_RINvMNtNtCsfZPcC2TrjjJ_17cedar_policy_core3ast5valueNtB3_5Value6recordNtCsbIodQZzabP8_8smol_str7SmolStrBO_INtNtNtNtCsaNl6UpbT7bw_4core4iter8adapters3zip3ZipINtNtNtCsiTraAjBDcu4_5alloc3vec9into_iter8IntoIterB16_EIB2v_BO_EEEB7_
FNDA:1,_RINvMNtNtCsfZPcC2TrjjJ_17cedar_policy_core3ast5valueNtB3_5Value6recordNtCsbIodQZzabP8_8smol_str7SmolStrBO_INtNtNtNtCsiTraAjBDcu4_5alloc11collections5btree3map8BTreeMapB16_BO_EEB7_
FNDA:1,_RINvMNtNtCsfZPcC2TrjjJ_17cedar_policy_core3ast5valueNtB3_5Value6recordReB16_INtNtCsiTraAjBDcu4_5alloc3vec3VecTB16_B16_EEEB7_
FNDA:2,_RINvMNtNtCsfZPcC2TrjjJ_17cedar_policy_core3ast5valueNtB3_5Value6recordReBO_INtNtCsiTraAjBDcu4_5alloc3vec3VecTB16_BO_EEEB7_
FNDA:1,_RINvMs0_NtNtCsfZPcC2TrjjJ_17cedar_policy_core3ast5valueNtB6_9ValueKind11set_of_litsINtNtCsiTraAjBDcu4_5alloc3vec3VecNtNtB8_7literal7LiteralEEBa_
FNDA:1,_RINvMs0_NtNtCsfZPcC2TrjjJ_17cedar_policy_core3ast5valueNtB6_9ValueKind3setANtB6_5Valuej1_EBa_
FNDA:11,_RINvMs0_NtNtCsfZPcC2TrjjJ_17cedar_policy_core3ast5valueNtB6_9ValueKind3setINtNtCsiTraAjBDcu4_5alloc3vec3VecNtB6_5ValueEEBa_
FNDA:219,_RINvMs0_NtNtCsfZPcC2TrjjJ_17cedar_policy_core3ast5valueNtB6_9ValueKind3setINtNtNtCsiTraAjBDcu4_5alloc3vec9into_iter8IntoIterNtB6_5ValueEEBa_
FNDA:1,_RINvMs0_NtNtCsfZPcC2TrjjJ_17cedar_policy_core3ast5valueNtB6_9ValueKind3setINtNtNtNtCsaNl6UpbT7bw_4core4iter8adapters3map3MapINtNtNtCsiTraAjBDcu4_5alloc3vec9into_iter8IntoIterNtB6_5ValueENvYB2M_INtNtB1j_7convert4IntoB2M_E4intoEEBa_
FNDA:1,_RINvMs0_NtNtCsfZPcC2TrjjJ_17cedar_policy_core3ast5valueNtB6_9ValueKind3setINtNtNtNtCsaNl6UpbT7bw_4core4iter8adapters3map3MapINtNtNtCsiTraAjBDcu4_5alloc3vec9into_iter8IntoIterNtNtB8_7literal7LiteralENvYB2M_INtNtB1j_7convert4IntoNtB6_5ValueE4intoEEBa_
FNDA:2,_RINvMs0_NtNtCsfZPcC2TrjjJ_17cedar_policy_core3ast5valueNtB6_9ValueKind3setINtNtNtNtCsaNl6UpbT7bw_4core4iter8adapters3map3MapINtNtNtCsiTraAjBDcu4_5alloc3vec9into_iter8IntoIterxENvYxINtNtB1j_7convert4IntoNtB6_5ValueE4intoEEBa_
FNDA:286,_RINvMs0_NtNtCsfZPcC2TrjjJ_17cedar_policy_core3ast5valueNtB6_9ValueKind6recordNtCsbIodQZzabP8_8smol_str7SmolStrNtB6_5ValueINtNtNtNtCsaNl6UpbT7bw_4core4iter8adapters3zip3ZipINtNtNtCsiTraAjBDcu4_5alloc3vec9into_iter8IntoIterB1d_EIB2K_B1K_EEEBa_
FNDA:1,_RINvMs0_NtNtCsfZPcC2TrjjJ_17cedar_policy_core3ast5valueNtB6_9ValueKind6recordNtCsbIodQZzabP8_8smol_str7SmolStrNtB6_5ValueINtNtNtNtCsiTraAjBDcu4_5alloc11collections5btree3map8BTreeMapB1d_B1K_EEBa_
FNDA:1,_RINvMs0_NtNtCsfZPcC2TrjjJ_17cedar_policy_core3ast5valueNtB6_9ValueKind6recordReB1d_INtNtCsiTraAjBDcu4_5alloc3vec3VecTB1d_B1d_EEEBa_
FNDA:2,_RINvMs0_NtNtCsfZPcC2TrjjJ_17cedar_policy_core3ast5valueNtB6_9ValueKind6recordReNtB6_5ValueINtNtCsiTraAjBDcu4_5alloc3vec3VecTB1d_B1f_EEEBa_
FNDA:1,_RINvMs5_NtNtCsfZPcC2TrjjJ_17cedar_policy_core3ast5valueNtB6_3Set3newANtB6_5Valuej1_EBa_
FNDA:11,_RINvMs5_NtNtCsfZPcC2TrjjJ_17cedar_policy_core3ast5valueNtB6_3Set3newINtNtCsiTraAjBDcu4_5alloc3vec3VecNtB6_5ValueEEBa_
FNDA:219,_RINvMs5_NtNtCsfZPcC2TrjjJ_17cedar_policy_core3ast5valueNtB6_3Set3newINtNtNtCsiTraAjBDcu4_5alloc3vec9into_iter8IntoIterNtB6_5ValueEEBa_
FNDA:1,_RINvMs5_NtNtCsfZPcC2TrjjJ_17cedar_policy_core3ast5valueNtB6_3Set3newINtNtNtNtCsaNl6UpbT7bw_4core4iter8adapters3map3MapINtNtNtCsiTraAjBDcu4_5alloc3vec9into_iter8IntoIterNtB6_5ValueENvYB2G_INtNtB1d_7convert4IntoB2G_E4intoEEBa_
FNDA:1,_RINvMs5_NtNtCsfZPcC2TrjjJ_17cedar_policy_core3ast5valueNtB6_3Set3newINtNtNtNtCsaNl6UpbT7bw_4core4iter8adapters3map3MapINtNtNtCsiTraAjBDcu4_5alloc3vec9into_iter8IntoIterNtNtB8_7literal7LiteralENvYB2G_INtNtB1d_7convert4IntoNtB6_5ValueE4intoEEBa_
FNDA:2,_RINvMs5_NtNtCsfZPcC2TrjjJ_17cedar_policy_core3ast5valueNtB6_3Set3newINtNtNtNtCsaNl6UpbT7bw_4core4iter8adapters3map3MapINtNtNtCsiTraAjBDcu4_5alloc3vec9into_iter8IntoIterxENvYxINtNtB1d_7convert4IntoNtB6_5ValueE4intoEEBa_
FNDA:1,_RINvMs5_NtNtCsfZPcC2TrjjJ_17cedar_policy_core3ast5valueNtB6_3Set9from_litsINtNtCsiTraAjBDcu4_5alloc3vec3VecNtNtB8_7literal7LiteralEEBa_
FNDA:9,_RINvXs1_NtNtCsfZPcC2TrjjJ_17cedar_policy_core3ast5valueNtB6_9ValueKindNtB6_14BoundedDisplay3fmtNtNtCsaNl6UpbT7bw_4core3fmt9FormatterEBa_
FNDA:14,_RINvXs1_NtNtCsfZPcC2TrjjJ_17cedar_policy_core3ast5valueNtB6_9ValueKindNtB6_14BoundedDisplay3fmtNtNtCsiTraAjBDcu4_5alloc6string6StringEBa_
FNDA:2,_RINvXs6_NtNtCsfZPcC2TrjjJ_17cedar_policy_core3ast5valueNtB6_3SetINtNtNtNtCsaNl6UpbT7bw_4core4iter6traits7collect12FromIteratorNtB6_5ValueE9from_iterINtNtNtCsiTraAjBDcu4_5alloc3vec9into_iter8IntoIterB20_EEBa_
FNDA:1,_RINvXs7_NtNtCsfZPcC2TrjjJ_17cedar_policy_core3ast5valueNtB6_3SetINtNtNtNtCsaNl6UpbT7bw_4core4iter6traits7collect12FromIteratorNtNtB8_7literal7LiteralE9from_iterINtNtNtB17_8adapters3map3MapINtNtNtNtCsiTraAjBDcu4_5alloc11collections5btree3set8IntoIterNtB6_5ValueENCINvXs6_B6_BR_IB11_B3Z_E9from_iterINtNtNtB39_3vec9into_iter8IntoIterB3Z_EEs_0EEBa_
FNDA:0,_RINvXs_NtNtCsfZPcC2TrjjJ_17cedar_policy_core3ast5valueNtB5_5ValueNtB5_14BoundedDisplay3fmtNtNtCsaNl6UpbT7bw_4core3fmt9FormatterEB9_
FNDA:14,_RINvXs_NtNtCsfZPcC2TrjjJ_17cedar_policy_core3ast5valueNtB5_5ValueNtB5_14BoundedDisplay3fmtNtNtCsiTraAjBDcu4_5alloc6string6StringEB9_
FNDA:9,_RINvYNtNtNtCsfZPcC2TrjjJ_17cedar_policy_core3ast5value9ValueKindNtB5_14BoundedDisplay13fmt_unboundedNtNtCsaNl6UpbT7bw_4core3fmt9FormatterEB9_
FNDA:535,_RNCINvMs0_NtNtCsfZPcC2TrjjJ_17cedar_policy_core3ast5valueNtB8_9ValueKind6recordNtCsbIodQZzabP8_8smol_str7SmolStrNtB8_5ValueINtNtNtNtCsaNl6UpbT7bw_4core4iter8adapters3zip3ZipINtNtNtCsiTraAjBDcu4_5alloc3vec9into_iter8IntoIterB1f_EIB2M_B1M_EEE0Bc_
FNDA:2,_RNCINvMs0_NtNtCsfZPcC2TrjjJ_17cedar_policy_core3ast5valueNtB8_9ValueKind6recordNtCsbIodQZzabP8_8smol_str7SmolStrNtB8_5ValueINtNtNtNtCsiTraAjBDcu4_5alloc11collections5btree3map8BTreeMapB1f_B1M_EE0Bc_
FNDA:2,_RNCINvMs0_NtNtCsfZPcC2TrjjJ_17cedar_policy_core3ast5valueNtB8_9ValueKind6recordReB1f_INtNtCsiTraAjBDcu4_5alloc3vec3VecTB1f_B1f_EEE0Bc_
FNDA:2,_RNCINvMs0_NtNtCsfZPcC2TrjjJ_17cedar_policy_core3ast5valueNtB8_9ValueKind6recordReNtB8_5ValueINtNtCsiTraAjBDcu4_5alloc3vec3VecTB1f_B1h_EEE0Bc_
FNDA:1,_RNCINvMs5_NtNtCsfZPcC2TrjjJ_17cedar_policy_core3ast5valueNtB8_3Set3newANtB8_5Valuej1_E0Bc_
FNDA:24,_RNCINvMs5_NtNtCsfZPcC2TrjjJ_17cedar_policy_core3ast5valueNtB8_3Set3newINtNtCsiTraAjBDcu4_5alloc3vec3VecNtB8_5ValueEE0Bc_
FNDA:359,_RNCINvMs5_NtNtCsfZPcC2TrjjJ_17cedar_policy_core3ast5valueNtB8_3Set3newINtNtNtCsiTraAjBDcu4_5alloc3vec9into_iter8IntoIterNtB8_5ValueEE0Bc_
FNDA:3,_RNCINvMs5_NtNtCsfZPcC2TrjjJ_17cedar_policy_core3ast5valueNtB8_3Set3newINtNtNtNtCsaNl6UpbT7bw_4core4iter8adapters3map3MapINtNtNtCsiTraAjBDcu4_5alloc3vec9into_iter8IntoIterNtB8_5ValueENvYB2I_INtNtB1f_7convert4IntoB2I_E4intoEE0Bc_
FNDA:2,_RNCINvMs5_NtNtCsfZPcC2TrjjJ_17cedar_policy_core3ast5valueNtB8_3Set3newINtNtNtNtCsaNl6UpbT7bw_4core4iter8adapters3map3MapINtNtNtCsiTraAjBDcu4_5alloc3vec9into_iter8IntoIterNtNtBa_7literal7LiteralENvYB2I_INtNtB1f_7convert4IntoNtB8_5ValueE4intoEE0Bc_
FNDA:6,_RNCINvMs5_NtNtCsfZPcC2TrjjJ_17cedar_policy_core3ast5valueNtB8_3Set3newINtNtNtNtCsaNl6UpbT7bw_4core4iter8adapters3map3MapINtNtNtCsiTraAjBDcu4_5alloc3vec9into_iter8IntoIterxENvYxINtNtB1f_7convert4IntoNtB8_5ValueE4intoEE0Bc_
FNDA:2,_RNCINvMs5_NtNtCsfZPcC2TrjjJ_17cedar_policy_core3ast5valueNtB8_3Set9from_litsINtNtCsiTraAjBDcu4_5alloc3vec3VecNtNtBa_7literal7LiteralEE0Bc_
FNDA:0,_RNCINvXs1_NtNtCsfZPcC2TrjjJ_17cedar_policy_core3ast5valueNtB8_9ValueKindNtB8_14BoundedDisplay3fmtNtNtCsaNl6UpbT7bw_4core3fmt9FormatterE0Bc_
FNDA:0,_RNCINvXs1_NtNtCsfZPcC2TrjjJ_17cedar_policy_core3ast5valueNtB8_9ValueKindNtB8_14BoundedDisplay3fmtNtNtCsaNl6UpbT7bw_4core3fmt9FormatterEs_0Bc_
FNDA:3,_RNCINvXs1_NtNtCsfZPcC2TrjjJ_17cedar_policy_core3ast5valueNtB8_9ValueKindNtB8_14BoundedDisplay3fmtNtNtCsiTraAjBDcu4_5alloc6string6StringE0Bc_
FNDA:5,_RNCINvXs1_NtNtCsfZPcC2TrjjJ_17cedar_policy_core3ast5valueNtB8_9ValueKindNtB8_14BoundedDisplay3fmtNtNtCsiTraAjBDcu4_5alloc6string6StringEs_0Bc_
FNDA:2,_RNCINvXs6_NtNtCsfZPcC2TrjjJ_17cedar_policy_core3ast5valueNtB8_3SetINtNtNtNtCsaNl6UpbT7bw_4core4iter6traits7collect12FromIteratorNtB8_5ValueE9from_iterINtNtNtCsiTraAjBDcu4_5alloc3vec9into_iter8IntoIterB22_EE0Bc_
FNDA:1,_RNCINvXs6_NtNtCsfZPcC2TrjjJ_17cedar_policy_core3ast5valueNtB8_3SetINtNtNtNtCsaNl6UpbT7bw_4core4iter6traits7collect12FromIteratorNtB8_5ValueE9from_iterINtNtNtCsiTraAjBDcu4_5alloc3vec9into_iter8IntoIterB22_EEs_0Bc_
FNDA:1,_RNvXsj_NtNtCsfZPcC2TrjjJ_17cedar_policy_core3ast5valueNtB5_5ValueINtNtCsaNl6UpbT7bw_4core7convert4FromINtNtCsiTraAjBDcu4_5alloc3vec3VecBQ_EE4fromB9_
FNDA:1,_RNvXsj_NtNtCsfZPcC2TrjjJ_17cedar_policy_core3ast5valueNtB5_5ValueINtNtCsaNl6UpbT7bw_4core7convert4FromINtNtCsiTraAjBDcu4_5alloc3vec3VecNtNtB7_7literal7LiteralEE4fromB9_
FNDA:2,_RNvXsj_NtNtCsfZPcC2TrjjJ_17cedar_policy_core3ast5valueNtB5_5ValueINtNtCsaNl6UpbT7bw_4core7convert4FromINtNtCsiTraAjBDcu4_5alloc3vec3VecxEE4fromB9_
FNDA:1,_RNvXsl_NtNtCsfZPcC2TrjjJ_17cedar_policy_core3ast5valueNtB5_5ValueINtNtCsaNl6UpbT7bw_4core7convert4FromINtNtCsiTraAjBDcu4_5alloc4sync3ArcNtNtB7_6entity9EntityUIDEE4fromB9_
FNDA:15,_RNvXsl_NtNtCsfZPcC2TrjjJ_17cedar_policy_core3ast5valueNtB5_5ValueINtNtCsaNl6UpbT7bw_4core7convert4FromNtNtB7_6entity9EntityUIDE4fromB9_
FNDA:1995,_RNvXsl_NtNtCsfZPcC2TrjjJ_17cedar_policy_core3ast5valueNtB5_5ValueINtNtCsaNl6UpbT7bw_4core7convert4FromNtNtB7_7literal7LiteralE4fromB9_
FNDA:13,_RNvXsl_NtNtCsfZPcC2TrjjJ_17cedar_policy_core3ast5valueNtB5_5ValueINtNtCsaNl6UpbT7bw_4core7convert4FromNtNtCsiTraAjBDcu4_5alloc6string6StringE4fromB9_
FNDA:88,_RNvXsl_NtNtCsfZPcC2TrjjJ_17cedar_policy_core3ast5valueNtB5_5ValueINtNtCsaNl6UpbT7bw_4core7convert4FromReE4fromB9_
FNDA:739,_RNvXsl_NtNtCsfZPcC2TrjjJ_17cedar_policy_core3ast5valueNtB5_5ValueINtNtCsaNl6UpbT7bw_4core7convert4FrombE4fromB9_
FNDA:150,_RNvXsl_NtNtCsfZPcC2TrjjJ_17cedar_policy_core3ast5valueNtB5_5ValueINtNtCsaNl6UpbT7bw_4core7convert4FromxE4fromB9_
FNDA:16,_RNvXsm_NtNtCsfZPcC2TrjjJ_17cedar_policy_core3ast5valueNtB5_9ValueKindINtNtCsaNl6UpbT7bw_4core7convert4FromNtNtB7_6entity9EntityUIDE4fromB9_
FNDA:3001,_RNvXsm_NtNtCsfZPcC2TrjjJ_17cedar_policy_core3ast5valueNtB5_9ValueKindINtNtCsaNl6UpbT7bw_4core7convert4FromNtNtB7_7literal7LiteralE4fromB9_
FNDA:7,_RNvXsm_NtNtCsfZPcC2TrjjJ_17cedar_policy_core3ast5valueNtB5_9ValueKindINtNtCsaNl6UpbT7bw_4core7convert4FromxE4fromB9_
FNF:74
FNH:57
DA:58,3
DA:59,3
DA:60,3
DA:61,3
DA:62,3
DA:63,3
DA:66,1
DA:67,1
DA:68,1
DA:69,1
DA:70,1
DA:71,1
DA:75,22
DA:76,22
DA:77,22
DA:78,22
DA:79,22
DA:80,22
DA:83,235
DA:84,235
DA:85,235
DA:86,235
DA:87,235
DA:88,235
DA:94,1
DA:95,1
DA:96,1
DA:97,1
DA:98,1
DA:99,1
DA:102,290
DA:103,290
DA:104,290
DA:105,290
DA:106,290
DA:107,290
DA:108,290
DA:109,290
DA:110,290
DA:113,136
DA:114,136
DA:115,136
DA:116,136
DA:117,136
DA:118,136
DA:121,3525
DA:122,3525
DA:123,3525
DA:126,171
DA:127,171
DA:128,171
DA:131,1035
DA:132,1035
DA:133,1035
DA:136,395
DA:137,395
DA:138,395
DA:143,0
DA:144,0
DA:145,0
DA:148,0
DA:149,0
DA:150,0
DA:154,14
DA:155,14
DA:156,14
DA:161,3
DA:162,3
DA:163,3
DA:166,1
DA:167,1
DA:168,1
DA:171,235
DA:172,235
DA:173,235
DA:176,1
DA:177,1
DA:178,1
DA:181,290
DA:182,290
DA:183,290
DA:184,290
DA:185,290
DA:186,290
DA:187,541
DA:188,290
DA:190,290
DA:193,136
DA:194,136
DA:195,136
DA:198,395
DA:199,395
DA:200,383
DA:201,12
DA:203,395
DA:206,0
DA:207,0
DA:208,0
DA:209,0
DA:210,0
DA:211,0
DA:212,0
DA:214,0
DA:216,0
DA:220,23
DA:221,23
DA:222,9
DA:224,3
DA:225,3
DA:227,3
DA:228,3
DA:229,3
DA:233,3
DA:234,3
DA:235,3
DA:236,0
DA:237,0
DA:239,4
DA:240,4
DA:241,4
DA:242,1
DA:243,3
DA:248,0
DA:249,0
DA:250,0
DA:251,0
DA:252,0
DA:254,0
DA:255,0
DA:256,0
DA:257,0
DA:258,0
DA:261,3
DA:262,0
DA:263,3
DA:264,3
DA:265,3
DA:267,5
DA:268,5
DA:269,5
DA:272,5
DA:273,5
DA:274,5
DA:275,0
DA:276,0
DA:278,9
DA:279,9
DA:280,8
DA:282,8
DA:286,1
DA:289,9
DA:290,9
DA:291,6
DA:292,3
DA:294,5
DA:295,1
DA:296,4
DA:297,5
DA:298,5
DA:300,6
DA:302,23
DA:317,0
DA:318,0
DA:319,0
DA:320,0
DA:321,0
DA:323,0
DA:325,0
DA:326,0
DA:327,0
DA:329,0
DA:335,0
DA:336,0
DA:338,0
DA:339,0
DA:341,0
DA:347,0
DA:348,0
DA:349,0
DA:350,0
DA:351,0
DA:352,0
DA:353,0
DA:354,0
DA:355,0
DA:356,0
DA:357,0
DA:358,0
DA:359,0
DA:360,0
DA:361,0
DA:362,0
DA:363,0
DA:364,0
DA:365,0
DA:366,0
DA:367,0
DA:368,0
DA:369,0
DA:370,0
DA:371,0
DA:372,0
DA:373,0
DA:377,0
DA:400,3
DA:401,3
DA:402,3
DA:403,3
DA:404,3
DA:405,3
DA:408,235
DA:409,235
DA:410,235
DA:411,235
DA:412,395
DA:413,235
DA:414,235
DA:415,235
DA:416,235
DA:417,235
DA:418,235
DA:419,235
DA:422,1
DA:423,1
DA:424,1
DA:425,1
DA:426,1
DA:427,2
DA:428,2
DA:429,2
DA:430,1
DA:431,1
DA:432,1
DA:433,1
DA:434,1
DA:435,1
DA:438,10
DA:439,10
DA:440,10
DA:443,7
DA:444,7
DA:445,7
DA:448,45
DA:449,45
DA:450,45
DA:453,13
DA:454,13
DA:457,12
DA:461,0
DA:464,1
DA:466,13
DA:469,9
DA:470,9
DA:473,8
DA:476,1
DA:478,9
DA:481,14
DA:482,14
DA:485,12
DA:489,1
DA:492,1
DA:494,14
DA:498,2
DA:499,2
DA:500,2
DA:501,2
DA:503,2
DA:504,1
DA:506,1
DA:508,1
DA:510,0
DA:511,1
DA:516,1
DA:517,1
DA:518,1
DA:519,1
DA:520,1
DA:521,1
DA:522,1
DA:524,2
DA:528,1
DA:531,1
DA:532,1
DA:533,1
DA:534,1
DA:535,1
DA:536,1
DA:542,815
DA:543,815
DA:544,714
DA:545,33
DA:546,14
DA:547,43
DA:548,11
DA:550,815
DA:557,33
DA:558,33
DA:559,32
DA:560,0
DA:561,0
DA:562,1
DA:564,33
DA:571,14
DA:572,14
DA:573,14
DA:574,14
DA:575,14
DA:579,0
DA:581,0
DA:582,0
DA:586,160
DA:587,160
DA:588,160
DA:592,160
DA:593,160
DA:594,130
DA:595,11
DA:596,11
DA:597,8
DA:599,160
DA:618,0
DA:619,0
DA:620,0
DA:625,586
DA:626,586
DA:627,586
DA:646,5
DA:647,5
DA:648,5
DA:653,0
DA:654,0
DA:655,0
DA:663,17
DA:664,17
DA:666,17
DA:667,17
DA:668,17
DA:672,9
DA:673,9
DA:674,9
DA:678,9
DA:679,9
DA:680,9
DA:689,4
DA:690,4
DA:691,4
DA:697,0
DA:698,0
DA:699,0
DA:708,3001
DA:709,3001
DA:710,3001
DA:711,3001
DA:712,3001
DA:713,3001
DA:719,3024
DA:720,3024
DA:721,3024
DA:729,1
DA:730,1
DA:731,1
DA:737,1
DA:738,1
DA:744,1
DA:745,1
DA:751,1
DA:752,1
DA:758,1
DA:759,1
DA:760,1
DA:761,1
DA:762,1
DA:763,1
DA:765,1
DA:766,1
DA:767,1
DA:768,1
DA:769,1
DA:770,1
DA:772,1
DA:773,1
DA:774,1
DA:775,1
DA:776,1
DA:777,1
DA:779,1
DA:780,1
DA:781,1
DA:782,1
DA:783,1
DA:784,1
DA:786,1
DA:787,1
DA:788,1
DA:790,1
DA:791,1
DA:792,1
DA:794,1
DA:795,1
DA:796,1
DA:799,1
DA:800,1
DA:801,1
DA:802,1
DA:803,1
DA:804,1
DA:805,1
DA:806,1
DA:807,1
DA:810,1
DA:811,1
DA:812,1
DA:813,1
DA:814,1
DA:815,1
DA:816,1
DA:817,1
DA:818,1
DA:821,1
DA:822,1
DA:823,1
DA:824,1
DA:825,1
DA:826,1
DA:828,1
DA:831,1
DA:832,1
DA:833,1
DA:834,1
DA:835,1
DA:836,1
DA:837,1
DA:838,1
DA:839,1
DA:840,1
DA:843,1
DA:844,1
DA:845,1
DA:846,1
DA:849,1
DA:852,1
DA:853,1
DA:854,1
DA:855,1
DA:856,1
DA:857,1
DA:858,1
DA:861,1
DA:862,1
DA:863,1
DA:864,1
DA:865,1
DA:866,1
DA:867,1
DA:870,1
DA:871,1
DA:872,1
DA:873,1
DA:874,1
DA:877,1
DA:878,1
DA:879,1
DA:880,1
DA:881,1
DA:882,1
DA:883,1
DA:884,1
DA:885,1
DA:886,1
DA:887,1
DA:888,1
DA:889,1
DA:890,1
BRF:0
BRH:0
LF:485
LH:389
end_of_record
SF:/Users/victornl/repos/cedar-spec/cedar/cedar-policy-core/src/authorizer.rs
FN:172,_RNvXs0_NtCsfZPcC2TrjjJ_17cedar_policy_core10authorizerNtB5_10AuthorizerNtNtCsaNl6UpbT7bw_4core3fmt5Debug3fmt
FN:166,_RNvXs_NtCsfZPcC2TrjjJ_17cedar_policy_core10authorizerNtB4_10AuthorizerNtNtCsaNl6UpbT7bw_4core7default7Default7default
FN:76,_RNvMNtCsfZPcC2TrjjJ_17cedar_policy_core10authorizerNtB2_10Authorizer13is_authorized
FN:83,_RNvMNtCsfZPcC2TrjjJ_17cedar_policy_core10authorizerNtB2_10Authorizer18is_authorized_core
FN:95,_RNvMNtCsfZPcC2TrjjJ_17cedar_policy_core10authorizerNtB2_10Authorizer27is_authorized_core_internal
FN:65,_RNvMNtCsfZPcC2TrjjJ_17cedar_policy_core10authorizerNtB2_10Authorizer3new
FN:684,_RNvMs1_NtCsfZPcC2TrjjJ_17cedar_policy_core10authorizerNtB5_8Response3new
FN:267,_RNvNtNtCsfZPcC2TrjjJ_17cedar_policy_core10authorizer4test11true_policy
FN:213,_RNvNtNtCsfZPcC2TrjjJ_17cedar_policy_core10authorizer4tests_19skip_on_error_tests
FN:390,_RNvNtNtCsfZPcC2TrjjJ_17cedar_policy_core10authorizer4tests_27satisfied_permit_no_forbids
FN:368,_RNvNtNtCsfZPcC2TrjjJ_17cedar_policy_core10authorizer4tests_28authorizer_sanity_check_deny
FN:299,_RNvNtNtCsfZPcC2TrjjJ_17cedar_policy_core10authorizer4tests_29authorizer_sanity_check_allow
FN:194,_RNvNtNtCsfZPcC2TrjjJ_17cedar_policy_core10authorizer4tests_29authorizer_sanity_check_empty
FNDA:0,_RNvXs0_NtCsfZPcC2TrjjJ_17cedar_policy_core10authorizerNtB5_10AuthorizerNtNtCsaNl6UpbT7bw_4core3fmt5Debug3fmt
FNDA:0,_RNvXs_NtCsfZPcC2TrjjJ_17cedar_policy_core10authorizerNtB4_10AuthorizerNtNtCsaNl6UpbT7bw_4core7default7Default7default
FNDA:7,_RNvMNtCsfZPcC2TrjjJ_17cedar_policy_core10authorizerNtB2_10Authorizer13is_authorized
FNDA:8,_RNvMNtCsfZPcC2TrjjJ_17cedar_policy_core10authorizerNtB2_10Authorizer18is_authorized_core
FNDA:8,_RNvMNtCsfZPcC2TrjjJ_17cedar_policy_core10authorizerNtB2_10Authorizer27is_authorized_core_internal
FNDA:5,_RNvMNtCsfZPcC2TrjjJ_17cedar_policy_core10authorizerNtB2_10Authorizer3new
FNDA:7,_RNvMs1_NtCsfZPcC2TrjjJ_17cedar_policy_core10authorizerNtB5_8Response3new
FNDA:3,_RNvNtNtCsfZPcC2TrjjJ_17cedar_policy_core10authorizer4test11true_policy
FNDA:1,_RNvNtNtCsfZPcC2TrjjJ_17cedar_policy_core10authorizer4tests_19skip_on_error_tests
FNDA:1,_RNvNtNtCsfZPcC2TrjjJ_17cedar_policy_core10authorizer4tests_27satisfied_permit_no_forbids
FNDA:1,_RNvNtNtCsfZPcC2TrjjJ_17cedar_policy_core10authorizer4tests_28authorizer_sanity_check_deny
FNDA:1,_RNvNtNtCsfZPcC2TrjjJ_17cedar_policy_core10authorizer4tests_29authorizer_sanity_check_allow
FNDA:1,_RNvNtNtCsfZPcC2TrjjJ_17cedar_policy_core10authorizer4tests_29authorizer_sanity_check_empty
FNF:13
FNH:11
DA:65,5
DA:66,5
DA:67,5
DA:68,5
DA:69,5
DA:70,5
DA:76,7
DA:77,7
DA:78,7
DA:83,8
DA:84,8
DA:85,8
DA:86,8
DA:87,8
DA:88,8
DA:89,8
DA:90,8
DA:91,8
DA:95,8
DA:96,8
DA:97,8
DA:98,8
DA:99,8
DA:100,8
DA:101,8
DA:102,8
DA:103,8
DA:104,8
DA:105,8
DA:106,8
DA:107,8
DA:109,15
DA:110,15
DA:111,15
DA:112,10
DA:113,7
DA:114,2
DA:116,0
DA:119,1
DA:122,0
DA:124,0
DA:127,0
DA:130,5
DA:131,5
DA:132,5
DA:133,5
DA:134,5
DA:135,5
DA:136,5
DA:138,5
DA:139,0
DA:140,0
DA:142,3
DA:145,2
DA:152,8
DA:153,8
DA:154,8
DA:155,8
DA:156,8
DA:157,8
DA:158,8
DA:159,8
DA:160,8
DA:162,8
DA:166,0
DA:167,0
DA:168,0
DA:172,0
DA:173,0
DA:174,0
DA:176,0
DA:177,0
DA:178,0
DA:179,0
DA:182,0
DA:194,1
DA:195,1
DA:196,1
DA:197,1
DA:198,1
DA:199,1
DA:200,1
DA:201,1
DA:202,1
DA:204,1
DA:205,1
DA:206,1
DA:207,1
DA:208,1
DA:209,1
DA:213,1
DA:214,1
DA:215,1
DA:216,1
DA:217,1
DA:218,1
DA:219,1
DA:220,1
DA:221,1
DA:223,1
DA:224,1
DA:225,1
DA:227,1
DA:228,1
DA:229,1
DA:231,1
DA:232,1
DA:233,1
DA:235,1
DA:236,1
DA:237,1
DA:238,1
DA:239,1
DA:240,1
DA:242,1
DA:243,1
DA:245,1
DA:246,1
DA:248,1
DA:249,1
DA:251,1
DA:252,1
DA:254,1
DA:255,1
DA:257,1
DA:258,1
DA:260,1
DA:261,1
DA:263,1
DA:264,1
DA:265,1
DA:267,3
DA:268,3
DA:269,3
DA:270,3
DA:271,3
DA:272,3
DA:273,3
DA:274,3
DA:275,3
DA:276,3
DA:277,3
DA:279,3
DA:280,3
DA:299,1
DA:300,1
DA:301,1
DA:302,1
DA:303,1
DA:304,1
DA:305,1
DA:306,1
DA:307,1
DA:309,1
DA:310,1
DA:311,1
DA:312,1
DA:313,1
DA:314,1
DA:315,1
DA:316,1
DA:368,1
DA:369,1
DA:370,1
DA:371,1
DA:372,1
DA:373,1
DA:374,1
DA:375,1
DA:376,1
DA:378,1
DA:379,1
DA:380,1
DA:381,1
DA:382,1
DA:383,1
DA:384,1
DA:385,1
DA:386,1
DA:387,1
DA:390,1
DA:391,1
DA:392,1
DA:393,1
DA:394,1
DA:395,1
DA:396,1
DA:397,1
DA:399,1
DA:400,1
DA:401,1
DA:402,1
DA:404,1
DA:405,1
DA:406,1
DA:407,1
DA:408,1
DA:409,1
DA:410,1
DA:411,1
DA:413,1
DA:414,1
DA:415,1
DA:416,1
DA:418,1
DA:419,1
DA:420,1
DA:684,7
DA:685,7
DA:686,7
DA:687,7
DA:688,7
DA:689,7
DA:690,7
DA:691,7
DA:692,7
DA:693,7
BRF:0
BRH:0
LF:217
LH:200
end_of_record
SF:/Users/victornl/repos/cedar-spec/cedar/cedar-policy-core/src/authorizer/partial_response.rs
FN:88,_RINvMNtNtCsfZPcC2TrjjJ_17cedar_policy_core10authorizer16partial_responseNtB3_15PartialResponse3newINtNtCsiTraAjBDcu4_5alloc3vec3VecTNtNtNtB7_3ast6policy8PolicyIDINtNtB1D_4sync3ArcNtNtB2a_10annotation11AnnotationsEEEIB1z_TB26_TNtB3_10ErrorStateB2z_EEEIB1z_TB26_TIB2A_NtNtB2a_4expr4ExprEB2z_EEEB1y_B3r_B40_IB1z_NtNtB5_3err18AuthorizationErrorEEB7_
FN:88,_RINvMNtNtCsfZPcC2TrjjJ_17cedar_policy_core10authorizer16partial_responseNtB3_15PartialResponse3newINtNtNtNtCsaNl6UpbT7bw_4core4iter7sources4once4OnceTNtNtNtB7_3ast6policy8PolicyIDINtNtCsiTraAjBDcu4_5alloc4sync3ArcNtNtB2s_10annotation11AnnotationsEEEATB2o_TNtB3_10ErrorStateB2R_EEj2_IB1z_TB2o_TIB2S_NtNtB2s_4expr4ExprEB2R_EEEB1y_B3Z_B4w_INtNtB1D_5empty5EmptyNtNtB5_3err18AuthorizationErrorEEB7_
FN:323,_RNCNCNvMNtNtCsfZPcC2TrjjJ_17cedar_policy_core10authorizer16partial_responseNtB6_15PartialResponse10get_forbids0_00Ba_
FN:319,_RNCNCNvMNtNtCsfZPcC2TrjjJ_17cedar_policy_core10authorizer16partial_responseNtB6_15PartialResponse10get_forbids_00Ba_
FN:310,_RNCNCNvMNtNtCsfZPcC2TrjjJ_17cedar_policy_core10authorizer16partial_responseNtB6_15PartialResponse10get_permits0_00Ba_
FN:306,_RNCNCNvMNtNtCsfZPcC2TrjjJ_17cedar_policy_core10authorizer16partial_responseNtB6_15PartialResponse10get_permits_00Ba_
FN:318,_RNCNvMNtNtCsfZPcC2TrjjJ_17cedar_policy_core10authorizer16partial_responseNtB4_15PartialResponse10get_forbid0B8_
FN:320,_RNCNvMNtNtCsfZPcC2TrjjJ_17cedar_policy_core10authorizer16partial_responseNtB4_15PartialResponse10get_forbids0_0B8_
FN:325,_RNCNvMNtNtCsfZPcC2TrjjJ_17cedar_policy_core10authorizer16partial_responseNtB4_15PartialResponse10get_forbids1_0B8_
FN:319,_RNCNvMNtNtCsfZPcC2TrjjJ_17cedar_policy_core10authorizer16partial_responseNtB4_15PartialResponse10get_forbids_0B8_
FN:305,_RNCNvMNtNtCsfZPcC2TrjjJ_17cedar_policy_core10authorizer16partial_responseNtB4_15PartialResponse10get_permit0B8_
FN:307,_RNCNvMNtNtCsfZPcC2TrjjJ_17cedar_policy_core10authorizer16partial_responseNtB4_15PartialResponse10get_permits0_0B8_
FN:312,_RNCNvMNtNtCsfZPcC2TrjjJ_17cedar_policy_core10authorizer16partial_responseNtB4_15PartialResponse10get_permits1_0B8_
FN:306,_RNCNvMNtNtCsfZPcC2TrjjJ_17cedar_policy_core10authorizer16partial_responseNtB4_15PartialResponse10get_permits_0B8_
FN:201,_RNCNvMNtNtCsfZPcC2TrjjJ_17cedar_policy_core10authorizer16partial_responseNtB4_15PartialResponse16residual_forbids0B8_
FN:193,_RNCNvMNtNtCsfZPcC2TrjjJ_17cedar_policy_core10authorizer16partial_responseNtB4_15PartialResponse16residual_permits0B8_
FN:245,_RNCNvMNtNtCsfZPcC2TrjjJ_17cedar_policy_core10authorizer16partial_responseNtB4_15PartialResponse18nontrivial_forbids0B8_
FN:236,_RNCNvMNtNtCsfZPcC2TrjjJ_17cedar_policy_core10authorizer16partial_responseNtB4_15PartialResponse18nontrivial_permits0B8_
FN:282,_RNCNvMNtNtCsfZPcC2TrjjJ_17cedar_policy_core10authorizer16partial_responseNtB4_15PartialResponse20all_forbid_residuals0B8_
FN:290,_RNCNvMNtNtCsfZPcC2TrjjJ_17cedar_policy_core10authorizer16partial_responseNtB4_15PartialResponse20all_forbid_residualss0_0B8_
FN:294,_RNCNvMNtNtCsfZPcC2TrjjJ_17cedar_policy_core10authorizer16partial_responseNtB4_15PartialResponse20all_forbid_residualss1_0B8_
FN:286,_RNCNvMNtNtCsfZPcC2TrjjJ_17cedar_policy_core10authorizer16partial_responseNtB4_15PartialResponse20all_forbid_residualss_0B8_
FN:262,_RNCNvMNtNtCsfZPcC2TrjjJ_17cedar_policy_core10authorizer16partial_responseNtB4_15PartialResponse20all_permit_residuals0B8_
FN:270,_RNCNvMNtNtCsfZPcC2TrjjJ_17cedar_policy_core10authorizer16partial_responseNtB4_15PartialResponse20all_permit_residualss0_0B8_
FN:274,_RNCNvMNtNtCsfZPcC2TrjjJ_17cedar_policy_core10authorizer16partial_responseNtB4_15PartialResponse20all_permit_residualss1_0B8_
FN:266,_RNCNvMNtNtCsfZPcC2TrjjJ_17cedar_policy_core10authorizer16partial_responseNtB4_15PartialResponse20all_permit_residualss_0B8_
FN:150,_RNCNvMNtNtCsfZPcC2TrjjJ_17cedar_policy_core10authorizer16partial_responseNtB4_15PartialResponse28definitely_satisfied_forbids0B8_
FN:143,_RNCNvMNtNtCsfZPcC2TrjjJ_17cedar_policy_core10authorizer16partial_responseNtB4_15PartialResponse28definitely_satisfied_permits0B8_
FN:299,_RNCNvMNtNtCsfZPcC2TrjjJ_17cedar_policy_core10authorizer16partial_responseNtB4_15PartialResponse3get0B8_
FN:417,_RNCNvMNtNtCsfZPcC2TrjjJ_17cedar_policy_core10authorizer16partial_responseNtB4_15PartialResponse6errors0B8_
FN:484,_RNCNvXs0_NtNtCsfZPcC2TrjjJ_17cedar_policy_core10authorizer16partial_responseNtB9_8ResponseINtNtCsaNl6UpbT7bw_4core7convert4FromNtB7_15PartialResponseE4from0Bb_
FN:476,_RNvXs0_NtNtCsfZPcC2TrjjJ_17cedar_policy_core10authorizer16partial_responseNtB7_8ResponseINtNtCsaNl6UpbT7bw_4core7convert4FromNtB5_15PartialResponseE4from
FN:115,_RNvMNtNtCsfZPcC2TrjjJ_17cedar_policy_core10authorizer16partial_responseNtB2_15PartialResponse10concretize
FN:315,_RNvMNtNtCsfZPcC2TrjjJ_17cedar_policy_core10authorizer16partial_responseNtB2_15PartialResponse10get_forbid
FN:302,_RNvMNtNtCsfZPcC2TrjjJ_17cedar_policy_core10authorizer16partial_responseNtB2_15PartialResponse10get_permit
FN:251,_RNvMNtNtCsfZPcC2TrjjJ_17cedar_policy_core10authorizer16partial_responseNtB2_15PartialResponse13all_residuals
FN:198,_RNvMNtNtCsfZPcC2TrjjJ_17cedar_policy_core10authorizer16partial_responseNtB2_15PartialResponse16residual_forbids
FN:190,_RNvMNtNtCsfZPcC2TrjjJ_17cedar_policy_core10authorizer16partial_responseNtB2_15PartialResponse16residual_permits
FN:162,_RNvMNtNtCsfZPcC2TrjjJ_17cedar_policy_core10authorizer16partial_responseNtB2_15PartialResponse18definitely_errored
FN:172,_RNvMNtNtCsfZPcC2TrjjJ_17cedar_policy_core10authorizer16partial_responseNtB2_15PartialResponse18may_be_determining
FN:242,_RNvMNtNtCsfZPcC2TrjjJ_17cedar_policy_core10authorizer16partial_responseNtB2_15PartialResponse18nontrivial_forbids
FN:233,_RNvMNtNtCsfZPcC2TrjjJ_17cedar_policy_core10authorizer16partial_responseNtB2_15PartialResponse18nontrivial_permits
FN:209,_RNvMNtNtCsfZPcC2TrjjJ_17cedar_policy_core10authorizer16partial_responseNtB2_15PartialResponse19must_be_determining
FN:278,_RNvMNtNtCsfZPcC2TrjjJ_17cedar_policy_core10authorizer16partial_responseNtB2_15PartialResponse20all_forbid_residuals
FN:258,_RNvMNtNtCsfZPcC2TrjjJ_17cedar_policy_core10authorizer16partial_responseNtB2_15PartialResponse20all_permit_residuals
FN:156,_RNvMNtNtCsfZPcC2TrjjJ_17cedar_policy_core10authorizer16partial_responseNtB2_15PartialResponse20definitely_satisfied
FN:221,_RNvMNtNtCsfZPcC2TrjjJ_17cedar_policy_core10authorizer16partial_responseNtB2_15PartialResponse20nontrivial_residuals
FN:226,_RNvMNtNtCsfZPcC2TrjjJ_17cedar_policy_core10authorizer16partial_responseNtB2_15PartialResponse23nontrivial_residual_ids
FN:149,_RNvMNtNtCsfZPcC2TrjjJ_17cedar_policy_core10authorizer16partial_responseNtB2_15PartialResponse28definitely_satisfied_forbids
FN:142,_RNvMNtNtCsfZPcC2TrjjJ_17cedar_policy_core10authorizer16partial_responseNtB2_15PartialResponse28definitely_satisfied_permits
FN:298,_RNvMNtNtCsfZPcC2TrjjJ_17cedar_policy_core10authorizer16partial_responseNtB2_15PartialResponse3get
FN:411,_RNvMNtNtCsfZPcC2TrjjJ_17cedar_policy_core10authorizer16partial_responseNtB2_15PartialResponse6errors
FN:121,_RNvMNtNtCsfZPcC2TrjjJ_17cedar_policy_core10authorizer16partial_responseNtB2_15PartialResponse8decision
FN:491,_RNvNtNtCsfZPcC2TrjjJ_17cedar_policy_core10authorizer16partial_response16construct_policy
FN:502,_RNvNtNtCsfZPcC2TrjjJ_17cedar_policy_core10authorizer16partial_response9did_error
FN:577,_RNvNtNtNtCsfZPcC2TrjjJ_17cedar_policy_core10authorizer16partial_response4tests_12sanity_check
FN:758,_RNvNtNtNtCsfZPcC2TrjjJ_17cedar_policy_core10authorizer16partial_response4tests_15did_error_error
FN:769,_RNvNtNtNtCsfZPcC2TrjjJ_17cedar_policy_core10authorizer16partial_response4tests_17did_error_noerror
FN:744,_RNvNtNtNtCsfZPcC2TrjjJ_17cedar_policy_core10authorizer16partial_response4tests_29build_policies_trivial_forbid
FN:730,_RNvNtNtNtCsfZPcC2TrjjJ_17cedar_policy_core10authorizer16partial_response4tests_29build_policies_trivial_permit
FN:526,_RINvMNtNtNtCsfZPcC2TrjjJ_17cedar_policy_core10authorizer16partial_response4testINtB3_7SlowSetNtNtNtB9_3ast6policy6PolicyE4fromAB1t_j1_EB9_
FN:526,_RINvMNtNtNtCsfZPcC2TrjjJ_17cedar_policy_core10authorizer16partial_response4testINtB3_7SlowSetNtNtNtB9_3ast6policy6PolicyE4fromAB1t_j2_EB9_
FN:526,_RINvMNtNtNtCsfZPcC2TrjjJ_17cedar_policy_core10authorizer16partial_response4testINtB3_7SlowSetNtNtNtB9_3ast6policy6PolicyE4fromINtNtNtNtCsaNl6UpbT7bw_4core4iter8adapters3map3MapINtNtB25_5chain5ChainIB21_IB2P_IB2P_IB21_INtNtNtNtCsht3nMU9UgFu_3std11collections4hash3map4IterNtB1v_8PolicyIDINtNtCsiTraAjBDcu4_5alloc4sync3ArcNtNtB1x_10annotation11AnnotationsEENCNvMB5_NtB5_15PartialResponse20all_permit_residuals0EIB21_IB3u_B4l_TNtB5_10ErrorStateB4A_EENCB5J_s_0EEIB21_IB3u_B4l_TIB4B_NtNtB1x_4expr4ExprEB4A_EENCB5J_s0_0EENCB5J_s1_0EIB21_IB2P_IB2P_IB21_B3t_NCNvB5L_20all_forbid_residuals0EIB21_B6E_NCB8S_s_0EEIB21_B7r_NCB8S_s0_0EENCB8S_s1_0EENvB5_16construct_policyEEB9_
FN:526,_RINvMNtNtNtCsfZPcC2TrjjJ_17cedar_policy_core10authorizer16partial_response4testINtB3_7SlowSetNtNtNtB9_3ast6policy6PolicyE4fromINtNtNtNtCsaNl6UpbT7bw_4core4iter8adapters3map3MapINtNtNtNtCsht3nMU9UgFu_3std11collections4hash3map4IterNtB1v_8PolicyIDINtNtCsiTraAjBDcu4_5alloc4sync3ArcNtNtB1x_10annotation11AnnotationsEENCNvMB5_NtB5_15PartialResponse28definitely_satisfied_forbids0EEB9_
FN:526,_RINvMNtNtNtCsfZPcC2TrjjJ_17cedar_policy_core10authorizer16partial_response4testINtB3_7SlowSetNtNtNtB9_3ast6policy6PolicyE4fromINtNtNtNtCsaNl6UpbT7bw_4core4iter8adapters3map3MapINtNtNtNtCsht3nMU9UgFu_3std11collections4hash3map4IterNtB1v_8PolicyIDINtNtCsiTraAjBDcu4_5alloc4sync3ArcNtNtB1x_10annotation11AnnotationsEENCNvMB5_NtB5_15PartialResponse28definitely_satisfied_permits0EEB9_
FN:526,_RINvMNtNtNtCsfZPcC2TrjjJ_17cedar_policy_core10authorizer16partial_response4testINtB3_7SlowSetNtNtNtB9_3ast6policy6PolicyE4fromINtNtNtNtCsaNl6UpbT7bw_4core4iter8adapters5chain5ChainIB21_INtNtB25_3map3MapINtNtNtNtCsht3nMU9UgFu_3std11collections4hash3map4IterNtB1v_8PolicyIDINtNtCsiTraAjBDcu4_5alloc4sync3ArcNtNtB1x_10annotation11AnnotationsEENCNvMB5_NtB5_15PartialResponse28definitely_satisfied_permits0EIB2Y_IB3f_B46_TIB4m_NtNtB1x_4expr4ExprEB4l_EENCNvB5w_16residual_permits0EEIB2Y_B6x_NCNvB5w_16residual_forbids0EEEB9_
FN:526,_RINvMNtNtNtCsfZPcC2TrjjJ_17cedar_policy_core10authorizer16partial_response4testINtB3_7SlowSetNtNtNtB9_3ast6policy6PolicyE4fromINtNtNtNtCsaNl6UpbT7bw_4core4iter8adapters5chain5ChainINtNtB25_3map3MapINtNtNtNtCsht3nMU9UgFu_3std11collections4hash3map4IterNtB1v_8PolicyIDINtNtCsiTraAjBDcu4_5alloc4sync3ArcNtNtB1x_10annotation11AnnotationsEENCNvMB5_NtB5_15PartialResponse28definitely_satisfied_forbids0EIB2T_IB3a_B41_TIB4h_NtNtB1x_4expr4ExprEB4g_EENCNvB5r_16residual_forbids0EEEB9_
FN:526,_RINvMNtNtNtCsfZPcC2TrjjJ_17cedar_policy_core10authorizer16partial_response4testINtB3_7SlowSetNtNtNtB9_3ast6policy6PolicyE4fromINtNtNtNtCsaNl6UpbT7bw_4core4iter8adapters5chain5ChainINtNtB25_3map3MapINtNtNtNtCsht3nMU9UgFu_3std11collections4hash3map4IterNtB1v_8PolicyIDINtNtCsiTraAjBDcu4_5alloc4sync3ArcNtNtB1x_10annotation11AnnotationsEENCNvMB5_NtB5_15PartialResponse28definitely_satisfied_permits0EIB2T_B39_NCNvB5r_28definitely_satisfied_forbids0EEEB9_
FN:526,_RINvMNtNtNtCsfZPcC2TrjjJ_17cedar_policy_core10authorizer16partial_response4testINtB3_7SlowSetNtNtNtB9_3ast6policy6PolicyE4fromINtNtNtNtCsaNl6UpbT7bw_4core4iter8adapters5chain5ChainINtNtB25_3map3MapINtNtNtNtCsht3nMU9UgFu_3std11collections4hash3map4IterNtB1v_8PolicyIDTINtNtCsiTraAjBDcu4_5alloc4sync3ArcNtNtB1x_4expr4ExprEIB4i_NtNtB1x_10annotation11AnnotationsEEENCNvMB5_NtB5_15PartialResponse18nontrivial_permits0EIB2T_B39_NCNvB5R_18nontrivial_forbids0EEEB9_
FN:526,_RINvMNtNtNtCsfZPcC2TrjjJ_17cedar_policy_core10authorizer16partial_response4testINtB3_7SlowSetNtNtNtB9_3ast6policy6PolicyE4fromINtNtNtNtCsaNl6UpbT7bw_4core4iter8adapters6cloned6ClonedINtNtNtB29_5array4iter8IntoIterRB1t_Kj8_EEEB9_
FN:556,_RINvXs0_NtNtNtCsfZPcC2TrjjJ_17cedar_policy_core10authorizer16partial_response4testINtB6_7SlowSetNtNtNtBc_3ast6policy6PolicyEINtNtNtNtCsaNl6UpbT7bw_4core4iter6traits7collect12FromIteratorB1w_E9from_iterINtNtNtB25_8adapters3map3MapINtNtB3i_5chain5ChainIB3e_IB3G_IB3G_IB3e_INtNtNtNtCsht3nMU9UgFu_3std11collections4hash3map4IterNtB1y_8PolicyIDINtNtCsiTraAjBDcu4_5alloc4sync3ArcNtNtB1A_10annotation11AnnotationsEENCNvMB8_NtB8_15PartialResponse20all_permit_residuals0EIB3e_IB4l_B5c_TNtB8_10ErrorStateB5r_EENCB6A_s_0EEIB3e_IB4l_B5c_TIB5s_NtNtB1A_4expr4ExprEB5r_EENCB6A_s0_0EENCB6A_s1_0EIB3e_IB3G_IB3G_IB3e_B4k_NCNvB6C_20all_forbid_residuals0EIB3e_B7v_NCB9J_s_0EEIB3e_B8i_NCB9J_s0_0EENCB9J_s1_0EENvB8_16construct_policyEEBc_
FN:556,_RINvXs0_NtNtNtCsfZPcC2TrjjJ_17cedar_policy_core10authorizer16partial_response4testINtB6_7SlowSetNtNtNtBc_3ast6policy6PolicyEINtNtNtNtCsaNl6UpbT7bw_4core4iter6traits7collect12FromIteratorB1w_E9from_iterINtNtNtB25_8adapters3map3MapINtNtNtNtCsht3nMU9UgFu_3std11collections4hash3map4IterNtB1y_8PolicyIDINtNtCsiTraAjBDcu4_5alloc4sync3ArcNtNtB1A_10annotation11AnnotationsEENCNvMB8_NtB8_15PartialResponse28definitely_satisfied_forbids0EEBc_
FN:556,_RINvXs0_NtNtNtCsfZPcC2TrjjJ_17cedar_policy_core10authorizer16partial_response4testINtB6_7SlowSetNtNtNtBc_3ast6policy6PolicyEINtNtNtNtCsaNl6UpbT7bw_4core4iter6traits7collect12FromIteratorB1w_E9from_iterINtNtNtB25_8adapters3map3MapINtNtNtNtCsht3nMU9UgFu_3std11collections4hash3map4IterNtB1y_8PolicyIDINtNtCsiTraAjBDcu4_5alloc4sync3ArcNtNtB1A_10annotation11AnnotationsEENCNvMB8_NtB8_15PartialResponse28definitely_satisfied_permits0EEBc_
FN:556,_RINvXs0_NtNtNtCsfZPcC2TrjjJ_17cedar_policy_core10authorizer16partial_response4testINtB6_7SlowSetNtNtNtBc_3ast6policy6PolicyEINtNtNtNtCsaNl6UpbT7bw_4core4iter6traits7collect12FromIteratorB1w_E9from_iterINtNtNtB25_8adapters5chain5ChainIB3e_INtNtB3i_3map3MapINtNtNtNtCsht3nMU9UgFu_3std11collections4hash3map4IterNtB1y_8PolicyIDINtNtCsiTraAjBDcu4_5alloc4sync3ArcNtNtB1A_10annotation11AnnotationsEENCNvMB8_NtB8_15PartialResponse28definitely_satisfied_permits0EIB3P_IB46_B4X_TIB5d_NtNtB1A_4expr4ExprEB5c_EENCNvB6n_16residual_permits0EEIB3P_B7o_NCNvB6n_16residual_forbids0EEEBc_
FN:556,_RINvXs0_NtNtNtCsfZPcC2TrjjJ_17cedar_policy_core10authorizer16partial_response4testINtB6_7SlowSetNtNtNtBc_3ast6policy6PolicyEINtNtNtNtCsaNl6UpbT7bw_4core4iter6traits7collect12FromIteratorB1w_E9from_iterINtNtNtB25_8adapters5chain5ChainINtNtB3i_3map3MapINtNtNtNtCsht3nMU9UgFu_3std11collections4hash3map4IterNtB1y_8PolicyIDINtNtCsiTraAjBDcu4_5alloc4sync3ArcNtNtB1A_10annotation11AnnotationsEENCNvMB8_NtB8_15PartialResponse28definitely_satisfied_forbids0EIB3K_IB41_B4S_TIB58_NtNtB1A_4expr4ExprEB57_EENCNvB6i_16residual_forbids0EEEBc_
FN:556,_RINvXs0_NtNtNtCsfZPcC2TrjjJ_17cedar_policy_core10authorizer16partial_response4testINtB6_7SlowSetNtNtNtBc_3ast6policy6PolicyEINtNtNtNtCsaNl6UpbT7bw_4core4iter6traits7collect12FromIteratorB1w_E9from_iterINtNtNtB25_8adapters5chain5ChainINtNtB3i_3map3MapINtNtNtNtCsht3nMU9UgFu_3std11collections4hash3map4IterNtB1y_8PolicyIDINtNtCsiTraAjBDcu4_5alloc4sync3ArcNtNtB1A_10annotation11AnnotationsEENCNvMB8_NtB8_15PartialResponse28definitely_satisfied_permits0EIB3K_B40_NCNvB6i_28definitely_satisfied_forbids0EEEBc_
FN:556,_RINvXs0_NtNtNtCsfZPcC2TrjjJ_17cedar_policy_core10authorizer16partial_response4testINtB6_7SlowSetNtNtNtBc_3ast6policy6PolicyEINtNtNtNtCsaNl6UpbT7bw_4core4iter6traits7collect12FromIteratorB1w_E9from_iterINtNtNtB25_8adapters5chain5ChainINtNtB3i_3map3MapINtNtNtNtCsht3nMU9UgFu_3std11collections4hash3map4IterNtB1y_8PolicyIDTINtNtCsiTraAjBDcu4_5alloc4sync3ArcNtNtB1A_4expr4ExprEIB59_NtNtB1A_10annotation11AnnotationsEEENCNvMB8_NtB8_15PartialResponse18nontrivial_permits0EIB3K_B40_NCNvB6I_18nontrivial_forbids0EEEBc_
FN:548,_RNCNvXs_NtNtNtCsfZPcC2TrjjJ_17cedar_policy_core10authorizer16partial_response4testINtB6_7SlowSetNtNtNtBc_3ast6policy6PolicyENtNtCsaNl6UpbT7bw_4core3cmp9PartialEq2eq0Bc_
FN:536,_RNvMNtNtNtCsfZPcC2TrjjJ_17cedar_policy_core10authorizer16partial_response4testINtB2_7SlowSetNtNtNtB8_3ast6policy6PolicyE3lenB8_
FN:540,_RNvMNtNtNtCsfZPcC2TrjjJ_17cedar_policy_core10authorizer16partial_response4testINtB2_7SlowSetNtNtNtB8_3ast6policy6PolicyE8containsB8_
FN:546,_RNvXs_NtNtNtCsfZPcC2TrjjJ_17cedar_policy_core10authorizer16partial_response4testINtB4_7SlowSetNtNtNtBa_3ast6policy6PolicyENtNtCsaNl6UpbT7bw_4core3cmp9PartialEq2eqBa_
FNDA:8,_RINvMNtNtCsfZPcC2TrjjJ_17cedar_policy_core10authorizer16partial_responseNtB3_15PartialResponse3newINtNtCsiTraAjBDcu4_5alloc3vec3VecTNtNtNtB7_3ast6policy8PolicyIDINtNtB1D_4sync3ArcNtNtB2a_10annotation11AnnotationsEEEIB1z_TB26_TNtB3_10ErrorStateB2z_EEEIB1z_TB26_TIB2A_NtNtB2a_4expr4ExprEB2z_EEEB1y_B3r_B40_IB1z_NtNtB5_3err18AuthorizationErrorEEB7_
FNDA:1,_RINvMNtNtCsfZPcC2TrjjJ_17cedar_policy_core10authorizer16partial_responseNtB3_15PartialResponse3newINtNtNtNtCsaNl6UpbT7bw_4core4iter7sources4once4OnceTNtNtNtB7_3ast6policy8PolicyIDINtNtCsiTraAjBDcu4_5alloc4sync3ArcNtNtB2s_10annotation11AnnotationsEEEATB2o_TNtB3_10ErrorStateB2R_EEj2_IB1z_TB2o_TIB2S_NtNtB2s_4expr4ExprEB2R_EEEB1y_B3Z_B4w_INtNtB1D_5empty5EmptyNtNtB5_3err18AuthorizationErrorEEB7_
FNDA:2,_RNCNCNvMNtNtCsfZPcC2TrjjJ_17cedar_policy_core10authorizer16partial_responseNtB6_15PartialResponse10get_forbids0_00Ba_
FNDA:1,_RNCNCNvMNtNtCsfZPcC2TrjjJ_17cedar_policy_core10authorizer16partial_responseNtB6_15PartialResponse10get_forbids_00Ba_
FNDA:2,_RNCNCNvMNtNtCsfZPcC2TrjjJ_17cedar_policy_core10authorizer16partial_responseNtB6_15PartialResponse10get_permits0_00Ba_
FNDA:1,_RNCNCNvMNtNtCsfZPcC2TrjjJ_17cedar_policy_core10authorizer16partial_responseNtB6_15PartialResponse10get_permits_00Ba_
FNDA:1,_RNCNvMNtNtCsfZPcC2TrjjJ_17cedar_policy_core10authorizer16partial_responseNtB4_15PartialResponse10get_forbid0B8_
FNDA:3,_RNCNvMNtNtCsfZPcC2TrjjJ_17cedar_policy_core10authorizer16partial_responseNtB4_15PartialResponse10get_forbids0_0B8_
FNDA:4,_RNCNvMNtNtCsfZPcC2TrjjJ_17cedar_policy_core10authorizer16partial_responseNtB4_15PartialResponse10get_forbids1_0B8_
FNDA:4,_RNCNvMNtNtCsfZPcC2TrjjJ_17cedar_policy_core10authorizer16partial_responseNtB4_15PartialResponse10get_forbids_0B8_
FNDA:1,_RNCNvMNtNtCsfZPcC2TrjjJ_17cedar_policy_core10authorizer16partial_responseNtB4_15PartialResponse10get_permit0B8_
FNDA:7,_RNCNvMNtNtCsfZPcC2TrjjJ_17cedar_policy_core10authorizer16partial_responseNtB4_15PartialResponse10get_permits0_0B8_
FNDA:4,_RNCNvMNtNtCsfZPcC2TrjjJ_17cedar_policy_core10authorizer16partial_responseNtB4_15PartialResponse10get_permits1_0B8_
FNDA:8,_RNCNvMNtNtCsfZPcC2TrjjJ_17cedar_policy_core10authorizer16partial_responseNtB4_15PartialResponse10get_permits_0B8_
FNDA:1,_RNCNvMNtNtCsfZPcC2TrjjJ_17cedar_policy_core10authorizer16partial_responseNtB4_15PartialResponse16residual_forbids0B8_
FNDA:0,_RNCNvMNtNtCsfZPcC2TrjjJ_17cedar_policy_core10authorizer16partial_responseNtB4_15PartialResponse16residual_permits0B8_
FNDA:2,_RNCNvMNtNtCsfZPcC2TrjjJ_17cedar_policy_core10authorizer16partial_responseNtB4_15PartialResponse18nontrivial_forbids0B8_
FNDA:2,_RNCNvMNtNtCsfZPcC2TrjjJ_17cedar_policy_core10authorizer16partial_responseNtB4_15PartialResponse18nontrivial_permits0B8_
FNDA:1,_RNCNvMNtNtCsfZPcC2TrjjJ_17cedar_policy_core10authorizer16partial_responseNtB4_15PartialResponse20all_forbid_residuals0B8_
FNDA:1,_RNCNvMNtNtCsfZPcC2TrjjJ_17cedar_policy_core10authorizer16partial_responseNtB4_15PartialResponse20all_forbid_residualss0_0B8_
FNDA:4,_RNCNvMNtNtCsfZPcC2TrjjJ_17cedar_policy_core10authorizer16partial_responseNtB4_15PartialResponse20all_forbid_residualss1_0B8_
FNDA:2,_RNCNvMNtNtCsfZPcC2TrjjJ_17cedar_policy_core10authorizer16partial_responseNtB4_15PartialResponse20all_forbid_residualss_0B8_
FNDA:1,_RNCNvMNtNtCsfZPcC2TrjjJ_17cedar_policy_core10authorizer16partial_responseNtB4_15PartialResponse20all_permit_residuals0B8_
FNDA:1,_RNCNvMNtNtCsfZPcC2TrjjJ_17cedar_policy_core10authorizer16partial_responseNtB4_15PartialResponse20all_permit_residualss0_0B8_
FNDA:4,_RNCNvMNtNtCsfZPcC2TrjjJ_17cedar_policy_core10authorizer16partial_responseNtB4_15PartialResponse20all_permit_residualss1_0B8_
FNDA:2,_RNCNvMNtNtCsfZPcC2TrjjJ_17cedar_policy_core10authorizer16partial_responseNtB4_15PartialResponse20all_permit_residualss_0B8_
FNDA:6,_RNCNvMNtNtCsfZPcC2TrjjJ_17cedar_policy_core10authorizer16partial_responseNtB4_15PartialResponse28definitely_satisfied_forbids0B8_
FNDA:6,_RNCNvMNtNtCsfZPcC2TrjjJ_17cedar_policy_core10authorizer16partial_responseNtB4_15PartialResponse28definitely_satisfied_permits0B8_
FNDA:5,_RNCNvMNtNtCsfZPcC2TrjjJ_17cedar_policy_core10authorizer16partial_responseNtB4_15PartialResponse3get0B8_
FNDA:0,_RNCNvMNtNtCsfZPcC2TrjjJ_17cedar_policy_core10authorizer16partial_responseNtB4_15PartialResponse6errors0B8_
FNDA:6,_RNCNvXs0_NtNtCsfZPcC2TrjjJ_17cedar_policy_core10authorizer16partial_responseNtB9_8ResponseINtNtCsaNl6UpbT7bw_4core7convert4FromNtB7_15PartialResponseE4from0Bb_
FNDA:7,_RNvXs0_NtNtCsfZPcC2TrjjJ_17cedar_policy_core10authorizer16partial_responseNtB7_8ResponseINtNtCsaNl6UpbT7bw_4core7convert4FromNtB5_15PartialResponseE4from
FNDA:7,_RNvMNtNtCsfZPcC2TrjjJ_17cedar_policy_core10authorizer16partial_responseNtB2_15PartialResponse10concretize
FNDA:5,_RNvMNtNtCsfZPcC2TrjjJ_17cedar_policy_core10authorizer16partial_responseNtB2_15PartialResponse10get_forbid
FNDA:9,_RNvMNtNtCsfZPcC2TrjjJ_17cedar_policy_core10authorizer16partial_responseNtB2_15PartialResponse10get_permit
FNDA:1,_RNvMNtNtCsfZPcC2TrjjJ_17cedar_policy_core10authorizer16partial_responseNtB2_15PartialResponse13all_residuals
FNDA:1,_RNvMNtNtCsfZPcC2TrjjJ_17cedar_policy_core10authorizer16partial_responseNtB2_15PartialResponse16residual_forbids
FNDA:0,_RNvMNtNtCsfZPcC2TrjjJ_17cedar_policy_core10authorizer16partial_responseNtB2_15PartialResponse16residual_permits
FNDA:1,_RNvMNtNtCsfZPcC2TrjjJ_17cedar_policy_core10authorizer16partial_responseNtB2_15PartialResponse18definitely_errored
FNDA:1,_RNvMNtNtCsfZPcC2TrjjJ_17cedar_policy_core10authorizer16partial_responseNtB2_15PartialResponse18may_be_determining
FNDA:2,_RNvMNtNtCsfZPcC2TrjjJ_17cedar_policy_core10authorizer16partial_responseNtB2_15PartialResponse18nontrivial_forbids
FNDA:2,_RNvMNtNtCsfZPcC2TrjjJ_17cedar_policy_core10authorizer16partial_responseNtB2_15PartialResponse18nontrivial_permits
FNDA:8,_RNvMNtNtCsfZPcC2TrjjJ_17cedar_policy_core10authorizer16partial_responseNtB2_15PartialResponse19must_be_determining
FNDA:1,_RNvMNtNtCsfZPcC2TrjjJ_17cedar_policy_core10authorizer16partial_responseNtB2_15PartialResponse20all_forbid_residuals
FNDA:1,_RNvMNtNtCsfZPcC2TrjjJ_17cedar_policy_core10authorizer16partial_responseNtB2_15PartialResponse20all_permit_residuals
FNDA:1,_RNvMNtNtCsfZPcC2TrjjJ_17cedar_policy_core10authorizer16partial_responseNtB2_15PartialResponse20definitely_satisfied
FNDA:2,_RNvMNtNtCsfZPcC2TrjjJ_17cedar_policy_core10authorizer16partial_responseNtB2_15PartialResponse20nontrivial_residuals
FNDA:1,_RNvMNtNtCsfZPcC2TrjjJ_17cedar_policy_core10authorizer16partial_responseNtB2_15PartialResponse23nontrivial_residual_ids
FNDA:6,_RNvMNtNtCsfZPcC2TrjjJ_17cedar_policy_core10authorizer16partial_responseNtB2_15PartialResponse28definitely_satisfied_forbids
FNDA:7,_RNvMNtNtCsfZPcC2TrjjJ_17cedar_policy_core10authorizer16partial_responseNtB2_15PartialResponse28definitely_satisfied_permits
FNDA:9,_RNvMNtNtCsfZPcC2TrjjJ_17cedar_policy_core10authorizer16partial_responseNtB2_15PartialResponse3get
FNDA:7,_RNvMNtNtCsfZPcC2TrjjJ_17cedar_policy_core10authorizer16partial_responseNtB2_15PartialResponse6errors
FNDA:1,_RNvMNtNtCsfZPcC2TrjjJ_17cedar_policy_core10authorizer16partial_responseNtB2_15PartialResponse8decision
FNDA:35,_RNvNtNtCsfZPcC2TrjjJ_17cedar_policy_core10authorizer16partial_response16construct_policy
FNDA:6,_RNvNtNtCsfZPcC2TrjjJ_17cedar_policy_core10authorizer16partial_response9did_error
FNDA:1,_RNvNtNtNtCsfZPcC2TrjjJ_17cedar_policy_core10authorizer16partial_response4tests_12sanity_check
FNDA:1,_RNvNtNtNtCsfZPcC2TrjjJ_17cedar_policy_core10authorizer16partial_response4tests_15did_error_error
FNDA:1,_RNvNtNtNtCsfZPcC2TrjjJ_17cedar_policy_core10authorizer16partial_response4tests_17did_error_noerror
FNDA:1,_RNvNtNtNtCsfZPcC2TrjjJ_17cedar_policy_core10authorizer16partial_response4tests_29build_policies_trivial_forbid
FNDA:1,_RNvNtNtNtCsfZPcC2TrjjJ_17cedar_policy_core10authorizer16partial_response4tests_29build_policies_trivial_permit
FNDA:3,_RINvMNtNtNtCsfZPcC2TrjjJ_17cedar_policy_core10authorizer16partial_response4testINtB3_7SlowSetNtNtNtB9_3ast6policy6PolicyE4fromAB1t_j1_EB9_
FNDA:3,_RINvMNtNtNtCsfZPcC2TrjjJ_17cedar_policy_core10authorizer16partial_response4testINtB3_7SlowSetNtNtNtB9_3ast6policy6PolicyE4fromAB1t_j2_EB9_
FNDA:1,_RINvMNtNtNtCsfZPcC2TrjjJ_17cedar_policy_core10authorizer16partial_response4testINtB3_7SlowSetNtNtNtB9_3ast6policy6PolicyE4fromINtNtNtNtCsaNl6UpbT7bw_4core4iter8adapters3map3MapINtNtB25_5chain5ChainIB21_IB2P_IB2P_IB21_INtNtNtNtCsht3nMU9UgFu_3std11collections4hash3map4IterNtB1v_8PolicyIDINtNtCsiTraAjBDcu4_5alloc4sync3ArcNtNtB1x_10annotation11AnnotationsEENCNvMB5_NtB5_15PartialResponse20all_permit_residuals0EIB21_IB3u_B4l_TNtB5_10ErrorStateB4A_EENCB5J_s_0EEIB21_IB3u_B4l_TIB4B_NtNtB1x_4expr4ExprEB4A_EENCB5J_s0_0EENCB5J_s1_0EIB21_IB2P_IB2P_IB21_B3t_NCNvB5L_20all_forbid_residuals0EIB21_B6E_NCB8S_s_0EEIB21_B7r_NCB8S_s0_0EENCB8S_s1_0EENvB5_16construct_policyEEB9_
FNDA:2,_RINvMNtNtNtCsfZPcC2TrjjJ_17cedar_policy_core10authorizer16partial_response4testINtB3_7SlowSetNtNtNtB9_3ast6policy6PolicyE4fromINtNtNtNtCsaNl6UpbT7bw_4core4iter8adapters3map3MapINtNtNtNtCsht3nMU9UgFu_3std11collections4hash3map4IterNtB1v_8PolicyIDINtNtCsiTraAjBDcu4_5alloc4sync3ArcNtNtB1x_10annotation11AnnotationsEENCNvMB5_NtB5_15PartialResponse28definitely_satisfied_forbids0EEB9_
FNDA:1,_RINvMNtNtNtCsfZPcC2TrjjJ_17cedar_policy_core10authorizer16partial_response4testINtB3_7SlowSetNtNtNtB9_3ast6policy6PolicyE4fromINtNtNtNtCsaNl6UpbT7bw_4core4iter8adapters3map3MapINtNtNtNtCsht3nMU9UgFu_3std11collections4hash3map4IterNtB1v_8PolicyIDINtNtCsiTraAjBDcu4_5alloc4sync3ArcNtNtB1x_10annotation11AnnotationsEENCNvMB5_NtB5_15PartialResponse28definitely_satisfied_permits0EEB9_
FNDA:0,_RINvMNtNtNtCsfZPcC2TrjjJ_17cedar_policy_core10authorizer16partial_response4testINtB3_7SlowSetNtNtNtB9_3ast6policy6PolicyE4fromINtNtNtNtCsaNl6UpbT7bw_4core4iter8adapters5chain5ChainIB21_INtNtB25_3map3MapINtNtNtNtCsht3nMU9UgFu_3std11collections4hash3map4IterNtB1v_8PolicyIDINtNtCsiTraAjBDcu4_5alloc4sync3ArcNtNtB1x_10annotation11AnnotationsEENCNvMB5_NtB5_15PartialResponse28definitely_satisfied_permits0EIB2Y_IB3f_B46_TIB4m_NtNtB1x_4expr4ExprEB4l_EENCNvB5w_16residual_permits0EEIB2Y_B6x_NCNvB5w_16residual_forbids0EEEB9_
FNDA:1,_RINvMNtNtNtCsfZPcC2TrjjJ_17cedar_policy_core10authorizer16partial_response4testINtB3_7SlowSetNtNtNtB9_3ast6policy6PolicyE4fromINtNtNtNtCsaNl6UpbT7bw_4core4iter8adapters5chain5ChainINtNtB25_3map3MapINtNtNtNtCsht3nMU9UgFu_3std11collections4hash3map4IterNtB1v_8PolicyIDINtNtCsiTraAjBDcu4_5alloc4sync3ArcNtNtB1x_10annotation11AnnotationsEENCNvMB5_NtB5_15PartialResponse28definitely_satisfied_forbids0EIB2T_IB3a_B41_TIB4h_NtNtB1x_4expr4ExprEB4g_EENCNvB5r_16residual_forbids0EEEB9_
FNDA:1,_RINvMNtNtNtCsfZPcC2TrjjJ_17cedar_policy_core10authorizer16partial_response4testINtB3_7SlowSetNtNtNtB9_3ast6policy6PolicyE4fromINtNtNtNtCsaNl6UpbT7bw_4core4iter8adapters5chain5ChainINtNtB25_3map3MapINtNtNtNtCsht3nMU9UgFu_3std11collections4hash3map4IterNtB1v_8PolicyIDINtNtCsiTraAjBDcu4_5alloc4sync3ArcNtNtB1x_10annotation11AnnotationsEENCNvMB5_NtB5_15PartialResponse28definitely_satisfied_permits0EIB2T_B39_NCNvB5r_28definitely_satisfied_forbids0EEEB9_
FNDA:1,_RINvMNtNtNtCsfZPcC2TrjjJ_17cedar_policy_core10authorizer16partial_response4testINtB3_7SlowSetNtNtNtB9_3ast6policy6PolicyE4fromINtNtNtNtCsaNl6UpbT7bw_4core4iter8adapters5chain5ChainINtNtB25_3map3MapINtNtNtNtCsht3nMU9UgFu_3std11collections4hash3map4IterNtB1v_8PolicyIDTINtNtCsiTraAjBDcu4_5alloc4sync3ArcNtNtB1x_4expr4ExprEIB4i_NtNtB1x_10annotation11AnnotationsEEENCNvMB5_NtB5_15PartialResponse18nontrivial_permits0EIB2T_B39_NCNvB5R_18nontrivial_forbids0EEEB9_
FNDA:1,_RINvMNtNtNtCsfZPcC2TrjjJ_17cedar_policy_core10authorizer16partial_response4testINtB3_7SlowSetNtNtNtB9_3ast6policy6PolicyE4fromINtNtNtNtCsaNl6UpbT7bw_4core4iter8adapters6cloned6ClonedINtNtNtB29_5array4iter8IntoIterRB1t_Kj8_EEEB9_
FNDA:1,_RINvXs0_NtNtNtCsfZPcC2TrjjJ_17cedar_policy_core10authorizer16partial_response4testINtB6_7SlowSetNtNtNtBc_3ast6policy6PolicyEINtNtNtNtCsaNl6UpbT7bw_4core4iter6traits7collect12FromIteratorB1w_E9from_iterINtNtNtB25_8adapters3map3MapINtNtB3i_5chain5ChainIB3e_IB3G_IB3G_IB3e_INtNtNtNtCsht3nMU9UgFu_3std11collections4hash3map4IterNtB1y_8PolicyIDINtNtCsiTraAjBDcu4_5alloc4sync3ArcNtNtB1A_10annotation11AnnotationsEENCNvMB8_NtB8_15PartialResponse20all_permit_residuals0EIB3e_IB4l_B5c_TNtB8_10ErrorStateB5r_EENCB6A_s_0EEIB3e_IB4l_B5c_TIB5s_NtNtB1A_4expr4ExprEB5r_EENCB6A_s0_0EENCB6A_s1_0EIB3e_IB3G_IB3G_IB3e_B4k_NCNvB6C_20all_forbid_residuals0EIB3e_B7v_NCB9J_s_0EEIB3e_B8i_NCB9J_s0_0EENCB9J_s1_0EENvB8_16construct_policyEEBc_
FNDA:2,_RINvXs0_NtNtNtCsfZPcC2TrjjJ_17cedar_policy_core10authorizer16partial_response4testINtB6_7SlowSetNtNtNtBc_3ast6policy6PolicyEINtNtNtNtCsaNl6UpbT7bw_4core4iter6traits7collect12FromIteratorB1w_E9from_iterINtNtNtB25_8adapters3map3MapINtNtNtNtCsht3nMU9UgFu_3std11collections4hash3map4IterNtB1y_8PolicyIDINtNtCsiTraAjBDcu4_5alloc4sync3ArcNtNtB1A_10annotation11AnnotationsEENCNvMB8_NtB8_15PartialResponse28definitely_satisfied_forbids0EEBc_
FNDA:1,_RINvXs0_NtNtNtCsfZPcC2TrjjJ_17cedar_policy_core10authorizer16partial_response4testINtB6_7SlowSetNtNtNtBc_3ast6policy6PolicyEINtNtNtNtCsaNl6UpbT7bw_4core4iter6traits7collect12FromIteratorB1w_E9from_iterINtNtNtB25_8adapters3map3MapINtNtNtNtCsht3nMU9UgFu_3std11collections4hash3map4IterNtB1y_8PolicyIDINtNtCsiTraAjBDcu4_5alloc4sync3ArcNtNtB1A_10annotation11AnnotationsEENCNvMB8_NtB8_15PartialResponse28definitely_satisfied_permits0EEBc_
FNDA:0,_RINvXs0_NtNtNtCsfZPcC2TrjjJ_17cedar_policy_core10authorizer16partial_response4testINtB6_7SlowSetNtNtNtBc_3ast6policy6PolicyEINtNtNtNtCsaNl6UpbT7bw_4core4iter6traits7collect12FromIteratorB1w_E9from_iterINtNtNtB25_8adapters5chain5ChainIB3e_INtNtB3i_3map3MapINtNtNtNtCsht3nMU9UgFu_3std11collections4hash3map4IterNtB1y_8PolicyIDINtNtCsiTraAjBDcu4_5alloc4sync3ArcNtNtB1A_10annotation11AnnotationsEENCNvMB8_NtB8_15PartialResponse28definitely_satisfied_permits0EIB3P_IB46_B4X_TIB5d_NtNtB1A_4expr4ExprEB5c_EENCNvB6n_16residual_permits0EEIB3P_B7o_NCNvB6n_16residual_forbids0EEEBc_
FNDA:1,_RINvXs0_NtNtNtCsfZPcC2TrjjJ_17cedar_policy_core10authorizer16partial_response4testINtB6_7SlowSetNtNtNtBc_3ast6policy6PolicyEINtNtNtNtCsaNl6UpbT7bw_4core4iter6traits7collect12FromIteratorB1w_E9from_iterINtNtNtB25_8adapters5chain5ChainINtNtB3i_3map3MapINtNtNtNtCsht3nMU9UgFu_3std11collections4hash3map4IterNtB1y_8PolicyIDINtNtCsiTraAjBDcu4_5alloc4sync3ArcNtNtB1A_10annotation11AnnotationsEENCNvMB8_NtB8_15PartialResponse28definitely_satisfied_forbids0EIB3K_IB41_B4S_TIB58_NtNtB1A_4expr4ExprEB57_EENCNvB6i_16residual_forbids0EEEBc_
FNDA:1,_RINvXs0_NtNtNtCsfZPcC2TrjjJ_17cedar_policy_core10authorizer16partial_response4testINtB6_7SlowSetNtNtNtBc_3ast6policy6PolicyEINtNtNtNtCsaNl6UpbT7bw_4core4iter6traits7collect12FromIteratorB1w_E9from_iterINtNtNtB25_8adapters5chain5ChainINtNtB3i_3map3MapINtNtNtNtCsht3nMU9UgFu_3std11collections4hash3map4IterNtB1y_8PolicyIDINtNtCsiTraAjBDcu4_5alloc4sync3ArcNtNtB1A_10annotation11AnnotationsEENCNvMB8_NtB8_15PartialResponse28definitely_satisfied_permits0EIB3K_B40_NCNvB6i_28definitely_satisfied_forbids0EEEBc_
FNDA:1,_RINvXs0_NtNtNtCsfZPcC2TrjjJ_17cedar_policy_core10authorizer16partial_response4testINtB6_7SlowSetNtNtNtBc_3ast6policy6PolicyEINtNtNtNtCsaNl6UpbT7bw_4core4iter6traits7collect12FromIteratorB1w_E9from_iterINtNtNtB25_8adapters5chain5ChainINtNtB3i_3map3MapINtNtNtNtCsht3nMU9UgFu_3std11collections4hash3map4IterNtB1y_8PolicyIDTINtNtCsiTraAjBDcu4_5alloc4sync3ArcNtNtB1A_4expr4ExprEIB59_NtNtB1A_10annotation11AnnotationsEEENCNvMB8_NtB8_15PartialResponse18nontrivial_permits0EIB3K_B40_NCNvB6I_18nontrivial_forbids0EEEBc_
FNDA:17,_RNCNvXs_NtNtNtCsfZPcC2TrjjJ_17cedar_policy_core10authorizer16partial_response4testINtB6_7SlowSetNtNtNtBc_3ast6policy6PolicyENtNtCsaNl6UpbT7bw_4core3cmp9PartialEq2eq0Bc_
FNDA:14,_RNvMNtNtNtCsfZPcC2TrjjJ_17cedar_policy_core10authorizer16partial_response4testINtB2_7SlowSetNtNtNtB8_3ast6policy6PolicyE3lenB8_
FNDA:17,_RNvMNtNtNtCsfZPcC2TrjjJ_17cedar_policy_core10authorizer16partial_response4testINtB2_7SlowSetNtNtNtB8_3ast6policy6PolicyE8containsB8_
FNDA:7,_RNvXs_NtNtNtCsfZPcC2TrjjJ_17cedar_policy_core10authorizer16partial_response4testINtB4_7SlowSetNtNtNtBa_3ast6policy6PolicyENtNtCsaNl6UpbT7bw_4core3cmp9PartialEq2eqBa_
FNF:65
FNH:62
DA:88,9
DA:89,9
DA:90,9
DA:91,9
DA:92,9
DA:93,9
DA:94,9
DA:95,9
DA:96,9
DA:97,9
DA:98,9
DA:99,9
DA:100,9
DA:101,9
DA:102,9
DA:103,9
DA:104,9
DA:105,9
DA:106,9
DA:107,9
DA:108,9
DA:109,9
DA:110,9
DA:111,9
DA:115,7
DA:116,7
DA:117,7
DA:121,1
DA:122,1
DA:123,1
DA:124,1
DA:125,1
DA:126,1
DA:127,1
DA:129,0
DA:131,0
DA:133,0
DA:135,0
DA:137,1
DA:139,1
DA:142,7
DA:143,7
DA:144,6
DA:145,6
DA:146,7
DA:149,6
DA:150,6
DA:151,6
DA:152,6
DA:153,6
DA:156,1
DA:157,1
DA:158,1
DA:159,1
DA:162,1
DA:163,1
DA:164,1
DA:165,1
DA:166,1
DA:167,1
DA:172,1
DA:173,1
DA:175,0
DA:176,0
DA:177,0
DA:178,0
DA:179,0
DA:183,1
DA:184,1
DA:185,1
DA:186,1
DA:188,1
DA:190,0
DA:191,0
DA:192,0
DA:193,0
DA:194,0
DA:195,0
DA:196,0
DA:198,1
DA:199,1
DA:200,1
DA:201,1
DA:202,1
DA:203,1
DA:204,1
DA:209,8
DA:212,8
DA:213,5
DA:216,3
DA:218,8
DA:221,2
DA:222,2
DA:223,2
DA:226,1
DA:227,1
DA:228,1
DA:229,1
DA:230,1
DA:233,2
DA:234,2
DA:235,2
DA:236,2
DA:237,2
DA:238,2
DA:239,2
DA:242,2
DA:243,2
DA:244,2
DA:245,2
DA:246,2
DA:247,2
DA:248,2
DA:251,1
DA:252,1
DA:253,1
DA:254,1
DA:255,1
DA:258,1
DA:259,1
DA:260,1
DA:261,1
DA:262,1
DA:263,1
DA:264,1
DA:265,1
DA:266,2
DA:267,1
DA:268,1
DA:269,1
DA:270,1
DA:271,1
DA:272,1
DA:273,1
DA:274,4
DA:275,1
DA:278,1
DA:279,1
DA:280,1
DA:281,1
DA:282,1
DA:283,1
DA:284,1
DA:285,1
DA:286,2
DA:287,1
DA:288,1
DA:289,1
DA:290,1
DA:291,1
DA:292,1
DA:293,1
DA:294,4
DA:295,1
DA:298,9
DA:299,9
DA:300,9
DA:302,9
DA:303,9
DA:304,9
DA:305,9
DA:306,9
DA:307,9
DA:308,7
DA:309,7
DA:310,7
DA:311,7
DA:312,9
DA:313,9
DA:315,5
DA:316,5
DA:317,5
DA:318,5
DA:319,5
DA:320,5
DA:321,3
DA:322,3
DA:323,3
DA:324,3
DA:325,5
DA:326,5
DA:411,7
DA:412,7
DA:413,7
DA:414,7
DA:415,7
DA:417,0
DA:418,0
DA:419,0
DA:421,7
DA:422,7
DA:423,7
DA:424,7
DA:476,7
DA:477,7
DA:478,4
DA:480,3
DA:482,7
DA:483,7
DA:484,7
DA:485,7
DA:487,7
DA:491,35
DA:492,35
DA:493,35
DA:494,35
DA:495,35
DA:496,35
DA:497,35
DA:499,35
DA:502,6
DA:503,6
DA:504,6
DA:505,6
DA:506,3
DA:507,3
DA:509,6
DA:526,14
DA:527,14
DA:528,34
DA:529,34
DA:530,34
DA:531,0
DA:533,14
DA:534,14
DA:536,14
DA:537,14
DA:538,14
DA:540,17
DA:541,17
DA:542,17
DA:546,7
DA:547,7
DA:548,17
DA:550,0
DA:552,7
DA:556,7
DA:557,7
DA:558,7
DA:560,7
DA:561,7
DA:577,1
DA:578,1
DA:579,1
DA:580,1
DA:581,1
DA:582,1
DA:583,1
DA:584,1
DA:585,1
DA:586,1
DA:587,1
DA:588,1
DA:589,1
DA:590,1
DA:591,1
DA:592,1
DA:593,1
DA:594,1
DA:595,1
DA:596,1
DA:597,1
DA:598,1
DA:599,1
DA:600,1
DA:601,1
DA:602,1
DA:603,1
DA:604,1
DA:605,1
DA:606,1
DA:607,1
DA:608,1
DA:609,1
DA:610,1
DA:611,1
DA:612,1
DA:613,1
DA:614,1
DA:615,1
DA:616,1
DA:617,1
DA:618,1
DA:619,1
DA:620,1
DA:621,1
DA:622,1
DA:623,1
DA:624,1
DA:628,1
DA:629,1
DA:630,1
DA:631,1
DA:632,1
DA:634,1
DA:635,1
DA:636,1
DA:637,1
DA:638,1
DA:640,1
DA:641,1
DA:642,1
DA:643,1
DA:644,1
DA:646,1
DA:647,1
DA:648,1
DA:649,1
DA:650,1
DA:651,1
DA:653,1
DA:654,1
DA:655,1
DA:656,1
DA:657,1
DA:659,1
DA:660,1
DA:661,1
DA:662,1
DA:663,1
DA:665,1
DA:666,1
DA:667,1
DA:668,1
DA:669,1
DA:671,1
DA:672,1
DA:673,1
DA:674,1
DA:675,1
DA:676,1
DA:679,1
DA:680,1
DA:681,1
DA:683,1
DA:684,1
DA:685,1
DA:687,1
DA:688,1
DA:689,1
DA:691,1
DA:692,1
DA:693,1
DA:695,1
DA:696,1
DA:697,1
DA:699,1
DA:700,1
DA:701,1
DA:703,1
DA:705,1
DA:706,1
DA:707,1
DA:709,1
DA:710,1
DA:711,1
DA:713,1
DA:714,1
DA:715,1
DA:718,1
DA:719,1
DA:720,1
DA:721,1
DA:722,1
DA:723,1
DA:724,1
DA:725,1
DA:726,1
DA:727,1
DA:730,1
DA:731,1
DA:732,1
DA:733,1
DA:734,1
DA:735,1
DA:736,1
DA:737,1
DA:738,1
DA:739,1
DA:740,1
DA:741,1
DA:744,1
DA:745,1
DA:746,1
DA:747,1
DA:748,1
DA:749,1
DA:750,1
DA:751,1
DA:752,1
DA:753,1
DA:754,1
DA:755,1
DA:758,1
DA:759,1
DA:760,1
DA:761,1
DA:762,1
DA:763,1
DA:764,1
DA:766,1
DA:769,1
DA:770,1
DA:771,1
DA:772,1
DA:773,1
DA:774,1
DA:777,1
BRF:0
BRH:0
LF:437
LH:415
end_of_record
SF:/Users/victornl/repos/cedar-spec/cedar/cedar-policy-core/src/entities.rs
FN:3886,_RNCNvNtNtCsfZPcC2TrjjJ_17cedar_policy_core8entities26schema_based_parsing_testss_10namespaces0B7_
FN:2713,_RNCNvNtNtCsfZPcC2TrjjJ_17cedar_policy_core8entities26schema_based_parsing_testss_23with_and_without_schema0B7_
FN:2765,_RNCNvNtNtCsfZPcC2TrjjJ_17cedar_policy_core8entities26schema_based_parsing_testss_23with_and_without_schemas0_0B7_
FN:2770,_RNCNvNtNtCsfZPcC2TrjjJ_17cedar_policy_core8entities26schema_based_parsing_testss_23with_and_without_schemas1_0B7_
FN:2775,_RNCNvNtNtCsfZPcC2TrjjJ_17cedar_policy_core8entities26schema_based_parsing_testss_23with_and_without_schemas2_0B7_
FN:2832,_RNCNvNtNtCsfZPcC2TrjjJ_17cedar_policy_core8entities26schema_based_parsing_testss_23with_and_without_schemas3_0B7_
FN:2837,_RNCNvNtNtCsfZPcC2TrjjJ_17cedar_policy_core8entities26schema_based_parsing_testss_23with_and_without_schemas4_0B7_
FN:2842,_RNCNvNtNtCsfZPcC2TrjjJ_17cedar_policy_core8entities26schema_based_parsing_testss_23with_and_without_schemas5_0B7_
FN:2788,_RNCNvNtNtCsfZPcC2TrjjJ_17cedar_policy_core8entities26schema_based_parsing_testss_23with_and_without_schemas_0B7_
FN:3584,_RNCNvNtNtCsfZPcC2TrjjJ_17cedar_policy_core8entities26schema_based_parsing_testss_27action_declared_both_places0B7_
FN:3229,_RNCNvNtNtCsfZPcC2TrjjJ_17cedar_policy_core8entities26schema_based_parsing_testss_28type_mismatch_in_record_attr0B7_
FN:2578,_RNCNvXs0_NtNtCsfZPcC2TrjjJ_17cedar_policy_core8entities26schema_based_parsing_testsNtB7_23MockEmployeeDescriptionNtNtNtB9_4json6schema21EntityTypeDescription9attr_type0Bb_
FN:2581,_RNCNvXs0_NtNtCsfZPcC2TrjjJ_17cedar_policy_core8entities26schema_based_parsing_testsNtB7_23MockEmployeeDescriptionNtNtNtB9_4json6schema21EntityTypeDescription9attr_types_0Bb_
FN:373,_RINvMNtCsfZPcC2TrjjJ_17cedar_policy_core8entitiesNtB3_8Entities10to_dot_strpEB5_
FN:388,_RINvNvMNtCsfZPcC2TrjjJ_17cedar_policy_core8entitiesNtB5_8Entities10to_dot_str9to_dot_idppEB7_
FN:84,_RNvMNtCsfZPcC2TrjjJ_17cedar_policy_core8entitiesNtB2_8Entities10is_partial
FN:356,_RNvMNtCsfZPcC2TrjjJ_17cedar_policy_core8entitiesNtB2_8Entities27get_entities_by_entity_type
FN:3964,_RNvXNvNtNtCsfZPcC2TrjjJ_17cedar_policy_core8entities26schema_based_parsing_testss_19enumerated_entitiesNtB2_19StarTypeDescriptionNtNtNtB6_4json6schema21EntityTypeDescription11entity_type
FN:482,_RNvXs0_NtCsfZPcC2TrjjJ_17cedar_policy_core8entitiesNtB5_8EntitiesNtNtCsaNl6UpbT7bw_4core3fmt7Display3fmt
FN:476,_RNvXs_NtCsfZPcC2TrjjJ_17cedar_policy_core8entitiesNtB4_8EntitiesNtNtNtNtCsaNl6UpbT7bw_4core4iter6traits7collect12IntoIterator9into_iter
FN:2240,_RNvNtNtCsfZPcC2TrjjJ_17cedar_policy_core8entities14entities_tests13test_entities
FN:2265,_RNvNtNtCsfZPcC2TrjjJ_17cedar_policy_core8entities14entities_testss_13test_is_empty
FN:2231,_RNvNtNtCsfZPcC2TrjjJ_17cedar_policy_core8entities14entities_testss_14empty_entities
FN:2343,_RNvNtNtCsfZPcC2TrjjJ_17cedar_policy_core8entities14entities_testss_20test_remove_entities
FN:2401,_RNvNtNtCsfZPcC2TrjjJ_17cedar_policy_core8entities14entities_testss_20test_upsert_entities
FN:2297,_RNvNtNtCsfZPcC2TrjjJ_17cedar_policy_core8entities14entities_testss_34test_enforce_already_computed_fail
FN:2321,_RNvNtNtCsfZPcC2TrjjJ_17cedar_policy_core8entities14entities_testss_37test_enforce_already_computed_succeed
FN:2250,_RNvNtNtCsfZPcC2TrjjJ_17cedar_policy_core8entities14entities_testss_8test_len
FN:2278,_RNvNtNtCsfZPcC2TrjjJ_17cedar_policy_core8entities14entities_testss_9test_iter
FN:146,_RINvMNtCsfZPcC2TrjjJ_17cedar_policy_core8entitiesNtB3_8Entities12add_entitiesAINtNtCsiTraAjBDcu4_5alloc4sync3ArcNtNtNtB5_3ast6entity6EntityEj1_NtNtNtB3_4json6schema16NoEntitiesSchemaEB5_
FN:146,_RINvMNtCsfZPcC2TrjjJ_17cedar_policy_core8entitiesNtB3_8Entities12add_entitiesINtNtNtNtCsaNl6UpbT7bw_4core4iter8adapters3map3MapINtNtNtCsiTraAjBDcu4_5alloc3vec9into_iter8IntoIterNtNtNtB5_3ast6entity6EntityENvMsc_NtB28_4syncINtB3n_3ArcB2P_E3newENtNtNtB3_4json6schema16NoEntitiesSchemaEB5_
FN:256,_RINvMNtCsfZPcC2TrjjJ_17cedar_policy_core8entitiesNtB3_8Entities13from_entitiesANtNtNtB5_3ast6entity6Entityj1_NtNtNtB3_4json6schema16NoEntitiesSchemaEB5_
FN:256,_RINvMNtCsfZPcC2TrjjJ_17cedar_policy_core8entitiesNtB3_8Entities13from_entitiesANtNtNtB5_3ast6entity6Entityj3_NtNtNtB3_4json6schema16NoEntitiesSchemaEB5_
FN:256,_RINvMNtCsfZPcC2TrjjJ_17cedar_policy_core8entitiesNtB3_8Entities13from_entitiesANtNtNtB5_3ast6entity6Entityj4_NtNtNtB3_4json6schema16NoEntitiesSchemaEB5_
FN:256,_RINvMNtCsfZPcC2TrjjJ_17cedar_policy_core8entitiesNtB3_8Entities13from_entitiesINtNtCsiTraAjBDcu4_5alloc3vec3VecNtNtNtB5_3ast6entity6EntityENtNtB3_26schema_based_parsing_tests10MockSchemaEB5_
FN:256,_RINvMNtCsfZPcC2TrjjJ_17cedar_policy_core8entitiesNtB3_8Entities13from_entitiesINtNtCsiTraAjBDcu4_5alloc3vec3VecNtNtNtB5_3ast6entity6EntityENtNtB3_26schema_based_parsing_tests16MockSchemaNoTagsEB5_
FN:256,_RINvMNtCsfZPcC2TrjjJ_17cedar_policy_core8entitiesNtB3_8Entities13from_entitiesINtNtCsiTraAjBDcu4_5alloc3vec3VecNtNtNtB5_3ast6entity6EntityENtNtNtB3_4json6schema16NoEntitiesSchemaEB5_
FN:256,_RINvMNtCsfZPcC2TrjjJ_17cedar_policy_core8entitiesNtB3_8Entities13from_entitiesINtNtCsiTraAjBDcu4_5alloc3vec3VecNtNtNtB5_3ast6entity6EntityENtNtNtB5_9validator10coreschema10CoreSchemaEB5_
FN:256,_RINvMNtCsfZPcC2TrjjJ_17cedar_policy_core8entitiesNtB3_8Entities13from_entitiesINtNtCsiTraAjBDcu4_5alloc3vec3VecNtNtNtB5_3ast6entity6EntityENtNvNtB3_26schema_based_parsing_testss_10namespaces10MockSchemaEB5_
FN:256,_RINvMNtCsfZPcC2TrjjJ_17cedar_policy_core8entitiesNtB3_8Entities13from_entitiesINtNtCsiTraAjBDcu4_5alloc3vec3VecNtNtNtB5_3ast6entity6EntityENtNvNtB3_26schema_based_parsing_testss_19enumerated_entities10MockSchemaEB5_
FN:256,_RINvMNtCsfZPcC2TrjjJ_17cedar_policy_core8entitiesNtB3_8Entities13from_entitiesINtNtNtNtCsaNl6UpbT7bw_4core4iter8adapters3map3MapINtNtNtNtCsht3nMU9UgFu_3std11collections4hash3map6ValuesNtNtNtB5_3ast6entity9EntityUIDINtNtCsiTraAjBDcu4_5alloc4sync3ArcNtB2Y_6EntityEENCNvMs5_NtNtB5_9validator6schemaNtB4l_15ValidatorSchema15action_entities0ENtNtNtB3_4json6schema16NoEntitiesSchemaEB5_
FN:340,_RINvMNtCsfZPcC2TrjjJ_17cedar_policy_core8entitiesNtB3_8Entities13write_to_jsonQINtNtCsiTraAjBDcu4_5alloc3vec3VechEEB5_
FN:173,_RINvMNtCsfZPcC2TrjjJ_17cedar_policy_core8entitiesNtB3_8Entities15remove_entitiesINtNtCsiTraAjBDcu4_5alloc3vec3VecNtNtNtB5_3ast6entity9EntityUIDEEB5_
FN:216,_RINvMNtCsfZPcC2TrjjJ_17cedar_policy_core8entitiesNtB3_8Entities15upsert_entitiesINtNtCsiTraAjBDcu4_5alloc3vec3VecINtNtB1l_4sync3ArcNtNtNtB5_3ast6entity6EntityEENtNtNtB3_4json6schema16NoEntitiesSchemaEB5_
FN:428,_RINvNtCsfZPcC2TrjjJ_17cedar_policy_core8entities17create_entity_mapINtNtNtNtCsaNl6UpbT7bw_4core4iter8adapters3map3MapIB14_INtNtNtNtCsht3nMU9UgFu_3std11collections4hash3map6ValuesNtNtNtB4_3ast6entity9EntityUIDINtNtCsiTraAjBDcu4_5alloc4sync3ArcNtB2S_6EntityEENCNvMs5_NtNtB4_9validator6schemaNtB4f_15ValidatorSchema15action_entities0ENvMsc_B3n_B3k_3newEEB4_
FN:428,_RINvNtCsfZPcC2TrjjJ_17cedar_policy_core8entities17create_entity_mapINtNtNtNtCsaNl6UpbT7bw_4core4iter8adapters3map3MapINtNtNtB1c_5array4iter8IntoIterNtNtNtB4_3ast6entity6EntityKj1_ENvMsc_NtCsiTraAjBDcu4_5alloc4syncINtB2Y_3ArcB2m_E3newEEB4_
FN:428,_RINvNtCsfZPcC2TrjjJ_17cedar_policy_core8entities17create_entity_mapINtNtNtNtCsaNl6UpbT7bw_4core4iter8adapters3map3MapINtNtNtB1c_5array4iter8IntoIterNtNtNtB4_3ast6entity6EntityKj3_ENvMsc_NtCsiTraAjBDcu4_5alloc4syncINtB2Y_3ArcB2m_E3newEEB4_
FN:428,_RINvNtCsfZPcC2TrjjJ_17cedar_policy_core8entities17create_entity_mapINtNtNtNtCsaNl6UpbT7bw_4core4iter8adapters3map3MapINtNtNtB1c_5array4iter8IntoIterNtNtNtB4_3ast6entity6EntityKj4_ENvMsc_NtCsiTraAjBDcu4_5alloc4syncINtB2Y_3ArcB2m_E3newEEB4_
FN:428,_RINvNtCsfZPcC2TrjjJ_17cedar_policy_core8entities17create_entity_mapINtNtNtNtCsaNl6UpbT7bw_4core4iter8adapters3map3MapINtNtNtCsiTraAjBDcu4_5alloc3vec9into_iter8IntoIterNtNtNtB4_3ast6entity6EntityENvMsc_NtB1Y_4syncINtB3d_3ArcB2F_E3newEEB4_
FN:153,_RNCINvMNtCsfZPcC2TrjjJ_17cedar_policy_core8entitiesNtB5_8Entities12add_entitiesAINtNtCsiTraAjBDcu4_5alloc4sync3ArcNtNtNtB7_3ast6entity6EntityEj1_NtNtNtB5_4json6schema16NoEntitiesSchemaE0B7_
FN:153,_RNCINvMNtCsfZPcC2TrjjJ_17cedar_policy_core8entitiesNtB5_8Entities12add_entitiesINtNtNtNtCsaNl6UpbT7bw_4core4iter8adapters3map3MapINtNtNtCsiTraAjBDcu4_5alloc3vec9into_iter8IntoIterNtNtNtB7_3ast6entity6EntityENvMsc_NtB2a_4syncINtB3p_3ArcB2R_E3newENtNtNtB5_4json6schema16NoEntitiesSchemaE0B7_
FN:301,_RNCINvMNtCsfZPcC2TrjjJ_17cedar_policy_core8entitiesNtB5_8Entities13from_entitiesANtNtNtB7_3ast6entity6Entityj1_NtNtNtB5_4json6schema16NoEntitiesSchemaE0B7_
FN:301,_RNCINvMNtCsfZPcC2TrjjJ_17cedar_policy_core8entitiesNtB5_8Entities13from_entitiesANtNtNtB7_3ast6entity6Entityj3_NtNtNtB5_4json6schema16NoEntitiesSchemaE0B7_
FN:301,_RNCINvMNtCsfZPcC2TrjjJ_17cedar_policy_core8entitiesNtB5_8Entities13from_entitiesANtNtNtB7_3ast6entity6Entityj4_NtNtNtB5_4json6schema16NoEntitiesSchemaE0B7_
FN:301,_RNCINvMNtCsfZPcC2TrjjJ_17cedar_policy_core8entitiesNtB5_8Entities13from_entitiesINtNtCsiTraAjBDcu4_5alloc3vec3VecNtNtNtB7_3ast6entity6EntityENtNtB5_26schema_based_parsing_tests10MockSchemaE0B7_
FN:301,_RNCINvMNtCsfZPcC2TrjjJ_17cedar_policy_core8entitiesNtB5_8Entities13from_entitiesINtNtCsiTraAjBDcu4_5alloc3vec3VecNtNtNtB7_3ast6entity6EntityENtNtB5_26schema_based_parsing_tests16MockSchemaNoTagsE0B7_
FN:301,_RNCINvMNtCsfZPcC2TrjjJ_17cedar_policy_core8entitiesNtB5_8Entities13from_entitiesINtNtCsiTraAjBDcu4_5alloc3vec3VecNtNtNtB7_3ast6entity6EntityENtNtNtB5_4json6schema16NoEntitiesSchemaE0B7_
FN:301,_RNCINvMNtCsfZPcC2TrjjJ_17cedar_policy_core8entitiesNtB5_8Entities13from_entitiesINtNtCsiTraAjBDcu4_5alloc3vec3VecNtNtNtB7_3ast6entity6EntityENtNtNtB7_9validator10coreschema10CoreSchemaE0B7_
FN:301,_RNCINvMNtCsfZPcC2TrjjJ_17cedar_policy_core8entitiesNtB5_8Entities13from_entitiesINtNtCsiTraAjBDcu4_5alloc3vec3VecNtNtNtB7_3ast6entity6EntityENtNvNtB5_26schema_based_parsing_testss_10namespaces10MockSchemaE0B7_
FN:301,_RNCINvMNtCsfZPcC2TrjjJ_17cedar_policy_core8entitiesNtB5_8Entities13from_entitiesINtNtCsiTraAjBDcu4_5alloc3vec3VecNtNtNtB7_3ast6entity6EntityENtNvNtB5_26schema_based_parsing_testss_19enumerated_entities10MockSchemaE0B7_
FN:301,_RNCINvMNtCsfZPcC2TrjjJ_17cedar_policy_core8entitiesNtB5_8Entities13from_entitiesINtNtNtNtCsaNl6UpbT7bw_4core4iter8adapters3map3MapINtNtNtNtCsht3nMU9UgFu_3std11collections4hash3map6ValuesNtNtNtB7_3ast6entity9EntityUIDINtNtCsiTraAjBDcu4_5alloc4sync3ArcNtB30_6EntityEENCNvMs5_NtNtB7_9validator6schemaNtB4n_15ValidatorSchema15action_entities0ENtNtNtB5_4json6schema16NoEntitiesSchemaE0B7_
FN:223,_RNCINvMNtCsfZPcC2TrjjJ_17cedar_policy_core8entitiesNtB5_8Entities15upsert_entitiesINtNtCsiTraAjBDcu4_5alloc3vec3VecINtNtB1n_4sync3ArcNtNtNtB7_3ast6entity6EntityEENtNtNtB5_4json6schema16NoEntitiesSchemaE0B7_
FN:129,_RNCNCNvMNtCsfZPcC2TrjjJ_17cedar_policy_core8entitiesNtB6_8Entities7deep_eq00B8_
FN:112,_RNCNvMNtCsfZPcC2TrjjJ_17cedar_policy_core8entitiesNtB4_8Entities4iter0B6_
FN:125,_RNCNvMNtCsfZPcC2TrjjJ_17cedar_policy_core8entitiesNtB4_8Entities7deep_eq0B6_
FN:543,_RNvMs1_NtCsfZPcC2TrjjJ_17cedar_policy_core8entitiesINtB5_11DereferenceNtNtNtB7_3ast6entity6EntityE6expectB7_
FN:522,_RNvMs1_NtCsfZPcC2TrjjJ_17cedar_policy_core8entitiesINtB5_11DereferenceNtNtNtB7_3ast6entity6EntityE6unwrapB7_
FN:1111,_RNCNvNtNtCsfZPcC2TrjjJ_17cedar_policy_core8entities18json_parsing_tests15simple_entities0B7_
FN:883,_RNCNvNtNtCsfZPcC2TrjjJ_17cedar_policy_core8entities18json_parsing_testss_10adds_works0B7_
FN:1470,_RNCNvNtNtCsfZPcC2TrjjJ_17cedar_policy_core8entities18json_parsing_testss_12more_escapes0B7_
FN:842,_RNCNvNtNtCsfZPcC2TrjjJ_17cedar_policy_core8entities18json_parsing_testss_15adds_extends_tc0B7_
FN:606,_RNCNvNtNtCsfZPcC2TrjjJ_17cedar_policy_core8entities18json_parsing_testss_18simple_json_parse10B7_
FN:760,_RNCNvNtNtCsfZPcC2TrjjJ_17cedar_policy_core8entities18json_parsing_testss_19enforces_tc_success0B7_
FN:2119,_RNCNvNtNtCsfZPcC2TrjjJ_17cedar_policy_core8entities18json_parsing_testss_21not_bad_action_parent0B7_
FN:977,_RNCNvNtNtCsfZPcC2TrjjJ_17cedar_policy_core8entities18json_parsing_testss_24add_consistent_duplicate0B7_
FN:985,_RNCNvNtNtCsfZPcC2TrjjJ_17cedar_policy_core8entities18json_parsing_testss_24add_consistent_duplicates_0B7_
FN:1016,_RNCNvNtNtCsfZPcC2TrjjJ_17cedar_policy_core8entities18json_parsing_testss_26add_inconsistent_duplicate0B7_
FN:1024,_RNCNvNtNtCsfZPcC2TrjjJ_17cedar_policy_core8entities18json_parsing_testss_26add_inconsistent_duplicates_0B7_
FN:800,_RNCNvNtNtCsfZPcC2TrjjJ_17cedar_policy_core8entities18json_parsing_testss_26adds_extends_tc_connecting0B7_
FN:676,_RNCNvNtNtCsfZPcC2TrjjJ_17cedar_policy_core8entities18json_parsing_testss_27enforces_tc_fail_connecting0B7_
FN:635,_RNCNvNtNtCsfZPcC2TrjjJ_17cedar_policy_core8entities18json_parsing_testss_29enforces_tc_fail_cycle_almost0B7_
FN:716,_RNCNvNtNtCsfZPcC2TrjjJ_17cedar_policy_core8entities18json_parsing_testss_29enforces_tc_fail_missing_edge0B7_
FN:1561,_RNCNvNtNtCsfZPcC2TrjjJ_17cedar_policy_core8entities18json_parsing_testss_29implicit_and_explicit_escapes0B7_
FN:912,_RNCNvNtNtCsfZPcC2TrjjJ_17cedar_policy_core8entities18json_parsing_testss_37add_consistent_duplicates_in_iterator0B7_
FN:948,_RNCNvNtNtCsfZPcC2TrjjJ_17cedar_policy_core8entities18json_parsing_testss_39add_inconsistent_duplicates_in_iterator0B7_
FN:1238,_RNCNvNtNtCsfZPcC2TrjjJ_17cedar_policy_core8entities18json_parsing_testss_5basic0B7_
FN:3792,_RNvNtNtCsfZPcC2TrjjJ_17cedar_policy_core8entities26schema_based_parsing_testss_10namespaces
FN:3535,_RNvNtNtCsfZPcC2TrjjJ_17cedar_policy_core8entities26schema_based_parsing_testss_17undeclared_action
FN:3459,_RNvNtNtCsfZPcC2TrjjJ_17cedar_policy_core8entities26schema_based_parsing_testss_18parents_wrong_type
FN:3960,_RNvNtNtCsfZPcC2TrjjJ_17cedar_policy_core8entities26schema_based_parsing_testss_19enumerated_entities
FN:3109,_RNvNtNtCsfZPcC2TrjjJ_17cedar_policy_core8entities26schema_based_parsing_testss_19missing_record_attr
FN:3234,_RNvNtNtCsfZPcC2TrjjJ_17cedar_policy_core8entities26schema_based_parsing_testss_20type_mismatch_in_tag
FN:3596,_RNvNtNtCsfZPcC2TrjjJ_17cedar_policy_core8entities26schema_based_parsing_testss_21action_attr_wrong_val
FN:3334,_RNvNtNtCsfZPcC2TrjjJ_17cedar_policy_core8entities26schema_based_parsing_testss_21missing_required_attr
FN:3427,_RNvNtNtCsfZPcC2TrjjJ_17cedar_policy_core8entities26schema_based_parsing_testss_21unexpected_entity_tag
FN:3629,_RNvNtNtCsfZPcC2TrjjJ_17cedar_policy_core8entities26schema_based_parsing_testss_22action_attr_wrong_type
FN:3507,_RNvNtNtCsfZPcC2TrjjJ_17cedar_policy_core8entities26schema_based_parsing_testss_22undeclared_entity_type
FN:3380,_RNvNtNtCsfZPcC2TrjjJ_17cedar_policy_core8entities26schema_based_parsing_testss_22unexpected_entity_attr
FN:3286,_RNvNtNtCsfZPcC2TrjjJ_17cedar_policy_core8entities26schema_based_parsing_testss_22unexpected_record_attr
FN:2671,_RNvNtNtCsfZPcC2TrjjJ_17cedar_policy_core8entities26schema_based_parsing_testss_23with_and_without_schema
FN:2971,_RNvNtNtCsfZPcC2TrjjJ_17cedar_policy_core8entities26schema_based_parsing_testss_25type_mismatch_set_element
FN:2876,_RNvNtNtCsfZPcC2TrjjJ_17cedar_policy_core8entities26schema_based_parsing_testss_25type_mismatch_string_long
FN:3015,_RNvNtNtCsfZPcC2TrjjJ_17cedar_policy_core8entities26schema_based_parsing_testss_26type_mismatch_entity_types
FN:3662,_RNvNtNtCsfZPcC2TrjjJ_17cedar_policy_core8entities26schema_based_parsing_testss_27action_attr_missing_in_json
FN:3563,_RNvNtNtCsfZPcC2TrjjJ_17cedar_policy_core8entities26schema_based_parsing_testss_27action_declared_both_places
FN:2923,_RNvNtNtCsfZPcC2TrjjJ_17cedar_policy_core8entities26schema_based_parsing_testss_27type_mismatch_entity_record
FN:3156,_RNvNtNtCsfZPcC2TrjjJ_17cedar_policy_core8entities26schema_based_parsing_testss_28type_mismatch_in_record_attr
FN:3693,_RNvNtNtCsfZPcC2TrjjJ_17cedar_policy_core8entities26schema_based_parsing_testss_29action_attr_missing_in_schema
FN:3727,_RNvNtNtCsfZPcC2TrjjJ_17cedar_policy_core8entities26schema_based_parsing_testss_29action_parent_missing_in_json
FN:3063,_RNvNtNtCsfZPcC2TrjjJ_17cedar_policy_core8entities26schema_based_parsing_testss_29type_mismatch_extension_types
FN:3758,_RNvNtNtCsfZPcC2TrjjJ_17cedar_policy_core8entities26schema_based_parsing_testss_31action_parent_missing_in_schema
FN:2490,_RNvXNtNtCsfZPcC2TrjjJ_17cedar_policy_core8entities26schema_based_parsing_testsNtB2_10MockSchemaNtNtNtB4_4json6schema6Schema11entity_type
FN:2523,_RNvXNtNtCsfZPcC2TrjjJ_17cedar_policy_core8entities26schema_based_parsing_testsNtB2_10MockSchemaNtNtNtB4_4json6schema6Schema15action_entities
FN:2509,_RNvXNtNtCsfZPcC2TrjjJ_17cedar_policy_core8entities26schema_based_parsing_testsNtB2_10MockSchemaNtNtNtB4_4json6schema6Schema26entity_types_with_basename
FN:2496,_RNvXNtNtCsfZPcC2TrjjJ_17cedar_policy_core8entities26schema_based_parsing_testsNtB2_10MockSchemaNtNtNtB4_4json6schema6Schema6action
FN:3799,_RNvXNvNtNtCsfZPcC2TrjjJ_17cedar_policy_core8entities26schema_based_parsing_testss_10namespacesNtB2_10MockSchemaNtNtNtB6_4json6schema6Schema11entity_type
FN:3820,_RNvXNvNtNtCsfZPcC2TrjjJ_17cedar_policy_core8entities26schema_based_parsing_testss_10namespacesNtB2_10MockSchemaNtNtNtB6_4json6schema6Schema15action_entities
FN:3809,_RNvXNvNtNtCsfZPcC2TrjjJ_17cedar_policy_core8entities26schema_based_parsing_testss_10namespacesNtB2_10MockSchemaNtNtNtB6_4json6schema6Schema26entity_types_with_basename
FN:3806,_RNvXNvNtNtCsfZPcC2TrjjJ_17cedar_policy_core8entities26schema_based_parsing_testss_10namespacesNtB2_10MockSchemaNtNtNtB6_4json6schema6Schema6action
FN:3976,_RNvXNvNtNtCsfZPcC2TrjjJ_17cedar_policy_core8entities26schema_based_parsing_testss_19enumerated_entitiesNtB2_19StarTypeDescriptionNtNtNtB6_4json6schema21EntityTypeDescription14required_attrs
FN:3984,_RNvXNvNtNtCsfZPcC2TrjjJ_17cedar_policy_core8entities26schema_based_parsing_testss_19enumerated_entitiesNtB2_19StarTypeDescriptionNtNtNtB6_4json6schema21EntityTypeDescription15open_attributes
FN:3988,_RNvXNvNtNtCsfZPcC2TrjjJ_17cedar_policy_core8entities26schema_based_parsing_testss_19enumerated_entitiesNtB2_19StarTypeDescriptionNtNtNtB6_4json6schema21EntityTypeDescription16enum_entity_eids
FN:3980,_RNvXNvNtNtCsfZPcC2TrjjJ_17cedar_policy_core8entities26schema_based_parsing_testss_19enumerated_entitiesNtB2_19StarTypeDescriptionNtNtNtB6_4json6schema21EntityTypeDescription20allowed_parent_types
FN:3972,_RNvXNvNtNtCsfZPcC2TrjjJ_17cedar_policy_core8entities26schema_based_parsing_testss_19enumerated_entitiesNtB2_19StarTypeDescriptionNtNtNtB6_4json6schema21EntityTypeDescription8tag_type
FN:3968,_RNvXNvNtNtCsfZPcC2TrjjJ_17cedar_policy_core8entities26schema_based_parsing_testss_19enumerated_entitiesNtB2_19StarTypeDescriptionNtNtNtB6_4json6schema21EntityTypeDescription9attr_type
FN:2572,_RNvXs0_NtNtCsfZPcC2TrjjJ_17cedar_policy_core8entities26schema_based_parsing_testsNtB5_23MockEmployeeDescriptionNtNtNtB7_4json6schema21EntityTypeDescription11entity_type
FN:2641,_RNvXs0_NtNtCsfZPcC2TrjjJ_17cedar_policy_core8entities26schema_based_parsing_testsNtB5_23MockEmployeeDescriptionNtNtNtB7_4json6schema21EntityTypeDescription14required_attrs
FN:2663,_RNvXs0_NtNtCsfZPcC2TrjjJ_17cedar_policy_core8entities26schema_based_parsing_testsNtB5_23MockEmployeeDescriptionNtNtNtB7_4json6schema21EntityTypeDescription15open_attributes
FN:2569,_RNvXs0_NtNtCsfZPcC2TrjjJ_17cedar_policy_core8entities26schema_based_parsing_testsNtB5_23MockEmployeeDescriptionNtNtNtB7_4json6schema21EntityTypeDescription16enum_entity_eids
FN:2659,_RNvXs0_NtNtCsfZPcC2TrjjJ_17cedar_policy_core8entities26schema_based_parsing_testsNtB5_23MockEmployeeDescriptionNtNtNtB7_4json6schema21EntityTypeDescription20allowed_parent_types
FN:2635,_RNvXs0_NtNtCsfZPcC2TrjjJ_17cedar_policy_core8entities26schema_based_parsing_testsNtB5_23MockEmployeeDescriptionNtNtNtB7_4json6schema21EntityTypeDescription8tag_type
FN:2576,_RNvXs0_NtNtCsfZPcC2TrjjJ_17cedar_policy_core8entities26schema_based_parsing_testsNtB5_23MockEmployeeDescriptionNtNtNtB7_4json6schema21EntityTypeDescription9attr_type
FN:2533,_RNvXs_NtNtCsfZPcC2TrjjJ_17cedar_policy_core8entities26schema_based_parsing_testsNtB4_16MockSchemaNoTagsNtNtNtB6_4json6schema6Schema11entity_type
FN:2561,_RNvXs_NtNtCsfZPcC2TrjjJ_17cedar_policy_core8entities26schema_based_parsing_testsNtB4_16MockSchemaNoTagsNtNtNtB6_4json6schema6Schema15action_entities
FN:2547,_RNvXs_NtNtCsfZPcC2TrjjJ_17cedar_policy_core8entities26schema_based_parsing_testsNtB4_16MockSchemaNoTagsNtNtNtB6_4json6schema6Schema26entity_types_with_basename
FN:2539,_RNvXs_NtNtCsfZPcC2TrjjJ_17cedar_policy_core8entities26schema_based_parsing_testsNtB4_16MockSchemaNoTagsNtNtNtB6_4json6schema6Schema6action
FN:3830,_RNvXs_NvNtNtCsfZPcC2TrjjJ_17cedar_policy_core8entities26schema_based_parsing_testss_10namespacesNtB4_23MockEmployeeDescriptionNtNtNtB8_4json6schema21EntityTypeDescription11entity_type
FN:3849,_RNvXs_NvNtNtCsfZPcC2TrjjJ_17cedar_policy_core8entities26schema_based_parsing_testss_10namespacesNtB4_23MockEmployeeDescriptionNtNtNtB8_4json6schema21EntityTypeDescription14required_attrs
FN:3861,_RNvXs_NvNtNtCsfZPcC2TrjjJ_17cedar_policy_core8entities26schema_based_parsing_testss_10namespacesNtB4_23MockEmployeeDescriptionNtNtNtB8_4json6schema21EntityTypeDescription15open_attributes
FN:3827,_RNvXs_NvNtNtCsfZPcC2TrjjJ_17cedar_policy_core8entities26schema_based_parsing_testss_10namespacesNtB4_23MockEmployeeDescriptionNtNtNtB8_4json6schema21EntityTypeDescription16enum_entity_eids
FN:3857,_RNvXs_NvNtNtCsfZPcC2TrjjJ_17cedar_policy_core8entities26schema_based_parsing_testss_10namespacesNtB4_23MockEmployeeDescriptionNtNtNtB8_4json6schema21EntityTypeDescription20allowed_parent_types
FN:3845,_RNvXs_NvNtNtCsfZPcC2TrjjJ_17cedar_policy_core8entities26schema_based_parsing_testss_10namespacesNtB4_23MockEmployeeDescriptionNtNtNtB8_4json6schema21EntityTypeDescription8tag_type
FN:3834,_RNvXs_NvNtNtCsfZPcC2TrjjJ_17cedar_policy_core8entities26schema_based_parsing_testss_10namespacesNtB4_23MockEmployeeDescriptionNtNtNtB8_4json6schema21EntityTypeDescription9attr_type
FN:3997,_RNvXs_NvNtNtCsfZPcC2TrjjJ_17cedar_policy_core8entities26schema_based_parsing_testss_19enumerated_entitiesNtB4_10MockSchemaNtNtNtB8_4json6schema6Schema11entity_type
FN:4020,_RNvXs_NvNtNtCsfZPcC2TrjjJ_17cedar_policy_core8entities26schema_based_parsing_testss_19enumerated_entitiesNtB4_10MockSchemaNtNtNtB8_4json6schema6Schema15action_entities
FN:4009,_RNvXs_NvNtNtCsfZPcC2TrjjJ_17cedar_policy_core8entities26schema_based_parsing_testss_19enumerated_entitiesNtB4_10MockSchemaNtNtNtB8_4json6schema6Schema26entity_types_with_basename
FN:4005,_RNvXs_NvNtNtCsfZPcC2TrjjJ_17cedar_policy_core8entities26schema_based_parsing_testss_19enumerated_entitiesNtB4_10MockSchemaNtNtNtB8_4json6schema6Schema6action
FN:1930,_RNvNtNtCsfZPcC2TrjjJ_17cedar_policy_core8entities18json_parsing_tests13test_entities
FN:1074,_RNvNtNtCsfZPcC2TrjjJ_17cedar_policy_core8entities18json_parsing_tests15simple_entities
FN:1115,_RNvNtNtCsfZPcC2TrjjJ_17cedar_policy_core8entities18json_parsing_tests26simple_entities_still_sane
FN:1921,_RNvNtNtCsfZPcC2TrjjJ_17cedar_policy_core8entities18json_parsing_tests9roundtrip
FN:860,_RNvNtNtCsfZPcC2TrjjJ_17cedar_policy_core8entities18json_parsing_testss_10adds_works
FN:1426,_RNvNtNtCsfZPcC2TrjjJ_17cedar_policy_core8entities18json_parsing_testss_12more_escapes
FN:1583,_RNvNtNtCsfZPcC2TrjjJ_17cedar_policy_core8entities18json_parsing_testss_12uid_failures
FN:1678,_RNvNtNtCsfZPcC2TrjjJ_17cedar_policy_core8entities18json_parsing_testss_13null_failures
FN:2124,_RNvNtNtCsfZPcC2TrjjJ_17cedar_policy_core8entities18json_parsing_testss_14duplicate_keys
FN:819,_RNvNtNtCsfZPcC2TrjjJ_17cedar_policy_core8entities18json_parsing_testss_15adds_extends_tc
FN:1246,_RNvNtNtCsfZPcC2TrjjJ_17cedar_policy_core8entities18json_parsing_testss_16no_expr_escapes1
FN:1280,_RNvNtNtCsfZPcC2TrjjJ_17cedar_policy_core8entities18json_parsing_testss_16no_expr_escapes2
FN:1317,_RNvNtNtCsfZPcC2TrjjJ_17cedar_policy_core8entities18json_parsing_testss_16no_expr_escapes3
FN:1354,_RNvNtNtCsfZPcC2TrjjJ_17cedar_policy_core8entities18json_parsing_testss_16no_expr_escapes4
FN:1389,_RNvNtNtCsfZPcC2TrjjJ_17cedar_policy_core8entities18json_parsing_testss_16no_expr_escapes5
FN:2073,_RNvNtNtCsfZPcC2TrjjJ_17cedar_policy_core8entities18json_parsing_testss_17bad_action_parent
FN:1942,_RNvNtNtCsfZPcC2TrjjJ_17cedar_policy_core8entities18json_parsing_testss_18json_roundtripping
FN:592,_RNvNtNtCsfZPcC2TrjjJ_17cedar_policy_core8entities18json_parsing_testss_18simple_json_parse1
FN:735,_RNvNtNtCsfZPcC2TrjjJ_17cedar_policy_core8entities18json_parsing_testss_19enforces_tc_success
FN:2103,_RNvNtNtCsfZPcC2TrjjJ_17cedar_policy_core8entities18json_parsing_testss_21not_bad_action_parent
FN:1068,_RNvNtNtCsfZPcC2TrjjJ_17cedar_policy_core8entities18json_parsing_testss_23simple_entities_correct
FN:968,_RNvNtNtCsfZPcC2TrjjJ_17cedar_policy_core8entities18json_parsing_testss_24add_consistent_duplicate
FN:2158,_RNvNtNtCsfZPcC2TrjjJ_17cedar_policy_core8entities18json_parsing_testss_24multi_arg_ext_func_calls
FN:1007,_RNvNtNtCsfZPcC2TrjjJ_17cedar_policy_core8entities18json_parsing_testss_26add_inconsistent_duplicate
FN:779,_RNvNtNtCsfZPcC2TrjjJ_17cedar_policy_core8entities18json_parsing_testss_26adds_extends_tc_connecting
FN:2202,_RNvNtNtCsfZPcC2TrjjJ_17cedar_policy_core8entities18json_parsing_testss_26serialize_unknown_no_error
FN:655,_RNvNtNtCsfZPcC2TrjjJ_17cedar_policy_core8entities18json_parsing_testss_27enforces_tc_fail_connecting
FN:610,_RNvNtNtCsfZPcC2TrjjJ_17cedar_policy_core8entities18json_parsing_testss_29enforces_tc_fail_cycle_almost
FN:695,_RNvNtNtCsfZPcC2TrjjJ_17cedar_policy_core8entities18json_parsing_testss_29enforces_tc_fail_missing_edge
FN:1512,_RNvNtNtCsfZPcC2TrjjJ_17cedar_policy_core8entities18json_parsing_testss_29implicit_and_explicit_escapes
FN:1040,_RNvNtNtCsfZPcC2TrjjJ_17cedar_policy_core8entities18json_parsing_testss_31add_inconsistent_duplicate_tags
FN:902,_RNvNtNtCsfZPcC2TrjjJ_17cedar_policy_core8entities18json_parsing_testss_37add_consistent_duplicates_in_iterator
FN:937,_RNvNtNtCsfZPcC2TrjjJ_17cedar_policy_core8entities18json_parsing_testss_39add_inconsistent_duplicates_in_iterator
FN:1185,_RNvNtNtCsfZPcC2TrjjJ_17cedar_policy_core8entities18json_parsing_testss_5basic
FN:326,_RNvMNtCsfZPcC2TrjjJ_17cedar_policy_core8entitiesNtB2_8Entities13to_json_value
FN:311,_RNvMNtCsfZPcC2TrjjJ_17cedar_policy_core8entitiesNtB2_8Entities3len
FN:65,_RNvMNtCsfZPcC2TrjjJ_17cedar_policy_core8entitiesNtB2_8Entities3new
FN:111,_RNvMNtCsfZPcC2TrjjJ_17cedar_policy_core8entitiesNtB2_8Entities4iter
FN:94,_RNvMNtCsfZPcC2TrjjJ_17cedar_policy_core8entitiesNtB2_8Entities6entity
FN:120,_RNvMNtCsfZPcC2TrjjJ_17cedar_policy_core8entitiesNtB2_8Entities7deep_eq
FN:316,_RNvMNtCsfZPcC2TrjjJ_17cedar_policy_core8entitiesNtB2_8Entities8is_empty
FN:347,_RNvMNtCsfZPcC2TrjjJ_17cedar_policy_core8entitiesNtB2_8Entities9to_ejsons
FN:443,_RNvNtCsfZPcC2TrjjJ_17cedar_policy_core8entities17update_entity_map
FNDA:0,_RNCNvNtNtCsfZPcC2TrjjJ_17cedar_policy_core8entities26schema_based_parsing_testss_10namespaces0B7_
FNDA:0,_RNCNvNtNtCsfZPcC2TrjjJ_17cedar_policy_core8entities26schema_based_parsing_testss_23with_and_without_schema0B7_
FNDA:1,_RNCNvNtNtCsfZPcC2TrjjJ_17cedar_policy_core8entities26schema_based_parsing_testss_23with_and_without_schemas0_0B7_
FNDA:3,_RNCNvNtNtCsfZPcC2TrjjJ_17cedar_policy_core8entities26schema_based_parsing_testss_23with_and_without_schemas1_0B7_
FNDA:1,_RNCNvNtNtCsfZPcC2TrjjJ_17cedar_policy_core8entities26schema_based_parsing_testss_23with_and_without_schemas2_0B7_
FNDA:1,_RNCNvNtNtCsfZPcC2TrjjJ_17cedar_policy_core8entities26schema_based_parsing_testss_23with_and_without_schemas3_0B7_
FNDA:3,_RNCNvNtNtCsfZPcC2TrjjJ_17cedar_policy_core8entities26schema_based_parsing_testss_23with_and_without_schemas4_0B7_
FNDA:1,_RNCNvNtNtCsfZPcC2TrjjJ_17cedar_policy_core8entities26schema_based_parsing_testss_23with_and_without_schemas5_0B7_
FNDA:0,_RNCNvNtNtCsfZPcC2TrjjJ_17cedar_policy_core8entities26schema_based_parsing_testss_23with_and_without_schemas_0B7_
FNDA:0,_RNCNvNtNtCsfZPcC2TrjjJ_17cedar_policy_core8entities26schema_based_parsing_testss_27action_declared_both_places0B7_
FNDA:0,_RNCNvNtNtCsfZPcC2TrjjJ_17cedar_policy_core8entities26schema_based_parsing_testss_28type_mismatch_in_record_attr0B7_
FNDA:34,_RNCNvXs0_NtNtCsfZPcC2TrjjJ_17cedar_policy_core8entities26schema_based_parsing_testsNtB7_23MockEmployeeDescriptionNtNtNtB9_4json6schema21EntityTypeDescription9attr_type0Bb_
FNDA:17,_RNCNvXs0_NtNtCsfZPcC2TrjjJ_17cedar_policy_core8entities26schema_based_parsing_testsNtB7_23MockEmployeeDescriptionNtNtNtB9_4json6schema21EntityTypeDescription9attr_types_0Bb_
FNDA:0,_RINvMNtCsfZPcC2TrjjJ_17cedar_policy_core8entitiesNtB3_8Entities10to_dot_strpEB5_
FNDA:0,_RINvNvMNtCsfZPcC2TrjjJ_17cedar_policy_core8entitiesNtB5_8Entities10to_dot_str9to_dot_idppEB7_
FNDA:0,_RNvMNtCsfZPcC2TrjjJ_17cedar_policy_core8entitiesNtB2_8Entities10is_partial
FNDA:0,_RNvMNtCsfZPcC2TrjjJ_17cedar_policy_core8entitiesNtB2_8Entities27get_entities_by_entity_type
FNDA:0,_RNvXNvNtNtCsfZPcC2TrjjJ_17cedar_policy_core8entities26schema_based_parsing_testss_19enumerated_entitiesNtB2_19StarTypeDescriptionNtNtNtB6_4json6schema21EntityTypeDescription11entity_type
FNDA:0,_RNvXs0_NtCsfZPcC2TrjjJ_17cedar_policy_core8entitiesNtB5_8EntitiesNtNtCsaNl6UpbT7bw_4core3fmt7Display3fmt
FNDA:0,_RNvXs_NtCsfZPcC2TrjjJ_17cedar_policy_core8entitiesNtB4_8EntitiesNtNtNtNtCsaNl6UpbT7bw_4core4iter6traits7collect12IntoIterator9into_iter
FNDA:2,_RNvNtNtCsfZPcC2TrjjJ_17cedar_policy_core8entities14entities_tests13test_entities
FNDA:1,_RNvNtNtCsfZPcC2TrjjJ_17cedar_policy_core8entities14entities_testss_13test_is_empty
FNDA:1,_RNvNtNtCsfZPcC2TrjjJ_17cedar_policy_core8entities14entities_testss_14empty_entities
FNDA:1,_RNvNtNtCsfZPcC2TrjjJ_17cedar_policy_core8entities14entities_testss_20test_remove_entities
FNDA:1,_RNvNtNtCsfZPcC2TrjjJ_17cedar_policy_core8entities14entities_testss_20test_upsert_entities
FNDA:1,_RNvNtNtCsfZPcC2TrjjJ_17cedar_policy_core8entities14entities_testss_34test_enforce_already_computed_fail
FNDA:1,_RNvNtNtCsfZPcC2TrjjJ_17cedar_policy_core8entities14entities_testss_37test_enforce_already_computed_succeed
FNDA:1,_RNvNtNtCsfZPcC2TrjjJ_17cedar_policy_core8entities14entities_testss_8test_len
FNDA:1,_RNvNtNtCsfZPcC2TrjjJ_17cedar_policy_core8entities14entities_testss_9test_iter
FNDA:1,_RINvMNtCsfZPcC2TrjjJ_17cedar_policy_core8entitiesNtB3_8Entities12add_entitiesAINtNtCsiTraAjBDcu4_5alloc4sync3ArcNtNtNtB5_3ast6entity6EntityEj1_NtNtNtB3_4json6schema16NoEntitiesSchemaEB5_
FNDA:11,_RINvMNtCsfZPcC2TrjjJ_17cedar_policy_core8entitiesNtB3_8Entities12add_entitiesINtNtNtNtCsaNl6UpbT7bw_4core4iter8adapters3map3MapINtNtNtCsiTraAjBDcu4_5alloc3vec9into_iter8IntoIterNtNtNtB5_3ast6entity6EntityENvMsc_NtB28_4syncINtB3n_3ArcB2P_E3newENtNtNtB3_4json6schema16NoEntitiesSchemaEB5_
FNDA:2,_RINvMNtCsfZPcC2TrjjJ_17cedar_policy_core8entitiesNtB3_8Entities13from_entitiesANtNtNtB5_3ast6entity6Entityj1_NtNtNtB3_4json6schema16NoEntitiesSchemaEB5_
FNDA:2,_RINvMNtCsfZPcC2TrjjJ_17cedar_policy_core8entitiesNtB3_8Entities13from_entitiesANtNtNtB5_3ast6entity6Entityj3_NtNtNtB3_4json6schema16NoEntitiesSchemaEB5_
FNDA:1,_RINvMNtCsfZPcC2TrjjJ_17cedar_policy_core8entitiesNtB3_8Entities13from_entitiesANtNtNtB5_3ast6entity6Entityj4_NtNtNtB3_4json6schema16NoEntitiesSchemaEB5_
FNDA:16,_RINvMNtCsfZPcC2TrjjJ_17cedar_policy_core8entitiesNtB3_8Entities13from_entitiesINtNtCsiTraAjBDcu4_5alloc3vec3VecNtNtNtB5_3ast6entity6EntityENtNtB3_26schema_based_parsing_tests10MockSchemaEB5_
FNDA:0,_RINvMNtCsfZPcC2TrjjJ_17cedar_policy_core8entitiesNtB3_8Entities13from_entitiesINtNtCsiTraAjBDcu4_5alloc3vec3VecNtNtNtB5_3ast6entity6EntityENtNtB3_26schema_based_parsing_tests16MockSchemaNoTagsEB5_
FNDA:77,_RINvMNtCsfZPcC2TrjjJ_17cedar_policy_core8entitiesNtB3_8Entities13from_entitiesINtNtCsiTraAjBDcu4_5alloc3vec3VecNtNtNtB5_3ast6entity6EntityENtNtNtB3_4json6schema16NoEntitiesSchemaEB5_
FNDA:13,_RINvMNtCsfZPcC2TrjjJ_17cedar_policy_core8entitiesNtB3_8Entities13from_entitiesINtNtCsiTraAjBDcu4_5alloc3vec3VecNtNtNtB5_3ast6entity6EntityENtNtNtB5_9validator10coreschema10CoreSchemaEB5_
FNDA:2,_RINvMNtCsfZPcC2TrjjJ_17cedar_policy_core8entitiesNtB3_8Entities13from_entitiesINtNtCsiTraAjBDcu4_5alloc3vec3VecNtNtNtB5_3ast6entity6EntityENtNvNtB3_26schema_based_parsing_testss_10namespaces10MockSchemaEB5_
FNDA:2,_RINvMNtCsfZPcC2TrjjJ_17cedar_policy_core8entitiesNtB3_8Entities13from_entitiesINtNtCsiTraAjBDcu4_5alloc3vec3VecNtNtNtB5_3ast6entity6EntityENtNvNtB3_26schema_based_parsing_testss_19enumerated_entities10MockSchemaEB5_
FNDA:2,_RINvMNtCsfZPcC2TrjjJ_17cedar_policy_core8entitiesNtB3_8Entities13from_entitiesINtNtNtNtCsaNl6UpbT7bw_4core4iter8adapters3map3MapINtNtNtNtCsht3nMU9UgFu_3std11collections4hash3map6ValuesNtNtNtB5_3ast6entity9EntityUIDINtNtCsiTraAjBDcu4_5alloc4sync3ArcNtB2Y_6EntityEENCNvMs5_NtNtB5_9validator6schemaNtB4l_15ValidatorSchema15action_entities0ENtNtNtB3_4json6schema16NoEntitiesSchemaEB5_
FNDA:4,_RINvMNtCsfZPcC2TrjjJ_17cedar_policy_core8entitiesNtB3_8Entities13write_to_jsonQINtNtCsiTraAjBDcu4_5alloc3vec3VechEEB5_
FNDA:1,_RINvMNtCsfZPcC2TrjjJ_17cedar_policy_core8entitiesNtB3_8Entities15remove_entitiesINtNtCsiTraAjBDcu4_5alloc3vec3VecNtNtNtB5_3ast6entity9EntityUIDEEB5_
FNDA:1,_RINvMNtCsfZPcC2TrjjJ_17cedar_policy_core8entitiesNtB3_8Entities15upsert_entitiesINtNtCsiTraAjBDcu4_5alloc3vec3VecINtNtB1l_4sync3ArcNtNtNtB5_3ast6entity6EntityEENtNtNtB3_4json6schema16NoEntitiesSchemaEB5_
FNDA:2,_RINvNtCsfZPcC2TrjjJ_17cedar_policy_core8entities17create_entity_mapINtNtNtNtCsaNl6UpbT7bw_4core4iter8adapters3map3MapIB14_INtNtNtNtCsht3nMU9UgFu_3std11collections4hash3map6ValuesNtNtNtB4_3ast6entity9EntityUIDINtNtCsiTraAjBDcu4_5alloc4sync3ArcNtB2S_6EntityEENCNvMs5_NtNtB4_9validator6schemaNtB4f_15ValidatorSchema15action_entities0ENvMsc_B3n_B3k_3newEEB4_
FNDA:2,_RINvNtCsfZPcC2TrjjJ_17cedar_policy_core8entities17create_entity_mapINtNtNtNtCsaNl6UpbT7bw_4core4iter8adapters3map3MapINtNtNtB1c_5array4iter8IntoIterNtNtNtB4_3ast6entity6EntityKj1_ENvMsc_NtCsiTraAjBDcu4_5alloc4syncINtB2Y_3ArcB2m_E3newEEB4_
FNDA:2,_RINvNtCsfZPcC2TrjjJ_17cedar_policy_core8entities17create_entity_mapINtNtNtNtCsaNl6UpbT7bw_4core4iter8adapters3map3MapINtNtNtB1c_5array4iter8IntoIterNtNtNtB4_3ast6entity6EntityKj3_ENvMsc_NtCsiTraAjBDcu4_5alloc4syncINtB2Y_3ArcB2m_E3newEEB4_
FNDA:1,_RINvNtCsfZPcC2TrjjJ_17cedar_policy_core8entities17create_entity_mapINtNtNtNtCsaNl6UpbT7bw_4core4iter8adapters3map3MapINtNtNtB1c_5array4iter8IntoIterNtNtNtB4_3ast6entity6EntityKj4_ENvMsc_NtCsiTraAjBDcu4_5alloc4syncINtB2Y_3ArcB2m_E3newEEB4_
FNDA:110,_RINvNtCsfZPcC2TrjjJ_17cedar_policy_core8entities17create_entity_mapINtNtNtNtCsaNl6UpbT7bw_4core4iter8adapters3map3MapINtNtNtCsiTraAjBDcu4_5alloc3vec9into_iter8IntoIterNtNtNtB4_3ast6entity6EntityENvMsc_NtB1Y_4syncINtB3d_3ArcB2F_E3newEEB4_
FNDA:0,_RNCINvMNtCsfZPcC2TrjjJ_17cedar_policy_core8entitiesNtB5_8Entities12add_entitiesAINtNtCsiTraAjBDcu4_5alloc4sync3ArcNtNtNtB7_3ast6entity6EntityEj1_NtNtNtB5_4json6schema16NoEntitiesSchemaE0B7_
FNDA:0,_RNCINvMNtCsfZPcC2TrjjJ_17cedar_policy_core8entitiesNtB5_8Entities12add_entitiesINtNtNtNtCsaNl6UpbT7bw_4core4iter8adapters3map3MapINtNtNtCsiTraAjBDcu4_5alloc3vec9into_iter8IntoIterNtNtNtB7_3ast6entity6EntityENvMsc_NtB2a_4syncINtB3p_3ArcB2R_E3newENtNtNtB5_4json6schema16NoEntitiesSchemaE0B7_
FNDA:0,_RNCINvMNtCsfZPcC2TrjjJ_17cedar_policy_core8entitiesNtB5_8Entities13from_entitiesANtNtNtB7_3ast6entity6Entityj1_NtNtNtB5_4json6schema16NoEntitiesSchemaE0B7_
FNDA:0,_RNCINvMNtCsfZPcC2TrjjJ_17cedar_policy_core8entitiesNtB5_8Entities13from_entitiesANtNtNtB7_3ast6entity6Entityj3_NtNtNtB5_4json6schema16NoEntitiesSchemaE0B7_
FNDA:0,_RNCINvMNtCsfZPcC2TrjjJ_17cedar_policy_core8entitiesNtB5_8Entities13from_entitiesANtNtNtB7_3ast6entity6Entityj4_NtNtNtB5_4json6schema16NoEntitiesSchemaE0B7_
FNDA:0,_RNCINvMNtCsfZPcC2TrjjJ_17cedar_policy_core8entitiesNtB5_8Entities13from_entitiesINtNtCsiTraAjBDcu4_5alloc3vec3VecNtNtNtB7_3ast6entity6EntityENtNtB5_26schema_based_parsing_tests10MockSchemaE0B7_
FNDA:0,_RNCINvMNtCsfZPcC2TrjjJ_17cedar_policy_core8entitiesNtB5_8Entities13from_entitiesINtNtCsiTraAjBDcu4_5alloc3vec3VecNtNtNtB7_3ast6entity6EntityENtNtB5_26schema_based_parsing_tests16MockSchemaNoTagsE0B7_
FNDA:0,_RNCINvMNtCsfZPcC2TrjjJ_17cedar_policy_core8entitiesNtB5_8Entities13from_entitiesINtNtCsiTraAjBDcu4_5alloc3vec3VecNtNtNtB7_3ast6entity6EntityENtNtNtB5_4json6schema16NoEntitiesSchemaE0B7_
FNDA:19,_RNCINvMNtCsfZPcC2TrjjJ_17cedar_policy_core8entitiesNtB5_8Entities13from_entitiesINtNtCsiTraAjBDcu4_5alloc3vec3VecNtNtNtB7_3ast6entity6EntityENtNtNtB7_9validator10coreschema10CoreSchemaE0B7_
FNDA:0,_RNCINvMNtCsfZPcC2TrjjJ_17cedar_policy_core8entitiesNtB5_8Entities13from_entitiesINtNtCsiTraAjBDcu4_5alloc3vec3VecNtNtNtB7_3ast6entity6EntityENtNvNtB5_26schema_based_parsing_testss_10namespaces10MockSchemaE0B7_
FNDA:0,_RNCINvMNtCsfZPcC2TrjjJ_17cedar_policy_core8entitiesNtB5_8Entities13from_entitiesINtNtCsiTraAjBDcu4_5alloc3vec3VecNtNtNtB7_3ast6entity6EntityENtNvNtB5_26schema_based_parsing_testss_19enumerated_entities10MockSchemaE0B7_
FNDA:0,_RNCINvMNtCsfZPcC2TrjjJ_17cedar_policy_core8entitiesNtB5_8Entities13from_entitiesINtNtNtNtCsaNl6UpbT7bw_4core4iter8adapters3map3MapINtNtNtNtCsht3nMU9UgFu_3std11collections4hash3map6ValuesNtNtNtB7_3ast6entity9EntityUIDINtNtCsiTraAjBDcu4_5alloc4sync3ArcNtB30_6EntityEENCNvMs5_NtNtB7_9validator6schemaNtB4n_15ValidatorSchema15action_entities0ENtNtNtB5_4json6schema16NoEntitiesSchemaE0B7_
FNDA:0,_RNCINvMNtCsfZPcC2TrjjJ_17cedar_policy_core8entitiesNtB5_8Entities15upsert_entitiesINtNtCsiTraAjBDcu4_5alloc3vec3VecINtNtB1n_4sync3ArcNtNtNtB7_3ast6entity6EntityEENtNtNtB5_4json6schema16NoEntitiesSchemaE0B7_
FNDA:7,_RNCNCNvMNtCsfZPcC2TrjjJ_17cedar_policy_core8entitiesNtB6_8Entities7deep_eq00B8_
FNDA:8,_RNCNvMNtCsfZPcC2TrjjJ_17cedar_policy_core8entitiesNtB4_8Entities4iter0B6_
FNDA:7,_RNCNvMNtCsfZPcC2TrjjJ_17cedar_policy_core8entitiesNtB4_8Entities7deep_eq0B6_
FNDA:3,_RNvMs1_NtCsfZPcC2TrjjJ_17cedar_policy_core8entitiesINtB5_11DereferenceNtNtNtB7_3ast6entity6EntityE6expectB7_
FNDA:34,_RNvMs1_NtCsfZPcC2TrjjJ_17cedar_policy_core8entitiesINtB5_11DereferenceNtNtNtB7_3ast6entity6EntityE6unwrapB7_
FNDA:0,_RNCNvNtNtCsfZPcC2TrjjJ_17cedar_policy_core8entities18json_parsing_tests15simple_entities0B7_
FNDA:0,_RNCNvNtNtCsfZPcC2TrjjJ_17cedar_policy_core8entities18json_parsing_testss_10adds_works0B7_
FNDA:0,_RNCNvNtNtCsfZPcC2TrjjJ_17cedar_policy_core8entities18json_parsing_testss_12more_escapes0B7_
FNDA:0,_RNCNvNtNtCsfZPcC2TrjjJ_17cedar_policy_core8entities18json_parsing_testss_15adds_extends_tc0B7_
FNDA:0,_RNCNvNtNtCsfZPcC2TrjjJ_17cedar_policy_core8entities18json_parsing_testss_18simple_json_parse10B7_
FNDA:0,_RNCNvNtNtCsfZPcC2TrjjJ_17cedar_policy_core8entities18json_parsing_testss_19enforces_tc_success0B7_
FNDA:0,_RNCNvNtNtCsfZPcC2TrjjJ_17cedar_policy_core8entities18json_parsing_testss_21not_bad_action_parent0B7_
FNDA:0,_RNCNvNtNtCsfZPcC2TrjjJ_17cedar_policy_core8entities18json_parsing_testss_24add_consistent_duplicate0B7_
FNDA:0,_RNCNvNtNtCsfZPcC2TrjjJ_17cedar_policy_core8entities18json_parsing_testss_24add_consistent_duplicates_0B7_
FNDA:0,_RNCNvNtNtCsfZPcC2TrjjJ_17cedar_policy_core8entities18json_parsing_testss_26add_inconsistent_duplicate0B7_
FNDA:0,_RNCNvNtNtCsfZPcC2TrjjJ_17cedar_policy_core8entities18json_parsing_testss_26add_inconsistent_duplicates_0B7_
FNDA:0,_RNCNvNtNtCsfZPcC2TrjjJ_17cedar_policy_core8entities18json_parsing_testss_26adds_extends_tc_connecting0B7_
FNDA:0,_RNCNvNtNtCsfZPcC2TrjjJ_17cedar_policy_core8entities18json_parsing_testss_27enforces_tc_fail_connecting0B7_
FNDA:0,_RNCNvNtNtCsfZPcC2TrjjJ_17cedar_policy_core8entities18json_parsing_testss_29enforces_tc_fail_cycle_almost0B7_
FNDA:0,_RNCNvNtNtCsfZPcC2TrjjJ_17cedar_policy_core8entities18json_parsing_testss_29enforces_tc_fail_missing_edge0B7_
FNDA:0,_RNCNvNtNtCsfZPcC2TrjjJ_17cedar_policy_core8entities18json_parsing_testss_29implicit_and_explicit_escapes0B7_
FNDA:0,_RNCNvNtNtCsfZPcC2TrjjJ_17cedar_policy_core8entities18json_parsing_testss_37add_consistent_duplicates_in_iterator0B7_
FNDA:0,_RNCNvNtNtCsfZPcC2TrjjJ_17cedar_policy_core8entities18json_parsing_testss_39add_inconsistent_duplicates_in_iterator0B7_
FNDA:0,_RNCNvNtNtCsfZPcC2TrjjJ_17cedar_policy_core8entities18json_parsing_testss_5basic0B7_
FNDA:1,_RNvNtNtCsfZPcC2TrjjJ_17cedar_policy_core8entities26schema_based_parsing_testss_10namespaces
FNDA:1,_RNvNtNtCsfZPcC2TrjjJ_17cedar_policy_core8entities26schema_based_parsing_testss_17undeclared_action
FNDA:1,_RNvNtNtCsfZPcC2TrjjJ_17cedar_policy_core8entities26schema_based_parsing_testss_18parents_wrong_type
FNDA:1,_RNvNtNtCsfZPcC2TrjjJ_17cedar_policy_core8entities26schema_based_parsing_testss_19enumerated_entities
FNDA:1,_RNvNtNtCsfZPcC2TrjjJ_17cedar_policy_core8entities26schema_based_parsing_testss_19missing_record_attr
FNDA:1,_RNvNtNtCsfZPcC2TrjjJ_17cedar_policy_core8entities26schema_based_parsing_testss_20type_mismatch_in_tag
FNDA:1,_RNvNtNtCsfZPcC2TrjjJ_17cedar_policy_core8entities26schema_based_parsing_testss_21action_attr_wrong_val
FNDA:1,_RNvNtNtCsfZPcC2TrjjJ_17cedar_policy_core8entities26schema_based_parsing_testss_21missing_required_attr
FNDA:1,_RNvNtNtCsfZPcC2TrjjJ_17cedar_policy_core8entities26schema_based_parsing_testss_21unexpected_entity_tag
FNDA:1,_RNvNtNtCsfZPcC2TrjjJ_17cedar_policy_core8entities26schema_based_parsing_testss_22action_attr_wrong_type
FNDA:1,_RNvNtNtCsfZPcC2TrjjJ_17cedar_policy_core8entities26schema_based_parsing_testss_22undeclared_entity_type
FNDA:1,_RNvNtNtCsfZPcC2TrjjJ_17cedar_policy_core8entities26schema_based_parsing_testss_22unexpected_entity_attr
FNDA:1,_RNvNtNtCsfZPcC2TrjjJ_17cedar_policy_core8entities26schema_based_parsing_testss_22unexpected_record_attr
FNDA:1,_RNvNtNtCsfZPcC2TrjjJ_17cedar_policy_core8entities26schema_based_parsing_testss_23with_and_without_schema
FNDA:1,_RNvNtNtCsfZPcC2TrjjJ_17cedar_policy_core8entities26schema_based_parsing_testss_25type_mismatch_set_element
FNDA:1,_RNvNtNtCsfZPcC2TrjjJ_17cedar_policy_core8entities26schema_based_parsing_testss_25type_mismatch_string_long
FNDA:1,_RNvNtNtCsfZPcC2TrjjJ_17cedar_policy_core8entities26schema_based_parsing_testss_26type_mismatch_entity_types
FNDA:1,_RNvNtNtCsfZPcC2TrjjJ_17cedar_policy_core8entities26schema_based_parsing_testss_27action_attr_missing_in_json
FNDA:1,_RNvNtNtCsfZPcC2TrjjJ_17cedar_policy_core8entities26schema_based_parsing_testss_27action_declared_both_places
FNDA:1,_RNvNtNtCsfZPcC2TrjjJ_17cedar_policy_core8entities26schema_based_parsing_testss_27type_mismatch_entity_record
FNDA:1,_RNvNtNtCsfZPcC2TrjjJ_17cedar_policy_core8entities26schema_based_parsing_testss_28type_mismatch_in_record_attr
FNDA:1,_RNvNtNtCsfZPcC2TrjjJ_17cedar_policy_core8entities26schema_based_parsing_testss_29action_attr_missing_in_schema
FNDA:1,_RNvNtNtCsfZPcC2TrjjJ_17cedar_policy_core8entities26schema_based_parsing_testss_29action_parent_missing_in_json
FNDA:1,_RNvNtNtCsfZPcC2TrjjJ_17cedar_policy_core8entities26schema_based_parsing_testss_29type_mismatch_extension_types
FNDA:1,_RNvNtNtCsfZPcC2TrjjJ_17cedar_policy_core8entities26schema_based_parsing_testss_31action_parent_missing_in_schema
FNDA:49,_RNvXNtNtCsfZPcC2TrjjJ_17cedar_policy_core8entities26schema_based_parsing_testsNtB2_10MockSchemaNtNtNtB4_4json6schema6Schema11entity_type
FNDA:3,_RNvXNtNtCsfZPcC2TrjjJ_17cedar_policy_core8entities26schema_based_parsing_testsNtB2_10MockSchemaNtNtNtB4_4json6schema6Schema15action_entities
FNDA:1,_RNvXNtNtCsfZPcC2TrjjJ_17cedar_policy_core8entities26schema_based_parsing_testsNtB2_10MockSchemaNtNtNtB4_4json6schema6Schema26entity_types_with_basename
FNDA:8,_RNvXNtNtCsfZPcC2TrjjJ_17cedar_policy_core8entities26schema_based_parsing_testsNtB2_10MockSchemaNtNtNtB4_4json6schema6Schema6action
FNDA:8,_RNvXNvNtNtCsfZPcC2TrjjJ_17cedar_policy_core8entities26schema_based_parsing_testss_10namespacesNtB2_10MockSchemaNtNtNtB6_4json6schema6Schema11entity_type
FNDA:1,_RNvXNvNtNtCsfZPcC2TrjjJ_17cedar_policy_core8entities26schema_based_parsing_testss_10namespacesNtB2_10MockSchemaNtNtNtB6_4json6schema6Schema15action_entities
FNDA:1,_RNvXNvNtNtCsfZPcC2TrjjJ_17cedar_policy_core8entities26schema_based_parsing_testss_10namespacesNtB2_10MockSchemaNtNtNtB6_4json6schema6Schema26entity_types_with_basename
FNDA:0,_RNvXNvNtNtCsfZPcC2TrjjJ_17cedar_policy_core8entities26schema_based_parsing_testss_10namespacesNtB2_10MockSchemaNtNtNtB6_4json6schema6Schema6action
